///////////////////////////////////////////////////////////////////////////////
//                                                                            /
// IAR C/C++ Compiler V8.20.2.41139 for 8051            07/Dec/2016  15:50:21 /
// Copyright 2004-2013 IAR Systems AB.                                        /
//                                                                            /
//    Core               =  plain                                             /
//    Code model         =  banked                                            /
//    Data model         =  large                                             /
//    Calling convention =  xdata reentrant                                   /
//    Constant location  =  data_rom                                          /
//    Dptr setup         =  1,16                                              /
//                                                                            /
//    Source file        =  E:\Lib\micro-electromechanical\Ê±ÑÓ\ZStack-CC2530 /
//                          -2.5.1a\Projects\zstack\Samples\01ÎÂÊª¶È\Source\T /
//                          empHumApp.c                                       /
//    Command line       =  -f E:\Lib\micro-electromechanical\Ê±ÑÓ\ZStack-CC2 /
//                          530-2.5.1a\Projects\zstack\Samples\01ÎÂÊª¶È\CC253 /
//                          0DB\..\..\..\Tools\CC2530DB\f8wEndev.cfg          /
//                          (-DCPU32MHZ -DROOT=__near_func                    /
//                          -DMAC_CFG_TX_DATA_MAX=3 -DMAC_CFG_TX_MAX=6        /
//                          -DMAC_CFG_RX_MAX=3) -f E:\Lib\micro-electromechan /
//                          ical\Ê±ÑÓ\ZStack-CC2530-2.5.1a\Projects\zstack\Sa /
//                          mples\01ÎÂÊª¶È\CC2530DB\..\..\..\Tools\CC2530DB\f /
//                          8wConfig.cfg (-DZIGBEEPRO -DSECURE=0              /
//                          -DZG_SECURE_DYNAMIC=0 -DREFLECTOR                 /
//                          -DDEFAULT_CHANLIST=0x00100000                     /
//                          -DZDAPP_CONFIG_PAN_ID=0xFFFF                      /
//                          -DNWK_START_DELAY=100 -DEXTENDED_JOINING_RANDOM_M /
//                          ASK=0x007F -DBEACON_REQUEST_DELAY=100             /
//                          -DBEACON_REQ_DELAY_MASK=0x00FF                    /
//                          -DLINK_STATUS_JITTER_MASK=0x007F                  /
//                          -DROUTE_EXPIRY_TIME=30 -DAPSC_ACK_WAIT_DURATION_P /
//                          OLLED=3000 -DNWK_INDIRECT_MSG_TIMEOUT=7           /
//                          -DMAX_RREQ_ENTRIES=8 -DAPSC_MAX_FRAME_RETRIES=3   /
//                          -DNWK_MAX_DATA_RETRIES=2                          /
//                          -DMAX_POLL_FAILURE_RETRIES=2 -DMAX_BCAST=9        /
//                          -DAPS_MAX_GROUPS=16 -DMAX_RTG_ENTRIES=40          /
//                          -DNWK_MAX_BINDING_ENTRIES=4                       /
//                          -DMAX_BINDING_CLUSTER_IDS=4                       /
//                          "-DDEFAULT_KEY={0x01, 0x03, 0x05, 0x07, 0x09,     /
//                          0x0B, 0x0D, 0x0F, 0x00, 0x02, 0x04, 0x06, 0x08,   /
//                          0x0A, 0x0C, 0x0D}" -DMAC_MAX_FRAME_SIZE=116       /
//                          -DZDNWKMGR_MIN_TRANSMISSIONS=20 "-DCONST=const    /
//                          __code" -DGENERIC=__generic                       /
//                          -DRFD_RCVC_ALWAYS_ON=FALSE -DPOLL_RATE=1000       /
//                          -DQUEUED_POLL_RATE=100 -DRESPONSE_POLL_RATE=100)  /
//                          -DREJOIN_POLL_RATE=440 E:\Lib\micro-electromechan /
//                          ical\Ê±ÑÓ\ZStack-CC2530-2.5.1a\Projects\zstack\Sa /
//                          mples\01ÎÂÊª¶È\Source\TempHumApp.c -D             /
//                          NWK_AUTO_POLL -D ZTOOL_P1 -D MT_TASK -D           /
//                          MT_SYS_FUNC -D MT_ZDO_FUNC -D                     /
//                          LCD_SUPPORTED=DEBUG -D xPOWER_SAVING -lC          /
//                          E:\Lib\micro-electromechanical\Ê±ÑÓ\ZStack-CC2530 /
//                          -2.5.1a\Projects\zstack\Samples\01ÎÂÊª¶È\CC2530DB /
//                          \EndDeviceEB\List\ -lA E:\Lib\micro-electromechan /
//                          ical\Ê±ÑÓ\ZStack-CC2530-2.5.1a\Projects\zstack\Sa /
//                          mples\01ÎÂÊª¶È\CC2530DB\EndDeviceEB\List\         /
//                          --diag_suppress Pe001,Pa010 -o                    /
//                          E:\Lib\micro-electromechanical\Ê±ÑÓ\ZStack-CC2530 /
//                          -2.5.1a\Projects\zstack\Samples\01ÎÂÊª¶È\CC2530DB /
//                          \EndDeviceEB\Obj\ -e --no_code_motion --debug     /
//                          --core=plain --dptr=16,1 --data_model=large       /
//                          --code_model=banked --calling_convention=xdata_re /
//                          entrant --place_constants=data_rom                /
//                          --nr_virtual_regs 16 -I                           /
//                          E:\Lib\micro-electromechanical\Ê±ÑÓ\ZStack-CC2530 /
//                          -2.5.1a\Projects\zstack\Samples\01ÎÂÊª¶È\CC2530DB /
//                          \ -I E:\Lib\micro-electromechanical\Ê±ÑÓ\ZStack-C /
//                          C2530-2.5.1a\Projects\zstack\Samples\01ÎÂÊª¶È\CC2 /
//                          530DB\..\Source\ -I E:\Lib\micro-electromechanica /
//                          l\Ê±ÑÓ\ZStack-CC2530-2.5.1a\Projects\zstack\Sampl /
//                          es\01ÎÂÊª¶È\CC2530DB\..\..\..\ZMain\TI2530DB\ -I  /
//                          E:\Lib\micro-electromechanical\Ê±ÑÓ\ZStack-CC2530 /
//                          -2.5.1a\Projects\zstack\Samples\01ÎÂÊª¶È\CC2530DB /
//                          \..\..\..\..\..\Components\hal\include\ -I        /
//                          E:\Lib\micro-electromechanical\Ê±ÑÓ\ZStack-CC2530 /
//                          -2.5.1a\Projects\zstack\Samples\01ÎÂÊª¶È\CC2530DB /
//                          \..\..\..\..\..\Components\hal\target\CC2530EB\   /
//                          -I E:\Lib\micro-electromechanical\Ê±ÑÓ\ZStack-CC2 /
//                          530-2.5.1a\Projects\zstack\Samples\01ÎÂÊª¶È\CC253 /
//                          0DB\..\..\..\..\..\Components\mac\include\ -I     /
//                          E:\Lib\micro-electromechanical\Ê±ÑÓ\ZStack-CC2530 /
//                          -2.5.1a\Projects\zstack\Samples\01ÎÂÊª¶È\CC2530DB /
//                          \..\..\..\..\..\Components\mac\high_level\ -I     /
//                          E:\Lib\micro-electromechanical\Ê±ÑÓ\ZStack-CC2530 /
//                          -2.5.1a\Projects\zstack\Samples\01ÎÂÊª¶È\CC2530DB /
//                          \..\..\..\..\..\Components\mac\low_level\srf04\   /
//                          -I E:\Lib\micro-electromechanical\Ê±ÑÓ\ZStack-CC2 /
//                          530-2.5.1a\Projects\zstack\Samples\01ÎÂÊª¶È\CC253 /
//                          0DB\..\..\..\..\..\Components\mac\low_level\srf04 /
//                          \single_chip\ -I E:\Lib\micro-electromechanical\Ê /
//                          ±ÑÓ\ZStack-CC2530-2.5.1a\Projects\zstack\Samples\ /
//                          01ÎÂÊª¶È\CC2530DB\..\..\..\..\..\Components\mt\   /
//                          -I E:\Lib\micro-electromechanical\Ê±ÑÓ\ZStack-CC2 /
//                          530-2.5.1a\Projects\zstack\Samples\01ÎÂÊª¶È\CC253 /
//                          0DB\..\..\..\..\..\Components\osal\include\ -I    /
//                          E:\Lib\micro-electromechanical\Ê±ÑÓ\ZStack-CC2530 /
//                          -2.5.1a\Projects\zstack\Samples\01ÎÂÊª¶È\CC2530DB /
//                          \..\..\..\..\..\Components\services\saddr\ -I     /
//                          E:\Lib\micro-electromechanical\Ê±ÑÓ\ZStack-CC2530 /
//                          -2.5.1a\Projects\zstack\Samples\01ÎÂÊª¶È\CC2530DB /
//                          \..\..\..\..\..\Components\services\sdata\ -I     /
//                          E:\Lib\micro-electromechanical\Ê±ÑÓ\ZStack-CC2530 /
//                          -2.5.1a\Projects\zstack\Samples\01ÎÂÊª¶È\CC2530DB /
//                          \..\..\..\..\..\Components\stack\af\ -I           /
//                          E:\Lib\micro-electromechanical\Ê±ÑÓ\ZStack-CC2530 /
//                          -2.5.1a\Projects\zstack\Samples\01ÎÂÊª¶È\CC2530DB /
//                          \..\..\..\..\..\Components\stack\nwk\ -I          /
//                          E:\Lib\micro-electromechanical\Ê±ÑÓ\ZStack-CC2530 /
//                          -2.5.1a\Projects\zstack\Samples\01ÎÂÊª¶È\CC2530DB /
//                          \..\..\..\..\..\Components\stack\sapi\ -I         /
//                          E:\Lib\micro-electromechanical\Ê±ÑÓ\ZStack-CC2530 /
//                          -2.5.1a\Projects\zstack\Samples\01ÎÂÊª¶È\CC2530DB /
//                          \..\..\..\..\..\Components\stack\sec\ -I          /
//                          E:\Lib\micro-electromechanical\Ê±ÑÓ\ZStack-CC2530 /
//                          -2.5.1a\Projects\zstack\Samples\01ÎÂÊª¶È\CC2530DB /
//                          \..\..\..\..\..\Components\stack\sys\ -I          /
//                          E:\Lib\micro-electromechanical\Ê±ÑÓ\ZStack-CC2530 /
//                          -2.5.1a\Projects\zstack\Samples\01ÎÂÊª¶È\CC2530DB /
//                          \..\..\..\..\..\Components\stack\zdo\ -I          /
//                          E:\Lib\micro-electromechanical\Ê±ÑÓ\ZStack-CC2530 /
//                          -2.5.1a\Projects\zstack\Samples\01ÎÂÊª¶È\CC2530DB /
//                          \..\..\..\..\..\Components\zmac\ -I               /
//                          E:\Lib\micro-electromechanical\Ê±ÑÓ\ZStack-CC2530 /
//                          -2.5.1a\Projects\zstack\Samples\01ÎÂÊª¶È\CC2530DB /
//                          \..\..\..\..\..\Components\zmac\f8w\ -Ohz         /
//    List file          =  E:\Lib\micro-electromechanical\Ê±ÑÓ\ZStack-CC2530 /
//                          -2.5.1a\Projects\zstack\Samples\01ÎÂÊª¶È\CC2530DB /
//                          \EndDeviceEB\List\TempHumApp.s51                  /
//                                                                            /
//                                                                            /
///////////////////////////////////////////////////////////////////////////////

        NAME TempHumApp

        RTMODEL "__SystemLibrary", "CLib"
        RTMODEL "__calling_convention", "xdata_reentrant"
        RTMODEL "__code_model", "banked"
        RTMODEL "__core", "plain"
        RTMODEL "__data_model", "large"
        RTMODEL "__dptr_size", "16"
        RTMODEL "__extended_stack", "disabled"
        RTMODEL "__location_for_constants", "data"
        RTMODEL "__number_of_dptrs", "1"
        RTMODEL "__rt_version", "1"

        RSEG DOVERLAY:DATA:NOROOT(0)
        RSEG IOVERLAY:IDATA:NOROOT(0)
        RSEG ISTACK:IDATA:NOROOT(0)
        RSEG PSTACK:XDATA:NOROOT(0)
        RSEG XSTACK:XDATA:NOROOT(0)

        EXTERN ?ALLOC_XSTACK8
        EXTERN ?BANKED_ENTER_XDATA
        EXTERN ?BANKED_LEAVE_XDATA
        EXTERN ?BDISPATCH
        EXTERN ?BRET
        EXTERN ?DEALLOC_XSTACK8
        EXTERN ?MOVE_LONG8_XDATA_XDATA
        EXTERN ?PUSH_XSTACK_I_ONE
        EXTERN ?PUSH_XSTACK_I_TWO
        EXTERN ?V0
        EXTERN ?XSP
        EXTERN ?XSTACK_DISP0_8
        EXTERN __INIT_XDATA_Z

        PUBLIC ??TempHumApp_Init?relay
        FUNCTION ??TempHumApp_Init?relay,0203H
        PUBLIC ??TempHumApp_ProcessEvent?relay
        FUNCTION ??TempHumApp_ProcessEvent?relay,0203H
        PUBLIC ??TempHumApp_SendTheMessage?relay
        FUNCTION ??TempHumApp_SendTheMessage?relay,0203H
        PUBLIC ??TempHumApp_SerialSend?relay
        FUNCTION ??TempHumApp_SerialSend?relay,0203H
        FUNCTION ??rxCB?relay,0203H
        PUBLIC TempDATA
        PUBLIC TempHumApp_ClusterList
        PUBLIC TempHumApp_Init
        FUNCTION TempHumApp_Init,021203H
        ARGFRAME XSTACK, 0, STACK
        LOCFRAME XSTACK, 38, STACK
        PUBLIC TempHumApp_NwkState
        PUBLIC TempHumApp_ProcessEvent
        FUNCTION TempHumApp_ProcessEvent,021203H
        ARGFRAME XSTACK, 0, STACK
        LOCFRAME XSTACK, 12, STACK
        PUBLIC TempHumApp_SendTheMessage
        FUNCTION TempHumApp_SendTheMessage,021203H
        ARGFRAME XSTACK, 12, STACK
        ARGFRAME IOVERLAY, 0, STATIC
        ARGFRAME DOVERLAY, 0, STATIC
        LOCFRAME ISTACK, 2, STACK
        LOCFRAME XSTACK, 41, STACK
        PUBLIC TempHumApp_SerialSend
        FUNCTION TempHumApp_SerialSend,021203H
        ARGFRAME XSTACK, 10, STACK
        ARGFRAME IOVERLAY, 0, STATIC
        ARGFRAME DOVERLAY, 0, STATIC
        LOCFRAME ISTACK, 2, STACK
        LOCFRAME XSTACK, 41, STACK
        PUBLIC TempHumApp_SimpleDesc
        PUBLIC TempHumApp_TaskID
        PUBLIC TempHumApp_TransID
        PUBLIC TempHumApp_epDesc
        PUBWEAK _A_P1
        FUNCTION rxCB,021603H
        ARGFRAME XSTACK, 0, STACK
        LOCFRAME ISTACK, 2, STACK
        LOCFRAME XSTACK, 10, STACK
        
          CFI Names cfiNames0
          CFI StackFrame CFA_SP SP IDATA
          CFI StackFrame CFA_PSP16 PSP16 XDATA
          CFI StackFrame CFA_XSP16 XSP16 XDATA
          CFI StaticOverlayFrame CFA_IOVERLAY IOVERLAY
          CFI StaticOverlayFrame CFA_DOVERLAY DOVERLAY
          CFI Resource `PSW.CY`:1, `B.BR0`:1, `B.BR1`:1, `B.BR2`:1, `B.BR3`:1
          CFI Resource `B.BR4`:1, `B.BR5`:1, `B.BR6`:1, `B.BR7`:1, `VB.BR8`:1
          CFI Resource `VB.BR9`:1, `VB.BR10`:1, `VB.BR11`:1, `VB.BR12`:1
          CFI Resource `VB.BR13`:1, `VB.BR14`:1, `VB.BR15`:1, VB:8, B:8, A:8
          CFI Resource PSW:8, DPL0:8, DPH0:8, R0:8, R1:8, R2:8, R3:8, R4:8, R5:8
          CFI Resource R6:8, R7:8, V0:8, V1:8, V2:8, V3:8, V4:8, V5:8, V6:8, V7:8
          CFI Resource V8:8, V9:8, V10:8, V11:8, V12:8, V13:8, V14:8, V15:8, SP:8
          CFI Resource PSPH:8, PSPL:8, PSP16:16, XSPH:8, XSPL:8, XSP16:16
          CFI VirtualResource ?RET:24
          CFI Resource ?BRET_EXT:8
          CFI VirtualResource ?RET_HIGH:8, ?RET_LOW:8
          CFI ResourceParts PSP16 PSPH, PSPL
          CFI ResourceParts XSP16 XSPH, XSPL
          CFI ResourceParts ?RET ?BRET_EXT, ?RET_HIGH, ?RET_LOW
          CFI EndNames cfiNames0
        
          CFI Common cfiCommon0 Using cfiNames0
          CFI CodeAlign 1
          CFI DataAlign -1
          CFI ReturnAddress ?RET CODE
          CFI CFA_DOVERLAY Used
          CFI CFA_IOVERLAY Used
          CFI CFA_SP SP+-3
          CFI CFA_PSP16 PSP16+0
          CFI CFA_XSP16 XSP16+0
          CFI `PSW.CY` SameValue
          CFI `B.BR0` SameValue
          CFI `B.BR1` SameValue
          CFI `B.BR2` SameValue
          CFI `B.BR3` SameValue
          CFI `B.BR4` SameValue
          CFI `B.BR5` SameValue
          CFI `B.BR6` SameValue
          CFI `B.BR7` SameValue
          CFI `VB.BR8` SameValue
          CFI `VB.BR9` SameValue
          CFI `VB.BR10` SameValue
          CFI `VB.BR11` SameValue
          CFI `VB.BR12` SameValue
          CFI `VB.BR13` SameValue
          CFI `VB.BR14` SameValue
          CFI `VB.BR15` SameValue
          CFI VB SameValue
          CFI B Undefined
          CFI A Undefined
          CFI PSW SameValue
          CFI DPL0 SameValue
          CFI DPH0 SameValue
          CFI R0 Undefined
          CFI R1 Undefined
          CFI R2 Undefined
          CFI R3 Undefined
          CFI R4 Undefined
          CFI R5 Undefined
          CFI R6 SameValue
          CFI R7 SameValue
          CFI V0 SameValue
          CFI V1 SameValue
          CFI V2 SameValue
          CFI V3 SameValue
          CFI V4 SameValue
          CFI V5 SameValue
          CFI V6 SameValue
          CFI V7 SameValue
          CFI V8 SameValue
          CFI V9 SameValue
          CFI V10 SameValue
          CFI V11 SameValue
          CFI V12 SameValue
          CFI V13 SameValue
          CFI V14 SameValue
          CFI V15 SameValue
          CFI PSPH Undefined
          CFI PSPL Undefined
          CFI XSPH Undefined
          CFI XSPL Undefined
          CFI ?RET Concat
          CFI ?BRET_EXT Frame(CFA_SP, 3)
          CFI ?RET_HIGH Frame(CFA_SP, 2)
          CFI ?RET_LOW Frame(CFA_SP, 1)
          CFI EndCommon cfiCommon0
        
        
          CFI Common cfiCommon1 Using cfiNames0
          CFI CodeAlign 1
          CFI DataAlign -1
          CFI ReturnAddress ?RET CODE
          CFI CFA_DOVERLAY Used
          CFI CFA_IOVERLAY Used
          CFI CFA_SP SP+-2
          CFI CFA_PSP16 PSP16+0
          CFI CFA_XSP16 XSP16+0
          CFI `PSW.CY` SameValue
          CFI `B.BR0` SameValue
          CFI `B.BR1` SameValue
          CFI `B.BR2` SameValue
          CFI `B.BR3` SameValue
          CFI `B.BR4` SameValue
          CFI `B.BR5` SameValue
          CFI `B.BR6` SameValue
          CFI `B.BR7` SameValue
          CFI `VB.BR8` SameValue
          CFI `VB.BR9` SameValue
          CFI `VB.BR10` SameValue
          CFI `VB.BR11` SameValue
          CFI `VB.BR12` SameValue
          CFI `VB.BR13` SameValue
          CFI `VB.BR14` SameValue
          CFI `VB.BR15` SameValue
          CFI VB SameValue
          CFI B SameValue
          CFI A SameValue
          CFI PSW SameValue
          CFI DPL0 SameValue
          CFI DPH0 SameValue
          CFI R0 SameValue
          CFI R1 SameValue
          CFI R2 SameValue
          CFI R3 SameValue
          CFI R4 SameValue
          CFI R5 SameValue
          CFI R6 SameValue
          CFI R7 SameValue
          CFI V0 SameValue
          CFI V1 SameValue
          CFI V2 SameValue
          CFI V3 SameValue
          CFI V4 SameValue
          CFI V5 SameValue
          CFI V6 SameValue
          CFI V7 SameValue
          CFI V8 SameValue
          CFI V9 SameValue
          CFI V10 SameValue
          CFI V11 SameValue
          CFI V12 SameValue
          CFI V13 SameValue
          CFI V14 SameValue
          CFI V15 SameValue
          CFI PSPH Undefined
          CFI PSPL Undefined
          CFI XSPH Undefined
          CFI XSPL Undefined
          CFI ?RET Concat
          CFI ?BRET_EXT SameValue
          CFI ?RET_HIGH Frame(CFA_SP, 2)
          CFI ?RET_LOW Frame(CFA_SP, 1)
          CFI EndCommon cfiCommon1
        
AF_DataRequest      SYMBOL "AF_DataRequest"
??AF_DataRequest?relay SYMBOL "?relay", AF_DataRequest
HalUARTOpen         SYMBOL "HalUARTOpen"
??HalUARTOpen?relay SYMBOL "?relay", HalUARTOpen
HalUARTRead         SYMBOL "HalUARTRead"
??HalUARTRead?relay SYMBOL "?relay", HalUARTRead
MT_UartInit         SYMBOL "MT_UartInit"
??MT_UartInit?relay SYMBOL "?relay", MT_UartInit
MT_UartRegisterTaskID SYMBOL "MT_UartRegisterTaskID"
??MT_UartRegisterTaskID?relay SYMBOL "?relay", MT_UartRegisterTaskID
Read_DHT11          SYMBOL "Read_DHT11"
??Read_DHT11?relay  SYMBOL "?relay", Read_DHT11
afRegister          SYMBOL "afRegister"
??afRegister?relay  SYMBOL "?relay", afRegister
memcpy              SYMBOL "memcpy"
??memcpy?relay      SYMBOL "?relay", memcpy
osal_msg_deallocate SYMBOL "osal_msg_deallocate"
??osal_msg_deallocate?relay SYMBOL "?relay", osal_msg_deallocate
osal_msg_receive    SYMBOL "osal_msg_receive"
??osal_msg_receive?relay SYMBOL "?relay", osal_msg_receive
osal_set_event      SYMBOL "osal_set_event"
??osal_set_event?relay SYMBOL "?relay", osal_set_event
osal_start_timerEx  SYMBOL "osal_start_timerEx"
??osal_start_timerEx?relay SYMBOL "?relay", osal_start_timerEx
osal_strlen         SYMBOL "osal_strlen"
??osal_strlen?relay SYMBOL "?relay", osal_strlen
TempHumApp_Init     SYMBOL "TempHumApp_Init"
??TempHumApp_Init?relay SYMBOL "?relay", TempHumApp_Init
TempHumApp_ProcessEvent SYMBOL "TempHumApp_ProcessEvent"
??TempHumApp_ProcessEvent?relay SYMBOL "?relay", TempHumApp_ProcessEvent
TempHumApp_SendTheMessage SYMBOL "TempHumApp_SendTheMessage"
??TempHumApp_SendTheMessage?relay SYMBOL "?relay", TempHumApp_SendTheMessage
TempHumApp_SerialSend SYMBOL "TempHumApp_SerialSend"
??TempHumApp_SerialSend?relay SYMBOL "?relay", TempHumApp_SerialSend

        EXTERN ??AF_DataRequest?relay
        FUNCTION ??AF_DataRequest?relay,00H
        EXTERN ??HalUARTOpen?relay
        FUNCTION ??HalUARTOpen?relay,00H
        EXTERN ??HalUARTRead?relay
        FUNCTION ??HalUARTRead?relay,00H
        EXTERN ??MT_UartInit?relay
        FUNCTION ??MT_UartInit?relay,00H
        EXTERN ??MT_UartRegisterTaskID?relay
        FUNCTION ??MT_UartRegisterTaskID?relay,00H
        EXTERN ??Read_DHT11?relay
        FUNCTION ??Read_DHT11?relay,00H
        EXTERN ??afRegister?relay
        FUNCTION ??afRegister?relay,00H
        EXTERN ??memcpy?relay
        FUNCTION ??memcpy?relay,00H
        EXTERN ??osal_msg_deallocate?relay
        FUNCTION ??osal_msg_deallocate?relay,00H
        EXTERN ??osal_msg_receive?relay
        FUNCTION ??osal_msg_receive?relay,00H
        EXTERN ??osal_set_event?relay
        FUNCTION ??osal_set_event?relay,00H
        EXTERN ??osal_start_timerEx?relay
        FUNCTION ??osal_start_timerEx?relay,00H
        EXTERN ??osal_strlen?relay
        FUNCTION ??osal_strlen?relay,00H
        EXTERN AF_DataRequest
        FUNCTION AF_DataRequest,0202H
        ARGFRAME ISTACK, 0, STACK
        ARGFRAME PSTACK, 0, STACK
        ARGFRAME XSTACK, 41, STACK
        ARGFRAME IOVERLAY, 0, STATIC
        ARGFRAME DOVERLAY, 0, STATIC
        EXTERN HalUARTOpen
        FUNCTION HalUARTOpen,0202H
        ARGFRAME ISTACK, 0, STACK
        ARGFRAME PSTACK, 0, STACK
        ARGFRAME XSTACK, 38, STACK
        ARGFRAME IOVERLAY, 0, STATIC
        ARGFRAME DOVERLAY, 0, STATIC
        EXTERN HalUARTRead
        FUNCTION HalUARTRead,0202H
        ARGFRAME ISTACK, 2, STACK
        ARGFRAME PSTACK, 0, STACK
        ARGFRAME XSTACK, 10, STACK
        ARGFRAME IOVERLAY, 0, STATIC
        ARGFRAME DOVERLAY, 0, STATIC
        EXTERN MT_UartInit
        FUNCTION MT_UartInit,0202H
        ARGFRAME ISTACK, 0, STACK
        ARGFRAME PSTACK, 0, STACK
        ARGFRAME XSTACK, 38, STACK
        ARGFRAME IOVERLAY, 0, STATIC
        ARGFRAME DOVERLAY, 0, STATIC
        EXTERN MT_UartRegisterTaskID
        FUNCTION MT_UartRegisterTaskID,0202H
        ARGFRAME ISTACK, 0, STACK
        ARGFRAME PSTACK, 0, STACK
        ARGFRAME XSTACK, 38, STACK
        ARGFRAME IOVERLAY, 0, STATIC
        ARGFRAME DOVERLAY, 0, STATIC
        EXTERN Read_DHT11
        FUNCTION Read_DHT11,0202H
        ARGFRAME ISTACK, 0, STACK
        ARGFRAME PSTACK, 0, STACK
        ARGFRAME XSTACK, 12, STACK
        ARGFRAME IOVERLAY, 0, STATIC
        ARGFRAME DOVERLAY, 0, STATIC
        EXTERN afRegister
        FUNCTION afRegister,0202H
        ARGFRAME ISTACK, 0, STACK
        ARGFRAME PSTACK, 0, STACK
        ARGFRAME XSTACK, 38, STACK
        ARGFRAME IOVERLAY, 0, STATIC
        ARGFRAME DOVERLAY, 0, STATIC
        EXTERN memcpy
        FUNCTION memcpy,010202H
        ARGFRAME ISTACK, 0, STACK
        ARGFRAME PSTACK, 0, STACK
        ARGFRAME XSTACK, 34, STACK
        ARGFRAME IOVERLAY, 0, STATIC
        ARGFRAME DOVERLAY, 0, STATIC
        EXTERN osal_msg_deallocate
        FUNCTION osal_msg_deallocate,0202H
        ARGFRAME ISTACK, 0, STACK
        ARGFRAME PSTACK, 0, STACK
        ARGFRAME XSTACK, 12, STACK
        ARGFRAME IOVERLAY, 0, STATIC
        ARGFRAME DOVERLAY, 0, STATIC
        EXTERN osal_msg_receive
        FUNCTION osal_msg_receive,0202H
        ARGFRAME ISTACK, 0, STACK
        ARGFRAME PSTACK, 0, STACK
        ARGFRAME XSTACK, 12, STACK
        ARGFRAME IOVERLAY, 0, STATIC
        ARGFRAME DOVERLAY, 0, STATIC
        EXTERN osal_set_event
        FUNCTION osal_set_event,0202H
        ARGFRAME ISTACK, 0, STACK
        ARGFRAME PSTACK, 0, STACK
        ARGFRAME XSTACK, 12, STACK
        ARGFRAME IOVERLAY, 0, STATIC
        ARGFRAME DOVERLAY, 0, STATIC
        EXTERN osal_start_timerEx
        FUNCTION osal_start_timerEx,0202H
        ARGFRAME ISTACK, 0, STACK
        ARGFRAME PSTACK, 0, STACK
        ARGFRAME XSTACK, 12, STACK
        ARGFRAME IOVERLAY, 0, STATIC
        ARGFRAME DOVERLAY, 0, STATIC
        EXTERN osal_strlen
        FUNCTION osal_strlen,0202H
        ARGFRAME ISTACK, 0, STACK
        ARGFRAME PSTACK, 0, STACK
        ARGFRAME XSTACK, 37, STACK
        ARGFRAME IOVERLAY, 0, STATIC
        ARGFRAME DOVERLAY, 0, STATIC

// E:\Lib\micro-electromechanical\Ê±ÑÓ\ZStack-CC2530-2.5.1a\Projects\zstack\Samples\01ÎÂÊª¶È\Source\TempHumApp.c
//    1 #include "OSAL.h"
//    2 #include "AF.h"
//    3 #include "ZDApp.h"
//    4 #include "ZDObject.h"
//    5 #include "ZDProfile.h"
//    6 #include <string.h>
//    7 //#include "Common.h"
//    8 #include "DebugTrace.h"
//    9 #include "TempHumApp.h"
//   10 #include "MT.h"
//   11 
//   12 #if !defined( WIN32 )
//   13   #include "OnBoard.h"

        ASEGN SFR_AN:DATA:NOROOT,090H
// union <unnamed> volatile __sfr _A_P1
_A_P1:
        DATA8
        DS 1
//   14 #endif
//   15 
//   16 /* HAL */
//   17 #include "hal_lcd.h"
//   18 #include "hal_led.h"
//   19 #include "hal_key.h"
//   20 #include "hal_uart.h"
//   21 #include "mt_uart.h"
//   22 
//   23 
//   24 #define SEND_DATA_EVENT 0x01
//   25 

        RSEG XDATA_ROM_C:CONST:REORDER:NOROOT(0)
        DATA16
//   26 const cId_t TempHumApp_ClusterList[TempHumApp_MAX_CLUSTERS] =
TempHumApp_ClusterList:
        DW 1
//   27 {
//   28   TempHumApp_CLUSTERID
//   29 };
//   30 
//   31 
//   32 

        RSEG XDATA_ROM_C:CONST:REORDER:NOROOT(0)
        DATA8
//   33 const SimpleDescriptionFormat_t TempHumApp_SimpleDesc =
TempHumApp_SimpleDesc:
        DB 10
        DATA16
        DW 3844
        DW 1
        DATA8
        DB 0
        DB 0
        DATA16
        DW 0H
        DATA8
        DB 1
        DATA16
        DW TempHumApp_ClusterList
//   34 {
//   35   TempHumApp_ENDPOINT,              //  int Endpoint;
//   36   TempHumApp_PROFID,                //  uint16 AppProfId[2];
//   37   TempHumApp_DEVICEID,              //  uint16 AppDeviceId[2];
//   38   TempHumApp_DEVICE_VERSION,        //  int   AppDevVer:4;
//   39   TempHumApp_FLAGS,                 //  int   AppFlags:4;
//   40   
//   41   
//   42   0,          //  byte  AppNumInClusters;
//   43   (cId_t *)NULL,  //  byte *pAppInClusterList;
//   44   TempHumApp_MAX_CLUSTERS,          //  byte  AppNumInClusters;
//   45   (cId_t *)TempHumApp_ClusterList   //  byte *pAppInClusterList;
//   46 };
//   47 

        RSEG XDATA_Z:XDATA:NOROOT(0)
        DATA8
//   48 unsigned char TempDATA;
TempDATA:
        DS 1
        REQUIRE __INIT_XDATA_Z

        RSEG XDATA_Z:XDATA:NOROOT(0)
        DATA8
//   49 endPointDesc_t TempHumApp_epDesc;
TempHumApp_epDesc:
        DS 6
        REQUIRE __INIT_XDATA_Z

        RSEG XDATA_Z:XDATA:NOROOT(0)
        DATA8
//   50 byte TempHumApp_TaskID;
TempHumApp_TaskID:
        DS 1
        REQUIRE __INIT_XDATA_Z

        RSEG XDATA_Z:XDATA:NOROOT(0)
        DATA8
//   51 byte TempHumApp_TransID;
TempHumApp_TransID:
        DS 1
        REQUIRE __INIT_XDATA_Z

        RSEG XDATA_Z:XDATA:NOROOT(0)
        DATA8
//   52 devStates_t TempHumApp_NwkState;
TempHumApp_NwkState:
        DS 1
        REQUIRE __INIT_XDATA_Z
//   53 void TempHumApp_MessageMSGCB(afIncomingMSGPacket_t *MSGpkt);
//   54 void TempHumApp_SendTheMessage(void);
//   55 static void rxCB(uint8 port,uint8 event);
//   56 void TempHumApp_SerialSend(unsigned char* ser_str);
//   57 

        RSEG BANKED_CODE:CODE:NOROOT(0)
//   58 void TempHumApp_Init( byte task_id )
TempHumApp_Init:
          CFI Block cfiBlock0 Using cfiCommon0
          CFI Function TempHumApp_Init
        CODE
//   59 {
        FUNCALL TempHumApp_Init, afRegister
        LOCFRAME ISTACK, 0, STACK
        LOCFRAME PSTACK, 0, STACK
        LOCFRAME XSTACK, 38, STACK
        LOCFRAME IOVERLAY, 0, STATIC
        LOCFRAME DOVERLAY, 0, STATIC
        ARGFRAME ISTACK, 0, STACK
        ARGFRAME PSTACK, 0, STACK
        ARGFRAME XSTACK, 38, STACK
        ARGFRAME IOVERLAY, 0, STATIC
        ARGFRAME DOVERLAY, 0, STATIC
        FUNCALL TempHumApp_Init, MT_UartRegisterTaskID
        LOCFRAME ISTACK, 0, STACK
        LOCFRAME PSTACK, 0, STACK
        LOCFRAME XSTACK, 38, STACK
        LOCFRAME IOVERLAY, 0, STATIC
        LOCFRAME DOVERLAY, 0, STATIC
        ARGFRAME ISTACK, 0, STACK
        ARGFRAME PSTACK, 0, STACK
        ARGFRAME XSTACK, 38, STACK
        ARGFRAME IOVERLAY, 0, STATIC
        ARGFRAME DOVERLAY, 0, STATIC
        FUNCALL TempHumApp_Init, MT_UartInit
        LOCFRAME ISTACK, 0, STACK
        LOCFRAME PSTACK, 0, STACK
        LOCFRAME XSTACK, 38, STACK
        LOCFRAME IOVERLAY, 0, STATIC
        LOCFRAME DOVERLAY, 0, STATIC
        ARGFRAME ISTACK, 0, STACK
        ARGFRAME PSTACK, 0, STACK
        ARGFRAME XSTACK, 38, STACK
        ARGFRAME IOVERLAY, 0, STATIC
        ARGFRAME DOVERLAY, 0, STATIC
        FUNCALL TempHumApp_Init, HalUARTOpen
        LOCFRAME ISTACK, 0, STACK
        LOCFRAME PSTACK, 0, STACK
        LOCFRAME XSTACK, 38, STACK
        LOCFRAME IOVERLAY, 0, STATIC
        LOCFRAME DOVERLAY, 0, STATIC
        ARGFRAME ISTACK, 0, STACK
        ARGFRAME PSTACK, 0, STACK
        ARGFRAME XSTACK, 38, STACK
        ARGFRAME IOVERLAY, 0, STATIC
        ARGFRAME DOVERLAY, 0, STATIC
        MOV     A,#-0x9
        LCALL   ?BANKED_ENTER_XDATA
          CFI DPH0 load(1, XDATA, add(CFA_XSP16, literal(-1)))
          CFI DPL0 load(1, XDATA, add(CFA_XSP16, literal(-2)))
          CFI ?BRET_EXT load(1, XDATA, add(CFA_XSP16, literal(-3)))
          CFI ?RET_HIGH load(1, XDATA, add(CFA_XSP16, literal(-4)))
          CFI ?RET_LOW load(1, XDATA, add(CFA_XSP16, literal(-5)))
          CFI R7 load(1, XDATA, add(CFA_XSP16, literal(-6)))
          CFI V0 load(1, XDATA, add(CFA_XSP16, literal(-7)))
          CFI VB load(1, XDATA, add(CFA_XSP16, literal(-8)))
          CFI R6 load(1, XDATA, add(CFA_XSP16, literal(-9)))
          CFI CFA_SP SP+0
          CFI CFA_XSP16 add(XSP16, 9)
        ; Saved register size: 9
        ; Auto size: 29
        MOV     A,#-0x1d
        LCALL   ?ALLOC_XSTACK8
          CFI CFA_XSP16 add(XSP16, 38)
        MOV     A,R1
        MOV     R6,A
//   60   //halUARTCfg_t uartConfig;//´®¿Ú
//   61     
//   62   TempHumApp_TaskID = task_id;
        MOV     DPTR,#TempHumApp_TaskID
        MOVX    @DPTR,A
//   63   TempHumApp_NwkState=DEV_INIT;
        MOV     DPTR,#TempHumApp_NwkState
        MOV     A,#0x1
        MOVX    @DPTR,A
//   64   TempHumApp_TransID = 0;
        MOV     DPTR,#TempHumApp_TransID
        CLR     A
        MOVX    @DPTR,A
//   65 
//   66   
//   67   TempHumApp_epDesc.endPoint = TempHumApp_ENDPOINT;
        MOV     DPTR,#TempHumApp_epDesc
        MOV     A,#0xa
        MOVX    @DPTR,A
//   68   TempHumApp_epDesc.task_id = &TempHumApp_TaskID;
        INC     DPTR
        MOV     A,#TempHumApp_TaskID & 0xff
        MOVX    @DPTR,A
        INC     DPTR
        MOV     A,#(TempHumApp_TaskID >> 8) & 0xff
        MOVX    @DPTR,A
//   69   TempHumApp_epDesc.simpleDesc
//   70             = (SimpleDescriptionFormat_t *)&TempHumApp_SimpleDesc;
        INC     DPTR
        MOV     A,#TempHumApp_SimpleDesc & 0xff
        MOVX    @DPTR,A
        INC     DPTR
        MOV     A,#(TempHumApp_SimpleDesc >> 8) & 0xff
        MOVX    @DPTR,A
//   71   
//   72   TempHumApp_epDesc.latencyReq = noLatencyReqs;
        INC     DPTR
        CLR     A
        MOVX    @DPTR,A
//   73   afRegister( &TempHumApp_epDesc ); 
        ; Setup parameters for call to function afRegister
        MOV     R2,#TempHumApp_epDesc & 0xff
        MOV     R3,#(TempHumApp_epDesc >> 8) & 0xff
        LCALL   ??afRegister?relay
//   74    //uart×¢²á
//   75   MT_UartRegisterTaskID(task_id);
        ; Setup parameters for call to function MT_UartRegisterTaskID
        MOV     A,R6
        MOV     R1,A
        LCALL   ??MT_UartRegisterTaskID?relay
//   76   //´®¿Ú³õÊ¼»¯
//   77    MT_UartInit();
        ; Setup parameters for call to function MT_UartInit
        LCALL   ??MT_UartInit?relay
//   78   halUARTCfg_t uartConfig;
//   79   uartConfig.configured = TRUE;
        MOV     DPL,?XSP + 0
        MOV     DPH,?XSP + 1
        MOV     A,#0x1
        MOVX    @DPTR,A
//   80   uartConfig.baudRate = HAL_UART_BR_9600;
        LCALL   ?XSTACK_DISP0_8
        CLR     A
        MOVX    @DPTR,A
//   81   uartConfig.flowControl = FALSE;
        MOV     A,#0x2
        LCALL   ?XSTACK_DISP0_8
        CLR     A
        MOVX    @DPTR,A
//   82   uartConfig.callBackFunc = rxCB;
        MOV     A,#0x1b
        LCALL   ?XSTACK_DISP0_8
        MOV     A,#??rxCB?relay & 0xff
        MOVX    @DPTR,A
        INC     DPTR
        MOV     A,#(??rxCB?relay >> 8) & 0xff
        MOVX    @DPTR,A
//   83   HalUARTOpen(0,&uartConfig);
        ; Setup parameters for call to function HalUARTOpen
        MOV     DPL,?XSP + 0
        MOV     DPH,?XSP + 1
        MOV     R2,DPL
        MOV     R3,DPH
        MOV     R1,#0x0
        LCALL   ??HalUARTOpen?relay
//   84 }
        MOV     A,#0x1d
        LCALL   ?DEALLOC_XSTACK8
          CFI CFA_XSP16 add(XSP16, 9)
        MOV     R7,#0x1
        LJMP    ?BANKED_LEAVE_XDATA
          CFI EndBlock cfiBlock0

        RSEG BANKED_CODE:CODE:NOROOT(0)
//   85 static void rxCB(uint8 port,uint8 event)
rxCB:
          CFI Block cfiBlock1 Using cfiCommon0
          CFI Function rxCB
        CODE
//   86 {
        FUNCALL rxCB, HalUARTRead
        LOCFRAME ISTACK, 2, STACK
        LOCFRAME PSTACK, 0, STACK
        LOCFRAME XSTACK, 10, STACK
        LOCFRAME IOVERLAY, 0, STATIC
        LOCFRAME DOVERLAY, 0, STATIC
        ARGFRAME ISTACK, 2, STACK
        ARGFRAME PSTACK, 0, STACK
        ARGFRAME XSTACK, 10, STACK
        ARGFRAME IOVERLAY, 0, STATIC
        ARGFRAME DOVERLAY, 0, STATIC
        FUNCALL rxCB, TempHumApp_SerialSend
        LOCFRAME ISTACK, 2, STACK
        LOCFRAME PSTACK, 0, STACK
        LOCFRAME XSTACK, 10, STACK
        LOCFRAME IOVERLAY, 0, STATIC
        LOCFRAME DOVERLAY, 0, STATIC
        ARGFRAME ISTACK, 2, STACK
        ARGFRAME PSTACK, 0, STACK
        ARGFRAME XSTACK, 10, STACK
        ARGFRAME IOVERLAY, 0, STATIC
        ARGFRAME DOVERLAY, 0, STATIC
        PUSH    DPL
          CFI DPL0 Frame(CFA_SP, 4)
          CFI CFA_SP SP+-4
        PUSH    DPH
          CFI DPH0 Frame(CFA_SP, 5)
          CFI CFA_SP SP+-5
        ; Saved register size: 2
        ; Auto size: 10
        MOV     A,#-0xa
        LCALL   ?ALLOC_XSTACK8
          CFI CFA_XSP16 add(XSP16, 10)
//   87   //HalUARTWrite(0,"I get",5);
//   88   unsigned  char Uartbuf[10];
//   89   unsigned char len;
//   90   len=HalUARTRead(0,Uartbuf,10);
//   91   //HalUARTWrite(0,""+len,1);
//   92   if(len)
        ; Setup parameters for call to function HalUARTRead
        MOV     R4,#0xa
        MOV     R5,#0x0
        MOV     DPL,?XSP + 0
        MOV     DPH,?XSP + 1
        MOV     R2,DPL
        MOV     R3,DPH
        MOV     R1,#0x0
        LCALL   ??HalUARTRead?relay
        MOV     A,R2
        JZ      ??rxCB_0
//   93   {
//   94     //HalUARTWrite(0,"I get",5);
//   95     //HalUARTWrite(0,Uartbuf,len);
//   96     TempHumApp_SerialSend(Uartbuf);
        ; Setup parameters for call to function TempHumApp_SerialSend
        MOV     DPL,?XSP + 0
        MOV     DPH,?XSP + 1
        MOV     R2,DPL
        MOV     R3,DPH
        LCALL   ??TempHumApp_SerialSend?relay
//   97     len=0;
//   98   }
//   99 
//  100 }
??rxCB_0:
        MOV     A,#0xa
        LCALL   ?DEALLOC_XSTACK8
          CFI CFA_XSP16 XSP16+0
        POP     DPH
          CFI DPH0 SameValue
          CFI CFA_SP SP+-4
        POP     DPL
          CFI DPL0 SameValue
          CFI CFA_SP SP+-3
        LJMP    ?BRET
          CFI EndBlock cfiBlock1

        RSEG BANKED_CODE:CODE:NOROOT(0)
//  101 UINT16 TempHumApp_ProcessEvent( byte task_id, UINT16 events )
TempHumApp_ProcessEvent:
          CFI Block cfiBlock2 Using cfiCommon0
          CFI Function TempHumApp_ProcessEvent
        CODE
//  102 {
        FUNCALL TempHumApp_ProcessEvent, osal_msg_receive
        LOCFRAME ISTACK, 0, STACK
        LOCFRAME PSTACK, 0, STACK
        LOCFRAME XSTACK, 12, STACK
        LOCFRAME IOVERLAY, 0, STATIC
        LOCFRAME DOVERLAY, 0, STATIC
        ARGFRAME ISTACK, 0, STACK
        ARGFRAME PSTACK, 0, STACK
        ARGFRAME XSTACK, 12, STACK
        ARGFRAME IOVERLAY, 0, STATIC
        ARGFRAME DOVERLAY, 0, STATIC
        FUNCALL TempHumApp_ProcessEvent, osal_set_event
        LOCFRAME ISTACK, 0, STACK
        LOCFRAME PSTACK, 0, STACK
        LOCFRAME XSTACK, 12, STACK
        LOCFRAME IOVERLAY, 0, STATIC
        LOCFRAME DOVERLAY, 0, STATIC
        ARGFRAME ISTACK, 0, STACK
        ARGFRAME PSTACK, 0, STACK
        ARGFRAME XSTACK, 12, STACK
        ARGFRAME IOVERLAY, 0, STATIC
        ARGFRAME DOVERLAY, 0, STATIC
        FUNCALL TempHumApp_ProcessEvent, osal_msg_deallocate
        LOCFRAME ISTACK, 0, STACK
        LOCFRAME PSTACK, 0, STACK
        LOCFRAME XSTACK, 12, STACK
        LOCFRAME IOVERLAY, 0, STATIC
        LOCFRAME DOVERLAY, 0, STATIC
        ARGFRAME ISTACK, 0, STACK
        ARGFRAME PSTACK, 0, STACK
        ARGFRAME XSTACK, 12, STACK
        ARGFRAME IOVERLAY, 0, STATIC
        ARGFRAME DOVERLAY, 0, STATIC
        FUNCALL TempHumApp_ProcessEvent, osal_msg_receive
        LOCFRAME ISTACK, 0, STACK
        LOCFRAME PSTACK, 0, STACK
        LOCFRAME XSTACK, 12, STACK
        LOCFRAME IOVERLAY, 0, STATIC
        LOCFRAME DOVERLAY, 0, STATIC
        ARGFRAME ISTACK, 0, STACK
        ARGFRAME PSTACK, 0, STACK
        ARGFRAME XSTACK, 12, STACK
        ARGFRAME IOVERLAY, 0, STATIC
        ARGFRAME DOVERLAY, 0, STATIC
        FUNCALL TempHumApp_ProcessEvent, Read_DHT11
        LOCFRAME ISTACK, 0, STACK
        LOCFRAME PSTACK, 0, STACK
        LOCFRAME XSTACK, 12, STACK
        LOCFRAME IOVERLAY, 0, STATIC
        LOCFRAME DOVERLAY, 0, STATIC
        ARGFRAME ISTACK, 0, STACK
        ARGFRAME PSTACK, 0, STACK
        ARGFRAME XSTACK, 12, STACK
        ARGFRAME IOVERLAY, 0, STATIC
        ARGFRAME DOVERLAY, 0, STATIC
        FUNCALL TempHumApp_ProcessEvent, TempHumApp_SendTheMessage
        LOCFRAME ISTACK, 0, STACK
        LOCFRAME PSTACK, 0, STACK
        LOCFRAME XSTACK, 12, STACK
        LOCFRAME IOVERLAY, 0, STATIC
        LOCFRAME DOVERLAY, 0, STATIC
        ARGFRAME ISTACK, 0, STACK
        ARGFRAME PSTACK, 0, STACK
        ARGFRAME XSTACK, 12, STACK
        ARGFRAME IOVERLAY, 0, STATIC
        ARGFRAME DOVERLAY, 0, STATIC
        FUNCALL TempHumApp_ProcessEvent, osal_start_timerEx
        LOCFRAME ISTACK, 0, STACK
        LOCFRAME PSTACK, 0, STACK
        LOCFRAME XSTACK, 12, STACK
        LOCFRAME IOVERLAY, 0, STATIC
        LOCFRAME DOVERLAY, 0, STATIC
        ARGFRAME ISTACK, 0, STACK
        ARGFRAME PSTACK, 0, STACK
        ARGFRAME XSTACK, 12, STACK
        ARGFRAME IOVERLAY, 0, STATIC
        ARGFRAME DOVERLAY, 0, STATIC
        MOV     A,#-0xc
        LCALL   ?BANKED_ENTER_XDATA
          CFI DPH0 load(1, XDATA, add(CFA_XSP16, literal(-1)))
          CFI DPL0 load(1, XDATA, add(CFA_XSP16, literal(-2)))
          CFI ?BRET_EXT load(1, XDATA, add(CFA_XSP16, literal(-3)))
          CFI ?RET_HIGH load(1, XDATA, add(CFA_XSP16, literal(-4)))
          CFI ?RET_LOW load(1, XDATA, add(CFA_XSP16, literal(-5)))
          CFI R7 load(1, XDATA, add(CFA_XSP16, literal(-6)))
          CFI V3 load(1, XDATA, add(CFA_XSP16, literal(-7)))
          CFI V2 load(1, XDATA, add(CFA_XSP16, literal(-8)))
          CFI V1 load(1, XDATA, add(CFA_XSP16, literal(-9)))
          CFI V0 load(1, XDATA, add(CFA_XSP16, literal(-10)))
          CFI VB load(1, XDATA, add(CFA_XSP16, literal(-11)))
          CFI R6 load(1, XDATA, add(CFA_XSP16, literal(-12)))
          CFI CFA_SP SP+0
          CFI CFA_XSP16 add(XSP16, 12)
        ; Saved register size: 12
        ; Auto size: 0
        MOV     A,R2
        MOV     R6,A
        MOV     A,R3
        MOV     R7,A
//  103   afIncomingMSGPacket_t *MSGpkt;
//  104 
//  105   if ( events & SYS_EVENT_MSG )
        ANL     A,#0x80
        JZ      ??TempHumApp_ProcessEvent_0
//  106   {
//  107     MSGpkt = (afIncomingMSGPacket_t *)osal_msg_receive( TempHumApp_TaskID );
        ; Setup parameters for call to function osal_msg_receive
        SJMP    ??TempHumApp_ProcessEvent_1
//  108     while ( MSGpkt )
//  109     {
//  110       switch ( MSGpkt->hdr.event )
??TempHumApp_ProcessEvent_2:
        MOV     DPL,?V0 + 0
        MOV     DPH,?V0 + 1
        MOVX    A,@DPTR
        XRL     A,#0xd1
        JNZ     ??TempHumApp_ProcessEvent_3
//  111       {
//  112        
//  113           case ZDO_STATE_CHANGE:
//  114             TempHumApp_NwkState = (devStates_t)(MSGpkt->hdr.status);
        INC     DPTR
        MOVX    A,@DPTR
        MOV     DPTR,#TempHumApp_NwkState
        MOVX    @DPTR,A
//  115             if(TempHumApp_NwkState==DEV_END_DEVICE)
        XRL     A,#0x6
        JNZ     ??TempHumApp_ProcessEvent_3
//  116             {
//  117               P1_0=~P1_0;
        MOV     C,0x90.0
        SETB    B.0
        MOV     C,0x90.0
        JNB     B.0,??TempHumApp_ProcessEvent_4
        CPL     C
??TempHumApp_ProcessEvent_4:
        MOV     0x90.0,C
//  118               osal_set_event(TempHumApp_TaskID,SEND_DATA_EVENT);
        ; Setup parameters for call to function osal_set_event
        MOV     R2,#0x1
        MOV     R3,#0x0
        MOV     DPTR,#TempHumApp_TaskID
        MOVX    A,@DPTR
        MOV     R1,A
        LCALL   ??osal_set_event?relay
//  119             }
//  120             break;
//  121             
//  122           default:
//  123             break;
//  124       }
//  125       osal_msg_deallocate( (uint8 *)MSGpkt );
??TempHumApp_ProcessEvent_3:
        ; Setup parameters for call to function osal_msg_deallocate
        MOV     R2,?V0 + 0
        MOV     R3,?V0 + 1
        LCALL   ??osal_msg_deallocate?relay
//  126       MSGpkt = (afIncomingMSGPacket_t *)osal_msg_receive( TempHumApp_TaskID );
        ; Setup parameters for call to function osal_msg_receive
??TempHumApp_ProcessEvent_1:
        MOV     DPTR,#TempHumApp_TaskID
        MOVX    A,@DPTR
        MOV     R1,A
        LCALL   ??osal_msg_receive?relay
        MOV     ?V0 + 0,R2
        MOV     ?V0 + 1,R3
//  127     }
        MOV     A,?V0 + 0
        ORL     A,?V0 + 1
        JNZ     ??TempHumApp_ProcessEvent_2
//  128     // return unprocessed events
//  129     return (events ^ SYS_EVENT_MSG);
        MOV     A,R6
        MOV     R2,A
        MOV     A,R7
        XRL     A,#0x80
        SJMP    ??TempHumApp_ProcessEvent_5
//  130   }
//  131   if(events&SEND_DATA_EVENT)
??TempHumApp_ProcessEvent_0:
        MOV     A,R6
        MOV     C,0xE0 /* A   */.0
        JNC     ??TempHumApp_ProcessEvent_6
//  132   {
//  133     Read_DHT11();
        ; Setup parameters for call to function Read_DHT11
        LCALL   ??Read_DHT11?relay
//  134     TempHumApp_SendTheMessage();
        ; Setup parameters for call to function TempHumApp_SendTheMessage
        LCALL   ??TempHumApp_SendTheMessage?relay
//  135     osal_start_timerEx(TempHumApp_TaskID,SEND_DATA_EVENT,3000);
        ; Setup parameters for call to function osal_start_timerEx
        MOV     R4,#-0x48
        MOV     R5,#0xb
        MOV     R2,#0x1
        MOV     R3,#0x0
        MOV     DPTR,#TempHumApp_TaskID
        MOVX    A,@DPTR
        MOV     R1,A
        LCALL   ??osal_start_timerEx?relay
//  136     return(events^SEND_DATA_EVENT);
        MOV     A,R6
        XRL     A,#0x1
        MOV     R2,A
        MOV     A,R7
??TempHumApp_ProcessEvent_5:
        MOV     R3,A
        SJMP    ??TempHumApp_ProcessEvent_7
//  137   }
//  138   return 0;
??TempHumApp_ProcessEvent_6:
        MOV     R2,#0x0
        MOV     R3,#0x0
??TempHumApp_ProcessEvent_7:
        MOV     R7,#0x4
        LJMP    ?BANKED_LEAVE_XDATA
          CFI EndBlock cfiBlock2
        REQUIRE _A_P1
//  139 }
//  140 

        RSEG BANKED_CODE:CODE:NOROOT(0)
//  141 void TempHumApp_SendTheMessage(void)
TempHumApp_SendTheMessage:
          CFI Block cfiBlock3 Using cfiCommon0
          CFI Function TempHumApp_SendTheMessage
        CODE
//  142 { 
        FUNCALL TempHumApp_SendTheMessage, osal_strlen
        LOCFRAME ISTACK, 0, STACK
        LOCFRAME PSTACK, 0, STACK
        LOCFRAME XSTACK, 37, STACK
        LOCFRAME IOVERLAY, 0, STATIC
        LOCFRAME DOVERLAY, 0, STATIC
        ARGFRAME ISTACK, 0, STACK
        ARGFRAME PSTACK, 0, STACK
        ARGFRAME XSTACK, 37, STACK
        ARGFRAME IOVERLAY, 0, STATIC
        ARGFRAME DOVERLAY, 0, STATIC
        FUNCALL TempHumApp_SendTheMessage, AF_DataRequest
        LOCFRAME ISTACK, 0, STACK
        LOCFRAME PSTACK, 0, STACK
        LOCFRAME XSTACK, 41, STACK
        LOCFRAME IOVERLAY, 0, STATIC
        LOCFRAME DOVERLAY, 0, STATIC
        ARGFRAME ISTACK, 0, STACK
        ARGFRAME PSTACK, 0, STACK
        ARGFRAME XSTACK, 41, STACK
        ARGFRAME IOVERLAY, 0, STATIC
        ARGFRAME DOVERLAY, 0, STATIC
        MOV     A,#-0xa
        LCALL   ?BANKED_ENTER_XDATA
          CFI DPH0 load(1, XDATA, add(CFA_XSP16, literal(-1)))
          CFI DPL0 load(1, XDATA, add(CFA_XSP16, literal(-2)))
          CFI ?BRET_EXT load(1, XDATA, add(CFA_XSP16, literal(-3)))
          CFI ?RET_HIGH load(1, XDATA, add(CFA_XSP16, literal(-4)))
          CFI ?RET_LOW load(1, XDATA, add(CFA_XSP16, literal(-5)))
          CFI R7 load(1, XDATA, add(CFA_XSP16, literal(-6)))
          CFI V1 load(1, XDATA, add(CFA_XSP16, literal(-7)))
          CFI V0 load(1, XDATA, add(CFA_XSP16, literal(-8)))
          CFI VB load(1, XDATA, add(CFA_XSP16, literal(-9)))
          CFI R6 load(1, XDATA, add(CFA_XSP16, literal(-10)))
          CFI CFA_SP SP+0
          CFI CFA_XSP16 add(XSP16, 10)
        ; Saved register size: 10
        ; Auto size: 22
        MOV     A,#-0x16
        LCALL   ?ALLOC_XSTACK8
          CFI CFA_XSP16 add(XSP16, 32)
//  143 unsigned char theMessageData[10]="EndDevice";
        MOV     A,#0xc
        LCALL   ?XSTACK_DISP0_8
        MOV     R4,DPL
        MOV     R5,DPH
        MOV     DPH,#(`?<Constant "EndDevice">` >> 8) & 0xff
        MOV     DPL,#`?<Constant "EndDevice">` & 0xff
        MOV     A,#0xa
        LCALL   ?MOVE_LONG8_XDATA_XDATA
//  144 
//  145 afAddrType_t my_DstAddr;
//  146 
//  147 my_DstAddr.addrMode=(afAddrMode_t)Addr16Bit;
        MOV     A,#0x8
        LCALL   ?XSTACK_DISP0_8
        MOV     A,#0x2
        MOVX    @DPTR,A
//  148 my_DstAddr.endPoint=TempHumApp_ENDPOINT;
        MOV     A,#0x9
        LCALL   ?XSTACK_DISP0_8
        LCALL   ?Subroutine1 & 0xFFFF
//  149 my_DstAddr.addr.shortAddr=0x0000; 
//  150 
//  151 
//  152 theMessageData[0]=66;
??CrossCallReturnLabel_0:
        MOV     A,#0xc
        LCALL   ?XSTACK_DISP0_8
        MOV     A,#0x42
        MOVX    @DPTR,A
//  153 theMessageData[1]=88;
        MOV     A,#0xd
        LCALL   ?XSTACK_DISP0_8
        MOV     A,#0x58
        MOVX    @DPTR,A
          CFI EndBlock cfiBlock3
//  154 
//  155 AF_DataRequest(&my_DstAddr
//  156 ,&TempHumApp_epDesc
//  157 ,TempHumApp_CLUSTERID
//  158 ,osal_strlen("EndDevice")+1
//  159 ,theMessageData
//  160 ,&TempHumApp_TransID
//  161 ,AF_DISCV_ROUTE
//  162 ,AF_DEFAULT_RADIUS);
        ; Setup parameters for call to function AF_DataRequest
        REQUIRE ?Subroutine0
        ; // Fall through to label ?Subroutine0
//  163 }

        RSEG BANKED_CODE:CODE:NOROOT(0)
?Subroutine0:
          CFI Block cfiBlock4 Using cfiCommon0
          CFI NoFunction
          CFI CFA_SP SP+0
          CFI CFA_XSP16 add(XSP16, 32)
          CFI VB load(1, XDATA, add(CFA_XSP16, literal(-9)))
          CFI DPL0 load(1, XDATA, add(CFA_XSP16, literal(-2)))
          CFI DPH0 load(1, XDATA, add(CFA_XSP16, literal(-1)))
          CFI R6 load(1, XDATA, add(CFA_XSP16, literal(-10)))
          CFI R7 load(1, XDATA, add(CFA_XSP16, literal(-6)))
          CFI V0 load(1, XDATA, add(CFA_XSP16, literal(-8)))
          CFI V1 load(1, XDATA, add(CFA_XSP16, literal(-7)))
          CFI ?BRET_EXT load(1, XDATA, add(CFA_XSP16, literal(-3)))
          CFI ?RET_HIGH load(1, XDATA, add(CFA_XSP16, literal(-4)))
          CFI ?RET_LOW load(1, XDATA, add(CFA_XSP16, literal(-5)))
        MOV     ?V0 + 0,#0x1e
        MOV     R0,#?V0 + 0
        LCALL   ?PUSH_XSTACK_I_ONE
          CFI CFA_XSP16 add(XSP16, 33)
        MOV     ?V0 + 0,#TempHumApp_TransID & 0xff
        MOV     ?V0 + 1,#(TempHumApp_TransID >> 8) & 0xff
        MOV     R0,#?V0 + 0
        LCALL   ?PUSH_XSTACK_I_TWO
          CFI CFA_XSP16 add(XSP16, 35)
        MOV     A,#0xf
        LCALL   ?XSTACK_DISP0_8
        MOV     ?V0 + 0,DPL
        MOV     ?V0 + 1,DPH
        MOV     R0,#?V0 + 0
        LCALL   ?PUSH_XSTACK_I_TWO
          CFI CFA_XSP16 add(XSP16, 37)
        ; Setup parameters for call to function osal_strlen
        ; Setup parameters for call to function osal_strlen
        MOV     R2,#`?<Constant "EndDevice">_1` & 0xff
        MOV     R3,#(`?<Constant "EndDevice">_1` >> 8) & 0xff
        LCALL   ??osal_strlen?relay
        MOV     A,R2
        ADD     A,#0x1
        MOV     ?V0 + 0,A
        MOV     A,R3
        ADDC    A,#0x0
        MOV     ?V0 + 1,A
        MOV     R0,#?V0 + 0
        LCALL   ?PUSH_XSTACK_I_TWO
          CFI CFA_XSP16 add(XSP16, 39)
        MOV     ?V0 + 0,#0x1
        MOV     ?V0 + 1,#0x0
        MOV     R0,#?V0 + 0
        LCALL   ?PUSH_XSTACK_I_TWO
          CFI CFA_XSP16 add(XSP16, 41)
        MOV     R1,#0x20
        MOV     R4,#TempHumApp_epDesc & 0xff
        MOV     R5,#(TempHumApp_epDesc >> 8) & 0xff
        MOV     A,#0x9
        LCALL   ?XSTACK_DISP0_8
        MOV     R2,DPL
        MOV     R3,DPH
        LCALL   ??AF_DataRequest?relay
        MOV     A,#0x9
        LCALL   ?DEALLOC_XSTACK8
          CFI CFA_XSP16 add(XSP16, 32)
        MOV     A,#0x16
        LCALL   ?DEALLOC_XSTACK8
          CFI CFA_XSP16 add(XSP16, 10)
        MOV     R7,#0x2
        LJMP    ?BANKED_LEAVE_XDATA
          CFI EndBlock cfiBlock4
//  164 /*HAL_ISR_FUNCTION( halKeyPort0Isr, P0INT_VECTOR )
//  165 {
//  166   
//  167   if (HAL_KEY_SW_7_PXIFG & HAL_KEY_SW_7_BIT)
//  168   {
//  169   }
//  170   //HAL_KEY_SW_7_PXIFG = 0;
//  171   //HAL_KEY_CPU_PORT_0_IF = 0;
//  172 }*/
//  173 

        RSEG BANKED_CODE:CODE:NOROOT(0)
//  174 void TempHumApp_SerialSend(unsigned char* ser_str)
TempHumApp_SerialSend:
          CFI Block cfiBlock5 Using cfiCommon0
          CFI Function TempHumApp_SerialSend
        CODE
//  175 {
        FUNCALL TempHumApp_SerialSend, memcpy
        LOCFRAME ISTACK, 0, STACK
        LOCFRAME PSTACK, 0, STACK
        LOCFRAME XSTACK, 34, STACK
        LOCFRAME IOVERLAY, 0, STATIC
        LOCFRAME DOVERLAY, 0, STATIC
        ARGFRAME ISTACK, 0, STACK
        ARGFRAME PSTACK, 0, STACK
        ARGFRAME XSTACK, 34, STACK
        ARGFRAME IOVERLAY, 0, STATIC
        ARGFRAME DOVERLAY, 0, STATIC
        FUNCALL TempHumApp_SerialSend, osal_strlen
        LOCFRAME ISTACK, 0, STACK
        LOCFRAME PSTACK, 0, STACK
        LOCFRAME XSTACK, 37, STACK
        LOCFRAME IOVERLAY, 0, STATIC
        LOCFRAME DOVERLAY, 0, STATIC
        ARGFRAME ISTACK, 0, STACK
        ARGFRAME PSTACK, 0, STACK
        ARGFRAME XSTACK, 37, STACK
        ARGFRAME IOVERLAY, 0, STATIC
        ARGFRAME DOVERLAY, 0, STATIC
        FUNCALL TempHumApp_SerialSend, AF_DataRequest
        LOCFRAME ISTACK, 0, STACK
        LOCFRAME PSTACK, 0, STACK
        LOCFRAME XSTACK, 41, STACK
        LOCFRAME IOVERLAY, 0, STATIC
        LOCFRAME DOVERLAY, 0, STATIC
        ARGFRAME ISTACK, 0, STACK
        ARGFRAME PSTACK, 0, STACK
        ARGFRAME XSTACK, 41, STACK
        ARGFRAME IOVERLAY, 0, STATIC
        ARGFRAME DOVERLAY, 0, STATIC
        MOV     A,#-0xa
        LCALL   ?BANKED_ENTER_XDATA
          CFI DPH0 load(1, XDATA, add(CFA_XSP16, literal(-1)))
          CFI DPL0 load(1, XDATA, add(CFA_XSP16, literal(-2)))
          CFI ?BRET_EXT load(1, XDATA, add(CFA_XSP16, literal(-3)))
          CFI ?RET_HIGH load(1, XDATA, add(CFA_XSP16, literal(-4)))
          CFI ?RET_LOW load(1, XDATA, add(CFA_XSP16, literal(-5)))
          CFI R7 load(1, XDATA, add(CFA_XSP16, literal(-6)))
          CFI V1 load(1, XDATA, add(CFA_XSP16, literal(-7)))
          CFI V0 load(1, XDATA, add(CFA_XSP16, literal(-8)))
          CFI VB load(1, XDATA, add(CFA_XSP16, literal(-9)))
          CFI R6 load(1, XDATA, add(CFA_XSP16, literal(-10)))
          CFI CFA_SP SP+0
          CFI CFA_XSP16 add(XSP16, 10)
        ; Saved register size: 10
        ; Auto size: 22
        MOV     A,#-0x16
        LCALL   ?ALLOC_XSTACK8
          CFI CFA_XSP16 add(XSP16, 32)
//  176   afAddrType_t my_DstAddr;
//  177   unsigned char theMessageData[10]="EndDevice";
        MOV     A,#0xc
        LCALL   ?XSTACK_DISP0_8
        MOV     R4,DPL
        MOV     R5,DPH
        MOV     DPH,#(`?<Constant "EndDevice">_2` >> 8) & 0xff
        MOV     DPL,#`?<Constant "EndDevice">_2` & 0xff
        MOV     A,#0xa
        LCALL   ?MOVE_LONG8_XDATA_XDATA
//  178   
//  179   my_DstAddr.addrMode=(afAddrMode_t)Addr16Bit;
        MOV     A,#0x8
        LCALL   ?XSTACK_DISP0_8
        MOV     A,#0x2
        MOVX    @DPTR,A
//  180   my_DstAddr.endPoint=TempHumApp_ENDPOINT;
        MOV     A,#0x9
        LCALL   ?XSTACK_DISP0_8
        LCALL   ?Subroutine1 & 0xFFFF
//  181   my_DstAddr.addr.shortAddr=0x0000; 
//  182 
//  183   memcpy(theMessageData,ser_str,10);
??CrossCallReturnLabel_1:
        ; Setup parameters for call to function memcpy
        MOV     ?V0 + 0,#0xa
        MOV     ?V0 + 1,A
        MOV     R0,#?V0 + 0
        LCALL   ?PUSH_XSTACK_I_TWO
          CFI CFA_XSP16 add(XSP16, 34)
        MOV     A,R2
        MOV     R4,A
        MOV     A,R3
        MOV     R5,A
        MOV     A,#0xe
        LCALL   ?XSTACK_DISP0_8
        MOV     R2,DPL
        MOV     R3,DPH
        LCALL   ??memcpy?relay
        MOV     A,#0x2
        LCALL   ?DEALLOC_XSTACK8
          CFI CFA_XSP16 add(XSP16, 32)
//  184   
//  185 
//  186   AF_DataRequest(&my_DstAddr
//  187     ,&TempHumApp_epDesc
//  188     ,TempHumApp_CLUSTERID
//  189     ,osal_strlen("EndDevice")+1
//  190     ,theMessageData
//  191     ,&TempHumApp_TransID
//  192     ,AF_DISCV_ROUTE
//  193     ,AF_DEFAULT_RADIUS);
        ; Setup parameters for call to function AF_DataRequest
        LJMP    ?Subroutine0 & 0xFFFF
          CFI EndBlock cfiBlock5
//  194 }

        RSEG BANKED_CODE:CODE:NOROOT(0)
?Subroutine1:
          CFI Block cfiCond6 Using cfiCommon0
          CFI Function TempHumApp_SendTheMessage
          CFI Conditional ??CrossCallReturnLabel_0
          CFI R6 load(1, XDATA, add(CFA_XSP16, literal(-10)))
          CFI VB load(1, XDATA, add(CFA_XSP16, literal(-9)))
          CFI V0 load(1, XDATA, add(CFA_XSP16, literal(-8)))
          CFI V1 load(1, XDATA, add(CFA_XSP16, literal(-7)))
          CFI R7 load(1, XDATA, add(CFA_XSP16, literal(-6)))
          CFI ?RET_LOW load(1, XDATA, add(CFA_XSP16, literal(-5)))
          CFI ?RET_HIGH load(1, XDATA, add(CFA_XSP16, literal(-4)))
          CFI ?BRET_EXT load(1, XDATA, add(CFA_XSP16, literal(-3)))
          CFI DPL0 load(1, XDATA, add(CFA_XSP16, literal(-2)))
          CFI DPH0 load(1, XDATA, add(CFA_XSP16, literal(-1)))
          CFI CFA_SP SP+0
          CFI CFA_XSP16 add(XSP16, 32)
          CFI Block cfiCond7 Using cfiCommon0
          CFI (cfiCond7) Function TempHumApp_SerialSend
          CFI (cfiCond7) Conditional ??CrossCallReturnLabel_1
          CFI (cfiCond7) R6 load(1, XDATA, add(CFA_XSP16, literal(-10)))
          CFI (cfiCond7) VB load(1, XDATA, add(CFA_XSP16, literal(-9)))
          CFI (cfiCond7) V0 load(1, XDATA, add(CFA_XSP16, literal(-8)))
          CFI (cfiCond7) V1 load(1, XDATA, add(CFA_XSP16, literal(-7)))
          CFI (cfiCond7) R7 load(1, XDATA, add(CFA_XSP16, literal(-6)))
          CFI (cfiCond7) ?RET_LOW load(1, XDATA, add(CFA_XSP16, literal(-5)))
          CFI (cfiCond7) ?RET_HIGH load(1, XDATA, add(CFA_XSP16, literal(-4)))
          CFI (cfiCond7) ?BRET_EXT load(1, XDATA, add(CFA_XSP16, literal(-3)))
          CFI (cfiCond7) DPL0 load(1, XDATA, add(CFA_XSP16, literal(-2)))
          CFI (cfiCond7) DPH0 load(1, XDATA, add(CFA_XSP16, literal(-1)))
          CFI (cfiCond7) CFA_SP SP+0
          CFI (cfiCond7) CFA_XSP16 add(XSP16, 32)
          CFI Block cfiPicker8 Using cfiCommon1
          CFI (cfiPicker8) NoFunction
          CFI (cfiPicker8) Picker
        MOV     A,#0xa
        MOVX    @DPTR,A
        MOV     DPL,?XSP + 0
        MOV     DPH,?XSP + 1
        CLR     A
        MOVX    @DPTR,A
        INC     DPTR
        MOVX    @DPTR,A
        RET
          CFI EndBlock cfiCond6
          CFI EndBlock cfiCond7
          CFI EndBlock cfiPicker8

        RSEG BANK_RELAYS:CODE:REORDER:NOROOT(0)
??TempHumApp_Init?relay:
        CODE
        LCALL   ?BDISPATCH
        DATA24
        DC24    TempHumApp_Init

        RSEG BANK_RELAYS:CODE:REORDER:NOROOT(0)
??rxCB?relay:
        CODE
        LCALL   ?BDISPATCH
        DATA24
        DC24    rxCB

        RSEG BANK_RELAYS:CODE:REORDER:NOROOT(0)
??TempHumApp_ProcessEvent?relay:
        CODE
        LCALL   ?BDISPATCH
        DATA24
        DC24    TempHumApp_ProcessEvent

        RSEG BANK_RELAYS:CODE:REORDER:NOROOT(0)
??TempHumApp_SendTheMessage?relay:
        CODE
        LCALL   ?BDISPATCH
        DATA24
        DC24    TempHumApp_SendTheMessage

        RSEG BANK_RELAYS:CODE:REORDER:NOROOT(0)
??TempHumApp_SerialSend?relay:
        CODE
        LCALL   ?BDISPATCH
        DATA24
        DC24    TempHumApp_SerialSend

        RSEG XDATA_ROM_C:CONST:REORDER:NOROOT(0)
        DATA8
`?<Constant "EndDevice">`:
        DB "EndDevice"

        RSEG XDATA_ROM_C:CONST:REORDER:NOROOT(0)
        DATA8
`?<Constant "EndDevice">_1`:
        DB "EndDevice"

        RSEG XDATA_ROM_C:CONST:REORDER:NOROOT(0)
        DATA8
`?<Constant "EndDevice">_2`:
        DB "EndDevice"

        END
// 
// 574 bytes in segment BANKED_CODE
//  30 bytes in segment BANK_RELAYS
//   1 byte  in segment SFR_AN
//  44 bytes in segment XDATA_ROM_C
//  10 bytes in segment XDATA_Z
// 
// 604 bytes of CODE  memory
//  44 bytes of CONST memory
//   0 bytes of DATA  memory (+ 1 byte shared)
//  10 bytes of XDATA memory
//
//Errors: none
//Warnings: none
