###############################################################################
#                                                                             #
# IAR C/C++ Compiler V8.10.3.10338/W32 for 8051         15/Feb/2014  14:28:32 #
# Copyright 2004-2011 IAR Systems AB.                                         #
#                                                                             #
#    Core               =  plain                                              #
#    Code model         =  banked                                             #
#    Data model         =  large                                              #
#    Calling convention =  xdata reentrant                                    #
#    Constant location  =  data_rom                                           #
#    Dptr setup         =  1,16                                               #
#    Source file        =  C:\Users\OurEDA\Documents\Tencent                  #
#                          Files\1534143789\FileRecv\ZStack-CC2530-2.5.1a\ZSt #
#                          ack-CC2530-2.5.1a\Projects\zstack\Samples\03GAS_EN #
#                          DDB\Source\GAS.c                                   #
#    Command line       =  -f "C:\Users\OurEDA\Documents\Tencent              #
#                          Files\1534143789\FileRecv\ZStack-CC2530-2.5.1a\ZSt #
#                          ack-CC2530-2.5.1a\Projects\zstack\Samples\03GAS_EN #
#                          DDB\CC2530DB\..\..\..\Tools\CC2530DB\f8wEndev.cfg" #
#                           (-DCPU32MHZ -DROOT=__near_func                    #
#                          -DMAC_CFG_TX_DATA_MAX=3 -DMAC_CFG_TX_MAX=6         #
#                          -DMAC_CFG_RX_MAX=3) -f "C:\Users\OurEDA\Documents\ #
#                          Tencent Files\1534143789\FileRecv\ZStack-CC2530-2. #
#                          5.1a\ZStack-CC2530-2.5.1a\Projects\zstack\Samples\ #
#                          03GAS_ENDDB\CC2530DB\..\..\..\Tools\CC2530DB\f8wCo #
#                          nfig.cfg" (-DZIGBEEPRO -DSECURE=0                  #
#                          -DZG_SECURE_DYNAMIC=0 -DREFLECTOR                  #
#                          -DDEFAULT_CHANLIST=0x00000800                      #
#                          -DZDAPP_CONFIG_PAN_ID=0xFFFF                       #
#                          -DNWK_START_DELAY=100 -DEXTENDED_JOINING_RANDOM_MA #
#                          SK=0x007F -DBEACON_REQUEST_DELAY=100               #
#                          -DBEACON_REQ_DELAY_MASK=0x00FF                     #
#                          -DLINK_STATUS_JITTER_MASK=0x007F                   #
#                          -DROUTE_EXPIRY_TIME=30 -DAPSC_ACK_WAIT_DURATION_PO #
#                          LLED=3000 -DNWK_INDIRECT_MSG_TIMEOUT=7             #
#                          -DMAX_RREQ_ENTRIES=8 -DAPSC_MAX_FRAME_RETRIES=3    #
#                          -DNWK_MAX_DATA_RETRIES=2                           #
#                          -DMAX_POLL_FAILURE_RETRIES=2 -DMAX_BCAST=9         #
#                          -DAPS_MAX_GROUPS=16 -DMAX_RTG_ENTRIES=40           #
#                          -DNWK_MAX_BINDING_ENTRIES=4                        #
#                          -DMAX_BINDING_CLUSTER_IDS=4 "-DDEFAULT_KEY={0x01,  #
#                          0x03, 0x05, 0x07, 0x09, 0x0B, 0x0D, 0x0F, 0x00,    #
#                          0x02, 0x04, 0x06, 0x08, 0x0A, 0x0C, 0x0D}"         #
#                          -DMAC_MAX_FRAME_SIZE=116                           #
#                          -DZDNWKMGR_MIN_TRANSMISSIONS=20 "-DCONST=const     #
#                          __code" -DGENERIC=__generic                        #
#                          -DRFD_RCVC_ALWAYS_ON=FALSE -DPOLL_RATE=1000        #
#                          -DQUEUED_POLL_RATE=100 -DRESPONSE_POLL_RATE=100)   #
#                          -DREJOIN_POLL_RATE=440 "C:\Users\OurEDA\Documents\ #
#                          Tencent Files\1534143789\FileRecv\ZStack-CC2530-2. #
#                          5.1a\ZStack-CC2530-2.5.1a\Projects\zstack\Samples\ #
#                          03GAS_ENDDB\Source\GAS.c" -D NWK_AUTO_POLL -D      #
#                          ZTOOL_P1 -D MT_TASK -D MT_SYS_FUNC -D MT_ZDO_FUNC  #
#                          -D LCD_SUPPORTED=DEBUG -D xPOWER_SAVING -lC        #
#                          "C:\Users\OurEDA\Documents\Tencent                 #
#                          Files\1534143789\FileRecv\ZStack-CC2530-2.5.1a\ZSt #
#                          ack-CC2530-2.5.1a\Projects\zstack\Samples\03GAS_EN #
#                          DDB\CC2530DB\EndDeviceEB\List\" -lA                #
#                          "C:\Users\OurEDA\Documents\Tencent                 #
#                          Files\1534143789\FileRecv\ZStack-CC2530-2.5.1a\ZSt #
#                          ack-CC2530-2.5.1a\Projects\zstack\Samples\03GAS_EN #
#                          DDB\CC2530DB\EndDeviceEB\List\" --diag_suppress    #
#                          Pe001,Pa010 -o "C:\Users\OurEDA\Documents\Tencent  #
#                          Files\1534143789\FileRecv\ZStack-CC2530-2.5.1a\ZSt #
#                          ack-CC2530-2.5.1a\Projects\zstack\Samples\03GAS_EN #
#                          DDB\CC2530DB\EndDeviceEB\Obj\" -e                  #
#                          --no_code_motion --debug --core=plain --dptr=16,1  #
#                          --data_model=large --code_model=banked             #
#                          --calling_convention=xdata_reentrant               #
#                          --place_constants=data_rom --nr_virtual_regs 16    #
#                          -I "C:\Users\OurEDA\Documents\Tencent              #
#                          Files\1534143789\FileRecv\ZStack-CC2530-2.5.1a\ZSt #
#                          ack-CC2530-2.5.1a\Projects\zstack\Samples\03GAS_EN #
#                          DDB\CC2530DB\" -I "C:\Users\OurEDA\Documents\Tence #
#                          nt Files\1534143789\FileRecv\ZStack-CC2530-2.5.1a\ #
#                          ZStack-CC2530-2.5.1a\Projects\zstack\Samples\03GAS #
#                          _ENDDB\CC2530DB\..\Source\" -I                     #
#                          "C:\Users\OurEDA\Documents\Tencent                 #
#                          Files\1534143789\FileRecv\ZStack-CC2530-2.5.1a\ZSt #
#                          ack-CC2530-2.5.1a\Projects\zstack\Samples\03GAS_EN #
#                          DDB\CC2530DB\..\..\..\ZMain\TI2530DB\" -I          #
#                          "C:\Users\OurEDA\Documents\Tencent                 #
#                          Files\1534143789\FileRecv\ZStack-CC2530-2.5.1a\ZSt #
#                          ack-CC2530-2.5.1a\Projects\zstack\Samples\03GAS_EN #
#                          DDB\CC2530DB\..\..\..\..\..\Components\hal\include #
#                          \" -I "C:\Users\OurEDA\Documents\Tencent           #
#                          Files\1534143789\FileRecv\ZStack-CC2530-2.5.1a\ZSt #
#                          ack-CC2530-2.5.1a\Projects\zstack\Samples\03GAS_EN #
#                          DDB\CC2530DB\..\..\..\..\..\Components\hal\target\ #
#                          CC2530EB\" -I "C:\Users\OurEDA\Documents\Tencent   #
#                          Files\1534143789\FileRecv\ZStack-CC2530-2.5.1a\ZSt #
#                          ack-CC2530-2.5.1a\Projects\zstack\Samples\03GAS_EN #
#                          DDB\CC2530DB\..\..\..\..\..\Components\mac\include #
#                          \" -I "C:\Users\OurEDA\Documents\Tencent           #
#                          Files\1534143789\FileRecv\ZStack-CC2530-2.5.1a\ZSt #
#                          ack-CC2530-2.5.1a\Projects\zstack\Samples\03GAS_EN #
#                          DDB\CC2530DB\..\..\..\..\..\Components\mac\high_le #
#                          vel\" -I "C:\Users\OurEDA\Documents\Tencent        #
#                          Files\1534143789\FileRecv\ZStack-CC2530-2.5.1a\ZSt #
#                          ack-CC2530-2.5.1a\Projects\zstack\Samples\03GAS_EN #
#                          DDB\CC2530DB\..\..\..\..\..\Components\mac\low_lev #
#                          el\srf04\" -I "C:\Users\OurEDA\Documents\Tencent   #
#                          Files\1534143789\FileRecv\ZStack-CC2530-2.5.1a\ZSt #
#                          ack-CC2530-2.5.1a\Projects\zstack\Samples\03GAS_EN #
#                          DDB\CC2530DB\..\..\..\..\..\Components\mac\low_lev #
#                          el\srf04\single_chip\" -I                          #
#                          "C:\Users\OurEDA\Documents\Tencent                 #
#                          Files\1534143789\FileRecv\ZStack-CC2530-2.5.1a\ZSt #
#                          ack-CC2530-2.5.1a\Projects\zstack\Samples\03GAS_EN #
#                          DDB\CC2530DB\..\..\..\..\..\Components\mt\" -I     #
#                          "C:\Users\OurEDA\Documents\Tencent                 #
#                          Files\1534143789\FileRecv\ZStack-CC2530-2.5.1a\ZSt #
#                          ack-CC2530-2.5.1a\Projects\zstack\Samples\03GAS_EN #
#                          DDB\CC2530DB\..\..\..\..\..\Components\osal\includ #
#                          e\" -I "C:\Users\OurEDA\Documents\Tencent          #
#                          Files\1534143789\FileRecv\ZStack-CC2530-2.5.1a\ZSt #
#                          ack-CC2530-2.5.1a\Projects\zstack\Samples\03GAS_EN #
#                          DDB\CC2530DB\..\..\..\..\..\Components\services\sa #
#                          ddr\" -I "C:\Users\OurEDA\Documents\Tencent        #
#                          Files\1534143789\FileRecv\ZStack-CC2530-2.5.1a\ZSt #
#                          ack-CC2530-2.5.1a\Projects\zstack\Samples\03GAS_EN #
#                          DDB\CC2530DB\..\..\..\..\..\Components\services\sd #
#                          ata\" -I "C:\Users\OurEDA\Documents\Tencent        #
#                          Files\1534143789\FileRecv\ZStack-CC2530-2.5.1a\ZSt #
#                          ack-CC2530-2.5.1a\Projects\zstack\Samples\03GAS_EN #
#                          DDB\CC2530DB\..\..\..\..\..\Components\stack\af\"  #
#                          -I "C:\Users\OurEDA\Documents\Tencent              #
#                          Files\1534143789\FileRecv\ZStack-CC2530-2.5.1a\ZSt #
#                          ack-CC2530-2.5.1a\Projects\zstack\Samples\03GAS_EN #
#                          DDB\CC2530DB\..\..\..\..\..\Components\stack\nwk\" #
#                           -I "C:\Users\OurEDA\Documents\Tencent             #
#                          Files\1534143789\FileRecv\ZStack-CC2530-2.5.1a\ZSt #
#                          ack-CC2530-2.5.1a\Projects\zstack\Samples\03GAS_EN #
#                          DDB\CC2530DB\..\..\..\..\..\Components\stack\sapi\ #
#                          " -I "C:\Users\OurEDA\Documents\Tencent            #
#                          Files\1534143789\FileRecv\ZStack-CC2530-2.5.1a\ZSt #
#                          ack-CC2530-2.5.1a\Projects\zstack\Samples\03GAS_EN #
#                          DDB\CC2530DB\..\..\..\..\..\Components\stack\sec\" #
#                           -I "C:\Users\OurEDA\Documents\Tencent             #
#                          Files\1534143789\FileRecv\ZStack-CC2530-2.5.1a\ZSt #
#                          ack-CC2530-2.5.1a\Projects\zstack\Samples\03GAS_EN #
#                          DDB\CC2530DB\..\..\..\..\..\Components\stack\sys\" #
#                           -I "C:\Users\OurEDA\Documents\Tencent             #
#                          Files\1534143789\FileRecv\ZStack-CC2530-2.5.1a\ZSt #
#                          ack-CC2530-2.5.1a\Projects\zstack\Samples\03GAS_EN #
#                          DDB\CC2530DB\..\..\..\..\..\Components\stack\zdo\" #
#                           -I "C:\Users\OurEDA\Documents\Tencent             #
#                          Files\1534143789\FileRecv\ZStack-CC2530-2.5.1a\ZSt #
#                          ack-CC2530-2.5.1a\Projects\zstack\Samples\03GAS_EN #
#                          DDB\CC2530DB\..\..\..\..\..\Components\zmac\" -I   #
#                          "C:\Users\OurEDA\Documents\Tencent                 #
#                          Files\1534143789\FileRecv\ZStack-CC2530-2.5.1a\ZSt #
#                          ack-CC2530-2.5.1a\Projects\zstack\Samples\03GAS_EN #
#                          DDB\CC2530DB\..\..\..\..\..\Components\zmac\f8w\"  #
#                          -Ohz                                               #
#    List file          =  C:\Users\OurEDA\Documents\Tencent                  #
#                          Files\1534143789\FileRecv\ZStack-CC2530-2.5.1a\ZSt #
#                          ack-CC2530-2.5.1a\Projects\zstack\Samples\03GAS_EN #
#                          DDB\CC2530DB\EndDeviceEB\List\GAS.lst              #
#    Object file        =  C:\Users\OurEDA\Documents\Tencent                  #
#                          Files\1534143789\FileRecv\ZStack-CC2530-2.5.1a\ZSt #
#                          ack-CC2530-2.5.1a\Projects\zstack\Samples\03GAS_EN #
#                          DDB\CC2530DB\EndDeviceEB\Obj\GAS.r51               #
#                                                                             #
#                                                                             #
###############################################################################

C:\Users\OurEDA\Documents\Tencent Files\1534143789\FileRecv\ZStack-CC2530-2.5.1a\ZStack-CC2530-2.5.1a\Projects\zstack\Samples\03GAS_ENDDB\Source\GAS.c
      1          /******************************************************************************
      2            Filename:       GAS.c
      3            Revised:        $Date: 2012-03-07 01:04:58 -0800 (Wed, 07 Mar 2012) $
      4            Revision:       $Revision: 29656 $
      5          
      6            Description:    Generic Application (no Profile).
      7          
      8          
      9            Copyright 2004-2012 Texas Instruments Incorporated. All rights reserved.
     10          
     11            IMPORTANT: Your use of this Software is limited to those specific rights
     12            granted under the terms of a software license agreement between the user
     13            who downloaded the software, his/her employer (which must be your employer)
     14            and Texas Instruments Incorporated (the "License"). You may not use this
     15            Software unless you agree to abide by the terms of the License. The License
     16            limits your use, and you acknowledge, that the Software may not be modified,
     17            copied or distributed unless embedded on a Texas Instruments microcontroller
     18            or used solely and exclusively in conjunction with a Texas Instruments radio
     19            frequency transceiver, which is integrated into your product. Other than for
     20            the foregoing purpose, you may not use, reproduce, copy, prepare derivative
     21            works of, modify, distribute, perform, display or sell this Software and/or
     22            its documentation for any purpose.
     23          
     24            YOU FURTHER ACKNOWLEDGE AND AGREE THAT THE SOFTWARE AND DOCUMENTATION ARE
     25            PROVIDED “AS IS?WITHOUT WARRANTY OF ANY KIND, EITHER EXPRESS OR IMPLIED,
     26            INCLUDING WITHOUT LIMITATION, ANY WARRANTY OF MERCHANTABILITY, TITLE,
     27            NON-INFRINGEMENT AND FITNESS FOR A PARTICULAR PURPOSE. IN NO EVENT SHALL
     28            TEXAS INSTRUMENTS OR ITS LICENSORS BE LIABLE OR OBLIGATED UNDER CONTRACT,
     29            NEGLIGENCE, STRICT LIABILITY, CONTRIBUTION, BREACH OF WARRANTY, OR OTHER
     30            LEGAL EQUITABLE THEORY ANY DIRECT OR INDIRECT DAMAGES OR EXPENSES
     31            INCLUDING BUT NOT LIMITED TO ANY INCIDENTAL, SPECIAL, INDIRECT, PUNITIVE
     32            OR CONSEQUENTIAL DAMAGES, LOST PROFITS OR LOST DATA, COST OF PROCUREMENT
     33            OF SUBSTITUTE GOODS, TECHNOLOGY, SERVICES, OR ANY CLAIMS BY THIRD PARTIES
     34            (INCLUDING BUT NOT LIMITED TO ANY DEFENSE THEREOF), OR OTHER SIMILAR COSTS.
     35          
     36            Should you have any questions regarding your right to use this Software,
     37            contact Texas Instruments Incorporated at www.TI.com.
     38          ******************************************************************************/
     39          
     40          /*********************************************************************
     41            This application isn't intended to do anything useful, it is
     42            intended to be a simple example of an application's structure.
     43          
     44            This application sends "Hello World" to another "Generic"
     45            application every 5 seconds.  The application will also
     46            receives "Hello World" packets.
     47          
     48            The "Hello World" messages are sent/received as MSG type message.
     49          
     50            This applications doesn't have a profile, so it handles everything
     51            directly - itself.
     52          
     53            Key control:
     54              SW1:
     55              SW2:  initiates end device binding
     56              SW3:
     57              SW4:  initiates a match description request
     58          *********************************************************************/
     59          
     60          /*********************************************************************
     61           * INCLUDES
     62           */
     63          #include "OSAL.h"
     64          #include "AF.h"
     65          #include "ZDApp.h"
     66          #include "ZDObject.h"
     67          #include "ZDProfile.h"
     68          
     69          #include "GAS.h"
     70          #include "DebugTrace.h"
     71          
     72          #if !defined( WIN32 )
     73            #include "OnBoard.h"

   \                                 In  segment SFR_AN, at 0x90
   \   union <unnamed> volatile __sfr _A_P1
   \                     _A_P1:
   \   000000                DS 1

   \                                 In  segment SFR_AN, at 0xf4
   \   unsigned char volatile __sfr P1SEL
   \                     P1SEL:
   \   000000                DS 1

   \                                 In  segment SFR_AN, at 0xfe
   \   unsigned char volatile __sfr P1DIR
   \                     P1DIR:
   \   000000                DS 1
     74          #endif
     75          
     76          /* HAL */
     77          #include "hal_lcd.h"
     78          #include "hal_led.h"
     79          #include "hal_key.h"
     80          #include "hal_uart.h"
     81          
     82          /* RTOS */
     83          #if defined( IAR_ARMCM3_LM )
     84          #include "RTOS_App.h"
     85          #endif  
     86          
     87          /*********************************************************************
     88           * MACROS
     89           */
     90          
     91          /*********************************************************************
     92           * CONSTANTS
     93           */
     94          
     95          /*********************************************************************
     96           * TYPEDEFS
     97           */
     98          
     99          /*********************************************************************
    100           * GLOBAL VARIABLES
    101           */
    102          // This list should be filled with Application specific Cluster IDs.

   \                                 In  segment XDATA_ROM_C, align 1
    103          const cId_t GAS_ClusterList[GAS_MAX_CLUSTERS] =
   \                     GAS_ClusterList:
   \   000000   0700         DW 7
    104          {
    105            GAS_CLUSTERID
    106          };
    107          

   \                                 In  segment XDATA_ROM_C, align 1
    108          const SimpleDescriptionFormat_t GAS_SimpleDesc =
   \                     GAS_SimpleDesc:
   \   000000   0A           DB 10
   \   000001   040F         DW 3844
   \   000003   0100         DW 1
   \   000005   00           DB 0
   \   000006   01           DB 1
   \   000007   ....         DW GAS_ClusterList
   \   000009   01           DB 1
   \   00000A   ....         DW GAS_ClusterList
    109          {
    110            GAS_ENDPOINT,              //  int Endpoint;
    111            GAS_PROFID,                //  uint16 AppProfId[2];
    112            GAS_DEVICEID,              //  uint16 AppDeviceId[2];
    113            GAS_DEVICE_VERSION,        //  int   AppDevVer:4;
    114            GAS_FLAGS,                 //  int   AppFlags:4;
    115            GAS_MAX_CLUSTERS,          //  byte  AppNumInClusters;
    116            (cId_t *)GAS_ClusterList,  //  byte *pAppInClusterList;
    117            GAS_MAX_CLUSTERS,          //  byte  AppNumInClusters;
    118            (cId_t *)GAS_ClusterList   //  byte *pAppInClusterList;
    119          };
    120          
    121          // This is the Endpoint/Interface description.  It is defined here, but
    122          // filled-in in GAS_Init().  Another way to go would be to fill
    123          // in the structure here and make it a "const" (in code space).  The
    124          // way it's defined in this sample app it is define in RAM.

   \                                 In  segment XDATA_Z, align 1, keep-with-next
    125          endPointDesc_t GAS_epDesc;
   \                     GAS_epDesc:
   \   000000                DS 6
   \   000006                REQUIRE __INIT_XDATA_Z
    126          
    127          /*********************************************************************
    128           * EXTERNAL VARIABLES
    129           */
    130          
    131          /*********************************************************************
    132           * EXTERNAL FUNCTIONS
    133           */
    134          
    135          /*********************************************************************
    136           * LOCAL VARIABLES
    137           */

   \                                 In  segment XDATA_Z, align 1, keep-with-next
    138          byte GAS_TaskID;   // Task ID for internal task/event processing
   \                     GAS_TaskID:
   \   000000                DS 1
   \   000001                REQUIRE __INIT_XDATA_Z
    139                                    // This variable will be received when
    140                                    // GAS_Init() is called.

   \                                 In  segment XDATA_Z, align 1, keep-with-next
    141          devStates_t GAS_NwkState;
   \                     GAS_NwkState:
   \   000000                DS 1
   \   000001                REQUIRE __INIT_XDATA_Z
    142          
    143          

   \                                 In  segment XDATA_Z, align 1, keep-with-next
    144          byte GAS_TransID;  // This is the unique message ID (counter)
   \                     GAS_TransID:
   \   000000                DS 1
   \   000001                REQUIRE __INIT_XDATA_Z
    145          

   \                                 In  segment XDATA_Z, align 1, keep-with-next
    146          afAddrType_t GAS_DstAddr;
   \                     GAS_DstAddr:
   \   000000                DS 12
   \   00000C                REQUIRE __INIT_XDATA_Z
    147          
    148          /*********************************************************************
    149           * LOCAL FUNCTIONS
    150           */
    151          static void GAS_ProcessZDOMsgs( zdoIncomingMsg_t *inMsg );
    152          static void GAS_HandleKeys( byte shift, byte keys );
    153          static void GAS_MessageMSGCB( afIncomingMSGPacket_t *pckt );
    154          static void GAS_SendTheMessage( void );
    155          
    156          #if defined( IAR_ARMCM3_LM )
    157          static void GAS_ProcessRtosMessage( void );
    158          #endif
    159          
    160          /*********************************************************************
    161           * NETWORK LAYER CALLBACKS
    162           */
    163          
    164          /*********************************************************************
    165           * PUBLIC FUNCTIONS
    166           */
    167          
    168          /*********************************************************************
    169           * @fn      GAS_Init
    170           *
    171           * @brief   Initialization function for the Generic App Task.
    172           *          This is called during initialization and should contain
    173           *          any application specific initialization (ie. hardware
    174           *          initialization/setup, table initialization, power up
    175           *          notificaiton ... ).
    176           *
    177           * @param   task_id - the ID assigned by OSAL.  This ID should be
    178           *                    used to send messages and set timers.
    179           *
    180           * @return  none
    181           */

   \                                 In  segment BANKED_CODE, align 1, keep-with-next
    182          void Scan()
   \                     Scan:
    183          {
   \   000000                ; Saved register size: 0
   \   000000                ; Auto size: 0
    184            P1SEL &= ~0x08;
   \   000000   53F4F7       ANL     0xf4,#0xf7
    185            P1DIR &= ~0x08;
   \   000003   53FEF7       ANL     0xfe,#0xf7
    186          }
   \   000006   02....       LJMP    ?BRET
   \   000009                REQUIRE P1SEL
   \   000009                REQUIRE P1DIR

   \                                 In  segment BANKED_CODE, align 1, keep-with-next
    187          void GAS_Init( uint8 task_id )
   \                     GAS_Init:
    188          {
   \   000000   74F7         MOV     A,#-0x9
   \   000002   12....       LCALL   ?BANKED_ENTER_XDATA
   \   000005                ; Saved register size: 9
   \   000005                ; Auto size: 0
   \   000005   E9           MOV     A,R1
    189            GAS_TaskID = task_id;
   \   000006   90....       MOV     DPTR,#GAS_TaskID
   \   000009   F0           MOVX    @DPTR,A
    190            GAS_NwkState = DEV_INIT;
   \   00000A   90....       MOV     DPTR,#GAS_NwkState
   \   00000D   7401         MOV     A,#0x1
   \   00000F   F0           MOVX    @DPTR,A
    191            GAS_TransID = 0;
   \   000010   90....       MOV     DPTR,#GAS_TransID
   \   000013   E4           CLR     A
   \   000014   F0           MOVX    @DPTR,A
    192          
    193            // Device hardware initialization can be added here or in main() (Zmain.c).
    194            // If the hardware is application specific - add it here.
    195            // If the hardware is other parts of the device add it in main().
    196          
    197            GAS_DstAddr.addrMode = (afAddrMode_t)AddrNotPresent;
   \   000015   90....       MOV     DPTR,#GAS_DstAddr + 8
   \   000018   F0           MOVX    @DPTR,A
    198            GAS_DstAddr.endPoint = 0;
   \   000019   A3           INC     DPTR
   \   00001A   F0           MOVX    @DPTR,A
    199            GAS_DstAddr.addr.shortAddr = 0;
   \   00001B   90....       MOV     DPTR,#GAS_DstAddr
   \   00001E   F0           MOVX    @DPTR,A
   \   00001F   A3           INC     DPTR
   \   000020   F0           MOVX    @DPTR,A
    200          
    201            // Fill out the endpoint description.
    202            GAS_epDesc.endPoint = GAS_ENDPOINT;
   \   000021   90....       MOV     DPTR,#GAS_epDesc
   \   000024   740A         MOV     A,#0xa
   \   000026   F0           MOVX    @DPTR,A
    203            GAS_epDesc.task_id = &GAS_TaskID;
   \   000027   A3           INC     DPTR
   \   000028   74..         MOV     A,#GAS_TaskID & 0xff
   \   00002A   F0           MOVX    @DPTR,A
   \   00002B   A3           INC     DPTR
   \   00002C   74..         MOV     A,#(GAS_TaskID >> 8) & 0xff
   \   00002E   F0           MOVX    @DPTR,A
    204            GAS_epDesc.simpleDesc
    205                      = (SimpleDescriptionFormat_t *)&GAS_SimpleDesc;
   \   00002F   A3           INC     DPTR
   \   000030   74..         MOV     A,#GAS_SimpleDesc & 0xff
   \   000032   F0           MOVX    @DPTR,A
   \   000033   A3           INC     DPTR
   \   000034   74..         MOV     A,#(GAS_SimpleDesc >> 8) & 0xff
   \   000036   F0           MOVX    @DPTR,A
    206            GAS_epDesc.latencyReq = noLatencyReqs;
   \   000037   A3           INC     DPTR
   \   000038   E4           CLR     A
   \   000039   F0           MOVX    @DPTR,A
    207          
    208            // Register the endpoint description with the AF
    209            afRegister( &GAS_epDesc );
   \   00003A                ; Setup parameters for call to function afRegister
   \   00003A   7A..         MOV     R2,#GAS_epDesc & 0xff
   \   00003C   7B..         MOV     R3,#(GAS_epDesc >> 8) & 0xff
   \   00003E   12....       LCALL   ??afRegister?relay
    210          
    211            // Register for all key events - This app will handle all key events
    212            RegisterForKeys( GAS_TaskID );
   \   000041                ; Setup parameters for call to function RegisterForKeys
   \   000041   90....       MOV     DPTR,#GAS_TaskID
   \   000044   E0           MOVX    A,@DPTR
   \   000045   F9           MOV     R1,A
   \   000046   12....       LCALL   ??RegisterForKeys?relay
    213          
    214            // Update the display
    215          #if defined ( LCD_SUPPORTED )
    216            HalLcdWriteString( "GAS", HAL_LCD_LINE_1 );
   \   000049                ; Setup parameters for call to function HalLcdWriteString
   \   000049   7901         MOV     R1,#0x1
   \   00004B   7A..         MOV     R2,#`?<Constant "GAS">` & 0xff
   \   00004D   7B..         MOV     R3,#(`?<Constant "GAS">` >> 8) & 0xff
   \   00004F   12....       LCALL   ??HalLcdWriteString?relay
    217          #endif
    218          
    219            ZDO_RegisterForZDOMsg( GAS_TaskID, End_Device_Bind_rsp );
   \   000052                ; Setup parameters for call to function ZDO_RegisterForZDOMsg
   \   000052   7A20         MOV     R2,#0x20
   \   000054   7B80         MOV     R3,#-0x80
   \   000056   90....       MOV     DPTR,#GAS_TaskID
   \   000059   E0           MOVX    A,@DPTR
   \   00005A   F9           MOV     R1,A
   \   00005B   12....       LCALL   ??ZDO_RegisterForZDOMsg?relay
    220            ZDO_RegisterForZDOMsg( GAS_TaskID, Match_Desc_rsp );
   \   00005E                ; Setup parameters for call to function ZDO_RegisterForZDOMsg
   \   00005E   7A06         MOV     R2,#0x6
   \   000060   7B80         MOV     R3,#-0x80
   \   000062   90....       MOV     DPTR,#GAS_TaskID
   \   000065   E0           MOVX    A,@DPTR
   \   000066   F9           MOV     R1,A
   \   000067   12....       LCALL   ??ZDO_RegisterForZDOMsg?relay
    221          
    222          #if defined( IAR_ARMCM3_LM )
    223            // Register this task with RTOS task initiator
    224            RTOS_RegisterApp( task_id, GAS_RTOS_MSG_EVT );
    225          #endif
    226            
    227            
    228            //OPEN PORT P1.3 FOR GAS Detection!!!
    229            P1DIR &= ~(1<<3);
   \   00006A   53FEF7       ANL     0xfe,#0xf7
    230          }
   \   00006D   7F01         MOV     R7,#0x1
   \   00006F   02....       LJMP    ?BANKED_LEAVE_XDATA
   \   000072                REQUIRE P1DIR
    231          
    232          /*********************************************************************
    233           * @fn      GAS_ProcessEvent
    234           *
    235           * @brief   Generic Application Task event processor.  This function
    236           *          is called to process all events for the task.  Events
    237           *          include timers, messages and any other user defined events.
    238           *
    239           * @param   task_id  - The OSAL assigned task ID.
    240           * @param   events - events to process.  This is a bit map and can
    241           *                   contain more than one event.
    242           *
    243           * @return  none
    244           */

   \                                 In  segment BANKED_CODE, align 1, keep-with-next
    245          uint16 GAS_ProcessEvent( uint8 task_id, uint16 events )
   \                     GAS_ProcessEvent:
    246          {
   \   000000   74F2         MOV     A,#-0xe
   \   000002   12....       LCALL   ?BANKED_ENTER_XDATA
   \   000005                ; Saved register size: 14
   \   000005                ; Auto size: 21
   \   000005   74EB         MOV     A,#-0x15
   \   000007   12....       LCALL   ?ALLOC_XSTACK8
   \   00000A   EA           MOV     A,R2
   \   00000B   FE           MOV     R6,A
   \   00000C   EB           MOV     A,R3
   \   00000D   FF           MOV     R7,A
    247            afIncomingMSGPacket_t *MSGpkt;
    248            afDataConfirm_t *afDataConfirm;
    249          
    250            // Data Confirmation message fields
    251            byte sentEP;
    252            ZStatus_t sentStatus;
    253            byte sentTransID;       // This should match the value sent
    254            (void)task_id;  // Intentionally unreferenced parameter
    255          
    256            if ( events & SYS_EVENT_MSG )
   \   00000E   5480         ANL     A,#0x80
   \   000010   7003         JNZ     $+5
   \   000012   02....       LJMP    ??GAS_ProcessEvent_0 & 0xFFFF
    257            {
    258              MSGpkt = (afIncomingMSGPacket_t *)osal_msg_receive( GAS_TaskID );
   \   000015                ; Setup parameters for call to function osal_msg_receive
   \   000015   802B         SJMP    ??GAS_ProcessEvent_1
    259              while ( MSGpkt )
    260              {
    261                switch ( MSGpkt->hdr.event )
    262                {
    263                  case ZDO_CB_MSG:
    264                    GAS_ProcessZDOMsgs( (zdoIncomingMsg_t *)MSGpkt );
    265                    break;
    266          
    267                  case KEY_CHANGE:
    268                    GAS_HandleKeys( ((keyChange_t *)MSGpkt)->state, ((keyChange_t *)MSGpkt)->keys );
    269                    break;
    270          
    271                  case AF_DATA_CONFIRM_CMD:
    272                    // This message is received as a confirmation of a data packet sent.
    273                    // The status is of ZStatus_t type [defined in ZComDef.h]
    274                    // The message fields are defined in AF.h
    275                    afDataConfirm = (afDataConfirm_t *)MSGpkt;
    276                    sentEP = afDataConfirm->endpoint;
    277                    sentStatus = afDataConfirm->hdr.status;
    278                    sentTransID = afDataConfirm->transID;
    279                    (void)sentEP;
    280                    (void)sentTransID;
    281          
    282                    // Action taken when confirmation is received.
    283                    if ( sentStatus != ZSuccess )
    284                    {
    285                      // The data wasn't delivered -- Do something
    286                    }
    287                    break;
    288          
    289                  case AF_INCOMING_MSG_CMD:
    290                    GAS_MessageMSGCB( MSGpkt );
    291                    break;
    292          
    293                  case ZDO_STATE_CHANGE:
    294                    GAS_NwkState = (devStates_t)(MSGpkt->hdr.status);
   \                     ??GAS_ProcessEvent_2:
   \   000017   A3           INC     DPTR
   \   000018   E0           MOVX    A,@DPTR
   \   000019   90....       MOV     DPTR,#GAS_NwkState
   \   00001C   F0           MOVX    @DPTR,A
    295                    if ( (GAS_NwkState == DEV_ZB_COORD)
    296                        || (GAS_NwkState == DEV_ROUTER)
    297                        || (GAS_NwkState == DEV_END_DEVICE) )
   \   00001D   6409         XRL     A,#0x9
   \   00001F   600A         JZ      ??GAS_ProcessEvent_3
   \   000021   E0           MOVX    A,@DPTR
   \   000022   6407         XRL     A,#0x7
   \   000024   6005         JZ      ??GAS_ProcessEvent_3
   \   000026   E0           MOVX    A,@DPTR
   \   000027   6406         XRL     A,#0x6
   \   000029   7010         JNZ     ??GAS_ProcessEvent_4
    298                    {
    299                      // Start sending "the" message in a regular interval.
    300                      osal_start_timerEx( GAS_TaskID,
    301                                          GAS_SEND_MSG_EVT,
    302                                          GAS_SEND_MSG_TIMEOUT );
   \                     ??GAS_ProcessEvent_3:
   \   00002B                ; Setup parameters for call to function osal_start_timerEx
   \   00002B   7C88         MOV     R4,#-0x78
   \   00002D   7D13         MOV     R5,#0x13
   \   00002F   7A01         MOV     R2,#0x1
   \   000031   7B00         MOV     R3,#0x0
   \   000033   90....       MOV     DPTR,#GAS_TaskID
   \   000036   E0           MOVX    A,@DPTR
   \   000037   F9           MOV     R1,A
   \   000038   12....       LCALL   ??osal_start_timerEx?relay
    303                    }
    304                    break;
    305          
    306                  default:
    307                    break;
    308                }
    309          
    310                // Release the memory
    311                osal_msg_deallocate( (uint8 *)MSGpkt );
   \                     ??GAS_ProcessEvent_4:
   \   00003B                ; Setup parameters for call to function osal_msg_deallocate
   \   00003B   AA..         MOV     R2,?V0 + 0
   \   00003D   AB..         MOV     R3,?V0 + 1
   \   00003F   12....       LCALL   ??osal_msg_deallocate?relay
    312          
    313                // Next
    314                MSGpkt = (afIncomingMSGPacket_t *)osal_msg_receive( GAS_TaskID );
   \   000042                ; Setup parameters for call to function osal_msg_receive
   \                     ??GAS_ProcessEvent_1:
   \   000042   90....       MOV     DPTR,#GAS_TaskID
   \   000045   E0           MOVX    A,@DPTR
   \   000046   F9           MOV     R1,A
   \   000047   12....       LCALL   ??osal_msg_receive?relay
   \   00004A   8A..         MOV     ?V0 + 0,R2
   \   00004C   8B..         MOV     ?V0 + 1,R3
   \   00004E   E5..         MOV     A,?V0 + 0
   \   000050   45..         ORL     A,?V0 + 1
   \   000052   7003         JNZ     $+5
   \   000054   02....       LJMP    ??GAS_ProcessEvent_5 & 0xFFFF
   \   000057   85..82       MOV     DPL,?V0 + 0
   \   00005A   85..83       MOV     DPH,?V0 + 1
   \   00005D   E0           MOVX    A,@DPTR
   \   00005E   24E6         ADD     A,#-0x1a
   \   000060   7003         JNZ     $+5
   \   000062   02....       LJMP    ??GAS_ProcessEvent_6 & 0xFFFF
   \   000065   245A         ADD     A,#0x5a
   \   000067   7003         JNZ     $+5
   \   000069   02....       LJMP    ??GAS_ProcessEvent_7 & 0xFFFF
   \   00006C   24EF         ADD     A,#-0x11
   \   00006E   60A7         JZ      ??GAS_ProcessEvent_2
   \   000070   24FE         ADD     A,#-0x2
   \   000072   70C7         JNZ     ??GAS_ProcessEvent_4
   \   000074   E5..         MOV     A,?V0 + 0
   \   000076   240C         ADD     A,#0xc
   \   000078   F582         MOV     DPL,A
   \   00007A   E5..         MOV     A,?V0 + 1
   \   00007C   3400         ADDC    A,#0x0
   \   00007E   F583         MOV     DPH,A
   \   000080   E0           MOVX    A,@DPTR
   \   000081   F5..         MOV     ?V0 + 2,A
   \   000083   A3           INC     DPTR
   \   000084   E0           MOVX    A,@DPTR
   \   000085   F5..         MOV     ?V0 + 3,A
   \   000087   78..         MOV     R0,#?V0 + 2
   \   000089   12....       LCALL   ?US_SWITCH_SPARSE
   \                     `?<Jumptable for GAS_ProcessEvent>_0`:
   \   00008C   0000         DW        0
   \   00008E   0200         DW        2
   \   000090   0680         DW        32774
   \   000092   ....         DW        ??GAS_ProcessEvent_8
   \   000094   2080         DW        32800
   \   000096   ....         DW        ??GAS_ProcessEvent_9
   \   000098   ....         DW        ??GAS_ProcessEvent_4
   \                     ??GAS_ProcessEvent_8:
   \   00009A                ; Setup parameters for call to function ZDO_ParseEPListRsp
   \   00009A   AA..         MOV     R2,?V0 + 0
   \   00009C   AB..         MOV     R3,?V0 + 1
   \   00009E   12....       LCALL   ??ZDO_ParseEPListRsp?relay
   \   0000A1   8A..         MOV     ?V0 + 2,R2
   \   0000A3   8B..         MOV     ?V0 + 3,R3
   \   0000A5   EA           MOV     A,R2
   \   0000A6   45..         ORL     A,?V0 + 3
   \   0000A8   6091         JZ      ??GAS_ProcessEvent_4
   \   0000AA   8A82         MOV     DPL,R2
   \   0000AC   8B83         MOV     DPH,R3
   \   0000AE   E0           MOVX    A,@DPTR
   \   0000AF   7032         JNZ     ??GAS_ProcessEvent_10
   \   0000B1   A3           INC     DPTR
   \   0000B2   A3           INC     DPTR
   \   0000B3   A3           INC     DPTR
   \   0000B4   E0           MOVX    A,@DPTR
   \   0000B5   602C         JZ      ??GAS_ProcessEvent_10
   \   0000B7   90....       MOV     DPTR,#GAS_DstAddr + 8
   \   0000BA   7402         MOV     A,#0x2
   \   0000BC   F0           MOVX    @DPTR,A
   \   0000BD   8A82         MOV     DPL,R2
   \   0000BF   8B83         MOV     DPH,R3
   \   0000C1   A3           INC     DPTR
   \   0000C2   E0           MOVX    A,@DPTR
   \   0000C3   F8           MOV     R0,A
   \   0000C4   A3           INC     DPTR
   \   0000C5   E0           MOVX    A,@DPTR
   \   0000C6   F9           MOV     R1,A
   \   0000C7   90....       MOV     DPTR,#GAS_DstAddr
   \   0000CA   E8           MOV     A,R0
   \   0000CB   F0           MOVX    @DPTR,A
   \   0000CC   A3           INC     DPTR
   \   0000CD   E9           MOV     A,R1
   \   0000CE   F0           MOVX    @DPTR,A
   \   0000CF   8A82         MOV     DPL,R2
   \   0000D1   8B83         MOV     DPH,R3
   \   0000D3   A3           INC     DPTR
   \   0000D4   A3           INC     DPTR
   \   0000D5   A3           INC     DPTR
   \   0000D6   A3           INC     DPTR
   \   0000D7   E0           MOVX    A,@DPTR
   \   0000D8   90....       MOV     DPTR,#GAS_DstAddr + 9
   \   0000DB   F0           MOVX    @DPTR,A
   \   0000DC                ; Setup parameters for call to function HalLedSet
   \   0000DC   7A01         MOV     R2,#0x1
   \   0000DE   7908         MOV     R1,#0x8
   \   0000E0   12....       LCALL   ??HalLedSet?relay
   \                     ??GAS_ProcessEvent_10:
   \   0000E3                ; Setup parameters for call to function osal_mem_free
   \   0000E3   AA..         MOV     R2,?V0 + 2
   \   0000E5   AB..         MOV     R3,?V0 + 3
   \   0000E7   12....       LCALL   ??osal_mem_free?relay
   \   0000EA   02....       LJMP    ??GAS_ProcessEvent_4 & 0xFFFF
   \                     ??GAS_ProcessEvent_9:
   \   0000ED   E5..         MOV     A,?V0 + 0
   \   0000EF   2413         ADD     A,#0x13
   \   0000F1   F582         MOV     DPL,A
   \   0000F3   E5..         MOV     A,?V0 + 1
   \   0000F5   3400         ADDC    A,#0x0
   \   0000F7   F583         MOV     DPH,A
   \   0000F9   E0           MOVX    A,@DPTR
   \   0000FA   F8           MOV     R0,A
   \   0000FB   A3           INC     DPTR
   \   0000FC   E0           MOVX    A,@DPTR
   \   0000FD   F583         MOV     DPH,A
   \   0000FF   8882         MOV     DPL,R0
   \   000101   E0           MOVX    A,@DPTR
   \   000102   700A         JNZ     ??GAS_ProcessEvent_11
   \   000104                ; Setup parameters for call to function HalLedSet
   \   000104   7A01         MOV     R2,#0x1
   \                     ??GAS_ProcessEvent_12:
   \   000106   7908         MOV     R1,#0x8
   \   000108   12....       LCALL   ??HalLedSet?relay
   \   00010B   02....       LJMP    ??GAS_ProcessEvent_4 & 0xFFFF
   \                     ??GAS_ProcessEvent_11:
   \   00010E                ; Setup parameters for call to function HalLedSet
   \   00010E   7A04         MOV     R2,#0x4
   \   000110   80F4         SJMP    ??GAS_ProcessEvent_12
   \                     ??GAS_ProcessEvent_7:
   \   000112   A3           INC     DPTR
   \   000113   A3           INC     DPTR
   \   000114   A3           INC     DPTR
   \   000115   E0           MOVX    A,@DPTR
   \   000116   F5..         MOV     ?V0 + 4,A
   \   000118   85..82       MOV     DPL,?V0 + 0
   \   00011B   85..83       MOV     DPH,?V0 + 1
   \   00011E   A3           INC     DPTR
   \   00011F   A3           INC     DPTR
   \   000120   E0           MOVX    A,@DPTR
   \   000121   6003         JZ      $+5
   \   000123   02....       LJMP    ??GAS_ProcessEvent_4 & 0xFFFF
   \   000126   E5..         MOV     A,?V0 + 4
   \   000128   A2E1         MOV     C,0xE0 /* A   */.1
   \   00012A   506D         JNC     ??GAS_ProcessEvent_13
   \   00012C                ; Setup parameters for call to function HalLedSet
   \   00012C   7A00         MOV     R2,#0x0
   \   00012E   7908         MOV     R1,#0x8
   \   000130   12....       LCALL   ??HalLedSet?relay
   \   000133   7408         MOV     A,#0x8
   \   000135   12....       LCALL   ?XSTACK_DISP0_8
   \   000138   7402         MOV     A,#0x2
   \   00013A   F0           MOVX    @DPTR,A
   \   00013B   85..82       MOV     DPL,?XSP + 0
   \   00013E   85..83       MOV     DPH,?XSP + 1
   \   000141   E4           CLR     A
   \   000142   F0           MOVX    @DPTR,A
   \   000143   A3           INC     DPTR
   \   000144   F0           MOVX    @DPTR,A
   \   000145                ; Setup parameters for call to function NLME_GetShortAddr
   \   000145   12....       LCALL   ??NLME_GetShortAddr?relay
   \   000148   8A..         MOV     ?V0 + 2,R2
   \   00014A   8B..         MOV     ?V0 + 3,R3
   \   00014C   AC..         MOV     R4,?V0 + 2
   \   00014E   AD..         MOV     R5,?V0 + 3
   \   000150   75....       MOV     ?V0 + 2,#GAS_ClusterList & 0xff
   \   000153   75....       MOV     ?V0 + 3,#(GAS_ClusterList >> 8) & 0xff
   \   000156                ; Setup parameters for call to function ZDP_EndDeviceBindReq
   \   000156   75..00       MOV     ?V0 + 5,#0x0
   \   000159   78..         MOV     R0,#?V0 + 5
   \   00015B   12....       LCALL   ?PUSH_XSTACK_I_ONE
   \   00015E   78..         MOV     R0,#?V0 + 2
   \   000160   12....       LCALL   ?PUSH_XSTACK_I_TWO
   \   000163   75..01       MOV     ?V0 + 5,#0x1
   \   000166   78..         MOV     R0,#?V0 + 5
   \   000168   12....       LCALL   ?PUSH_XSTACK_I_ONE
   \   00016B   78..         MOV     R0,#?V0 + 2
   \   00016D   12....       LCALL   ?PUSH_XSTACK_I_TWO
   \   000170   75..01       MOV     ?V0 + 2,#0x1
   \   000173   78..         MOV     R0,#?V0 + 2
   \   000175   12....       LCALL   ?PUSH_XSTACK_I_ONE
   \   000178   75..04       MOV     ?V0 + 2,#0x4
   \   00017B   75..0F       MOV     ?V0 + 3,#0xf
   \   00017E   78..         MOV     R0,#?V0 + 2
   \   000180   12....       LCALL   ?PUSH_XSTACK_I_TWO
   \   000183   90....       MOV     DPTR,#GAS_epDesc
   \   000186   E0           MOVX    A,@DPTR
   \   000187   F9           MOV     R1,A
   \   000188   7409         MOV     A,#0x9
   \   00018A   12....       LCALL   ?XSTACK_DISP0_8
   \   00018D   AA82         MOV     R2,DPL
   \   00018F   AB83         MOV     R3,DPH
   \   000191   12....       LCALL   ??ZDP_EndDeviceBindReq?relay
   \   000194   7409         MOV     A,#0x9
   \   000196   12....       LCALL   ?DEALLOC_XSTACK8
   \                     ??GAS_ProcessEvent_13:
   \   000199   E5..         MOV     A,?V0 + 4
   \   00019B   A2E3         MOV     C,0xE0 /* A   */.3
   \   00019D   4003         JC      $+5
   \   00019F   02....       LJMP    ??GAS_ProcessEvent_4 & 0xFFFF
   \   0001A2                ; Setup parameters for call to function HalLedSet
   \   0001A2   7A00         MOV     R2,#0x0
   \   0001A4   7908         MOV     R1,#0x8
   \   0001A6   12....       LCALL   ??HalLedSet?relay
   \   0001A9   7408         MOV     A,#0x8
   \   0001AB   12....       LCALL   ?XSTACK_DISP0_8
   \   0001AE   740F         MOV     A,#0xf
   \   0001B0   F0           MOVX    @DPTR,A
   \   0001B1   85..82       MOV     DPL,?XSP + 0
   \   0001B4   85..83       MOV     DPH,?XSP + 1
   \   0001B7   74FF         MOV     A,#-0x1
   \   0001B9   F0           MOVX    @DPTR,A
   \   0001BA   A3           INC     DPTR
   \   0001BB   F0           MOVX    @DPTR,A
   \   0001BC   75....       MOV     ?V0 + 2,#GAS_ClusterList & 0xff
   \   0001BF   75....       MOV     ?V0 + 3,#(GAS_ClusterList >> 8) & 0xff
   \   0001C2                ; Setup parameters for call to function ZDP_MatchDescReq
   \   0001C2   75..00       MOV     ?V0 + 4,#0x0
   \   0001C5   78..         MOV     R0,#?V0 + 4
   \   0001C7   12....       LCALL   ?PUSH_XSTACK_I_ONE
   \   0001CA   78..         MOV     R0,#?V0 + 2
   \   0001CC   12....       LCALL   ?PUSH_XSTACK_I_TWO
   \   0001CF   75..01       MOV     ?V0 + 4,#0x1
   \   0001D2   78..         MOV     R0,#?V0 + 4
   \   0001D4   12....       LCALL   ?PUSH_XSTACK_I_ONE
   \   0001D7   78..         MOV     R0,#?V0 + 2
   \   0001D9   12....       LCALL   ?PUSH_XSTACK_I_TWO
   \   0001DC   75..04       MOV     ?V0 + 2,#0x4
   \   0001DF   75..0F       MOV     ?V0 + 3,#0xf
   \   0001E2   78..         MOV     R0,#?V0 + 2
   \   0001E4   12....       LCALL   ?PUSH_XSTACK_I_TWO
   \   0001E7   7901         MOV     R1,#0x1
   \   0001E9   7CFF         MOV     R4,#-0x1
   \   0001EB   7DFF         MOV     R5,#-0x1
   \   0001ED   7408         MOV     A,#0x8
   \   0001EF   12....       LCALL   ?XSTACK_DISP0_8
   \   0001F2   AA82         MOV     R2,DPL
   \   0001F4   AB83         MOV     R3,DPH
   \   0001F6   12....       LCALL   ??ZDP_MatchDescReq?relay
   \   0001F9   7408         MOV     A,#0x8
   \   0001FB   12....       LCALL   ?DEALLOC_XSTACK8
   \   0001FE   02....       LJMP    ??GAS_ProcessEvent_4 & 0xFFFF
   \                     ??GAS_ProcessEvent_6:
   \   000201   A3           INC     DPTR
   \   000202   A3           INC     DPTR
   \   000203   A3           INC     DPTR
   \   000204   A3           INC     DPTR
   \   000205   E0           MOVX    A,@DPTR
   \   000206   6407         XRL     A,#0x7
   \   000208   7002         JNZ     ??GAS_ProcessEvent_14
   \   00020A   A3           INC     DPTR
   \   00020B   E0           MOVX    A,@DPTR
   \                     ??GAS_ProcessEvent_14:
   \   00020C   6003         JZ      $+5
   \   00020E   02....       LJMP    ??GAS_ProcessEvent_4 & 0xFFFF
   \   000211                ; Setup parameters for call to function HalLcdWriteScreen
   \   000211   7C..         MOV     R4,#`?<Constant "rcvd">` & 0xff
   \   000213   7D..         MOV     R5,#(`?<Constant "rcvd">` >> 8) & 0xff
   \   000215   E5..         MOV     A,?V0 + 0
   \   000217   2422         ADD     A,#0x22
   \   000219   F582         MOV     DPL,A
   \   00021B   E5..         MOV     A,?V0 + 1
   \   00021D   3400         ADDC    A,#0x0
   \   00021F   F583         MOV     DPH,A
   \   000221   E0           MOVX    A,@DPTR
   \   000222   FA           MOV     R2,A
   \   000223   A3           INC     DPTR
   \   000224   E0           MOVX    A,@DPTR
   \   000225   FB           MOV     R3,A
   \   000226   12....       LCALL   ??HalLcdWriteScreen?relay
   \   000229   02....       LJMP    ??GAS_ProcessEvent_4 & 0xFFFF
    315              }
    316          
    317              // return unprocessed events
    318              return (events ^ SYS_EVENT_MSG);
   \                     ??GAS_ProcessEvent_5:
   \   00022C   EE           MOV     A,R6
   \   00022D   FA           MOV     R2,A
   \   00022E   EF           MOV     A,R7
   \   00022F   6480         XRL     A,#0x80
   \                     ??GAS_ProcessEvent_15:
   \   000231   FB           MOV     R3,A
   \   000232   02....       LJMP    ??GAS_ProcessEvent_16 & 0xFFFF
    319            }
    320          
    321            // Send a message out - This event is generated by a timer
    322            //  (setup in GAS_Init()).
    323            if ( events & GAS_SEND_MSG_EVT )
   \                     ??GAS_ProcessEvent_0:
   \   000235   EE           MOV     A,R6
   \   000236   A2E0         MOV     C,0xE0 /* A   */.0
   \   000238   4003         JC      $+5
   \   00023A   02....       LJMP    ??GAS_ProcessEvent_17 & 0xFFFF
    324            {
    325              // Send "the" message
    326              Scan();
   \   00023D                ; Setup parameters for call to function Scan
   \   00023D   12....       LCALL   ??Scan?relay
    327              GAS_SendTheMessage();
   \   000240   90....       MOV     DPTR,#`?<Constant "Hello World">`
   \   000243   C082         PUSH    DPL
   \   000245   7409         MOV     A,#0x9
   \   000247   12....       LCALL   ?XSTACK_DISP0_8
   \   00024A   AC82         MOV     R4,DPL
   \   00024C   AD83         MOV     R5,DPH
   \   00024E   7583..       MOV     DPH,#(`?<Constant "Hello World">` >> 8) & 0xff
   \   000251   D082         POP     DPL
   \   000253   740C         MOV     A,#0xc
   \   000255   12....       LCALL   ?MOVE_LONG8_XDATA_XDATA
   \   000258   53FEF7       ANL     0xfe,#0xf7
   \   00025B   A293         MOV     C,0x90.3
   \   00025D   7409         MOV     A,#0x9
   \   00025F   5007         JNC     ??GAS_ProcessEvent_18
   \   000261   12....       LCALL   ?XSTACK_DISP0_8
   \   000264   7459         MOV     A,#0x59
   \   000266   8005         SJMP    ??GAS_ProcessEvent_19
   \                     ??GAS_ProcessEvent_18:
   \   000268   12....       LCALL   ?XSTACK_DISP0_8
   \   00026B   744E         MOV     A,#0x4e
   \                     ??GAS_ProcessEvent_19:
   \   00026D   F0           MOVX    @DPTR,A
   \   00026E                ; Setup parameters for call to function AF_DataRequest
   \   00026E   75..1E       MOV     ?V0 + 0,#0x1e
   \   000271   78..         MOV     R0,#?V0 + 0
   \   000273   12....       LCALL   ?PUSH_XSTACK_I_ONE
   \   000276   75....       MOV     ?V0 + 0,#GAS_TransID & 0xff
   \   000279   75....       MOV     ?V0 + 1,#(GAS_TransID >> 8) & 0xff
   \   00027C   78..         MOV     R0,#?V0 + 0
   \   00027E   12....       LCALL   ?PUSH_XSTACK_I_TWO
   \   000281   740C         MOV     A,#0xc
   \   000283   12....       LCALL   ?XSTACK_DISP0_8
   \   000286   8582..       MOV     ?V0 + 0,DPL
   \   000289   8583..       MOV     ?V0 + 1,DPH
   \   00028C   78..         MOV     R0,#?V0 + 0
   \   00028E   12....       LCALL   ?PUSH_XSTACK_I_TWO
   \   000291                ; Setup parameters for call to function osal_strlen
   \   000291   740E         MOV     A,#0xe
   \   000293   12....       LCALL   ?XSTACK_DISP0_8
   \   000296   AA82         MOV     R2,DPL
   \   000298   AB83         MOV     R3,DPH
   \   00029A   12....       LCALL   ??osal_strlen?relay
   \   00029D   EA           MOV     A,R2
   \   00029E   2401         ADD     A,#0x1
   \   0002A0   F5..         MOV     ?V0 + 0,A
   \   0002A2   E4           CLR     A
   \   0002A3   3400         ADDC    A,#0x0
   \   0002A5   F5..         MOV     ?V0 + 1,A
   \   0002A7   78..         MOV     R0,#?V0 + 0
   \   0002A9   12....       LCALL   ?PUSH_XSTACK_I_TWO
   \   0002AC   75..07       MOV     ?V0 + 0,#0x7
   \   0002AF   75..00       MOV     ?V0 + 1,#0x0
   \   0002B2   78..         MOV     R0,#?V0 + 0
   \   0002B4   12....       LCALL   ?PUSH_XSTACK_I_TWO
   \   0002B7   7920         MOV     R1,#0x20
   \   0002B9   7C..         MOV     R4,#GAS_epDesc & 0xff
   \   0002BB   7D..         MOV     R5,#(GAS_epDesc >> 8) & 0xff
   \   0002BD   7A..         MOV     R2,#GAS_DstAddr & 0xff
   \   0002BF   7B..         MOV     R3,#(GAS_DstAddr >> 8) & 0xff
   \   0002C1   12....       LCALL   ??AF_DataRequest?relay
   \   0002C4   7409         MOV     A,#0x9
   \   0002C6   12....       LCALL   ?DEALLOC_XSTACK8
    328          
    329              // Setup to send message again
    330              osal_start_timerEx( GAS_TaskID,
    331                                  GAS_SEND_MSG_EVT,
    332                                  GAS_SEND_MSG_TIMEOUT );
   \   0002C9                ; Setup parameters for call to function osal_start_timerEx
   \   0002C9   7C88         MOV     R4,#-0x78
   \   0002CB   7D13         MOV     R5,#0x13
   \   0002CD   7A01         MOV     R2,#0x1
   \   0002CF   7B00         MOV     R3,#0x0
   \   0002D1   90....       MOV     DPTR,#GAS_TaskID
   \   0002D4   E0           MOVX    A,@DPTR
   \   0002D5   F9           MOV     R1,A
   \   0002D6   12....       LCALL   ??osal_start_timerEx?relay
    333          
    334              // return unprocessed events
    335              return (events ^ GAS_SEND_MSG_EVT);
   \   0002D9   EE           MOV     A,R6
   \   0002DA   6401         XRL     A,#0x1
   \   0002DC   FA           MOV     R2,A
   \   0002DD   EF           MOV     A,R7
   \   0002DE   02....       LJMP    ??GAS_ProcessEvent_15 & 0xFFFF
    336            }
    337          
    338            
    339          #if defined( IAR_ARMCM3_LM )
    340            // Receive a message from the RTOS queue
    341            if ( events & GAS_RTOS_MSG_EVT )
    342            {
    343              // Process message from RTOS queue
    344              GAS_ProcessRtosMessage();
    345          
    346              // return unprocessed events
    347              return (events ^ GAS_RTOS_MSG_EVT);
    348            }
    349          #endif
    350          
    351            // Discard unknown events
    352            return 0;
   \                     ??GAS_ProcessEvent_17:
   \   0002E1   7A00         MOV     R2,#0x0
   \   0002E3   7B00         MOV     R3,#0x0
   \                     ??GAS_ProcessEvent_16:
   \   0002E5   7415         MOV     A,#0x15
   \   0002E7   12....       LCALL   ?DEALLOC_XSTACK8
   \   0002EA   7F06         MOV     R7,#0x6
   \   0002EC   02....       LJMP    ?BANKED_LEAVE_XDATA
   \   0002EF                REQUIRE P1DIR
   \   0002EF                REQUIRE _A_P1
    353          }

   \                                 In  segment BANK_RELAYS, align 1
   \                     ??Scan?relay:
   \   000000   12....       LCALL   ?BDISPATCH
   \   000003   ......       DC24    Scan

   \                                 In  segment BANK_RELAYS, align 1
   \                     ??GAS_Init?relay:
   \   000000   12....       LCALL   ?BDISPATCH
   \   000003   ......       DC24    GAS_Init

   \                                 In  segment BANK_RELAYS, align 1
   \                     ??GAS_ProcessEvent?relay:
   \   000000   12....       LCALL   ?BDISPATCH
   \   000003   ......       DC24    GAS_ProcessEvent

   \                                 In  segment XDATA_ROM_C, align 1
   \                     `?<Constant "GAS">`:
   \   000000   47415300     DB "GAS"

   \                                 In  segment XDATA_ROM_C, align 1
   \                     `?<Constant "rcvd">`:
   \   000000   72637664     DB "rcvd"
   \            00      

   \                                 In  segment XDATA_ROM_C, align 1
   \                     `?<Constant "Hello World">`:
   \   000000   48656C6C     DB "Hello World"
   \            6F20576F
   \            726C6400
    354          
    355          /*********************************************************************
    356           * Event Generation Functions
    357           */
    358          
    359          /*********************************************************************
    360           * @fn      GAS_ProcessZDOMsgs()
    361           *
    362           * @brief   Process response messages
    363           *
    364           * @param   none
    365           *
    366           * @return  none
    367           */
    368          static void GAS_ProcessZDOMsgs( zdoIncomingMsg_t *inMsg )
    369          {
    370            switch ( inMsg->clusterID )
    371            {
    372              case End_Device_Bind_rsp:
    373                if ( ZDO_ParseBindRsp( inMsg ) == ZSuccess )
    374                {
    375                  // Light LED
    376                  HalLedSet( HAL_LED_4, HAL_LED_MODE_ON );
    377                }
    378          #if defined( BLINK_LEDS )
    379                else
    380                {
    381                  // Flash LED to show failure
    382                  HalLedSet ( HAL_LED_4, HAL_LED_MODE_FLASH );
    383                }
    384          #endif
    385                break;
    386          
    387              case Match_Desc_rsp:
    388                {
    389                  ZDO_ActiveEndpointRsp_t *pRsp = ZDO_ParseEPListRsp( inMsg );
    390                  if ( pRsp )
    391                  {
    392                    if ( pRsp->status == ZSuccess && pRsp->cnt )
    393                    {
    394                      GAS_DstAddr.addrMode = (afAddrMode_t)Addr16Bit;
    395                      GAS_DstAddr.addr.shortAddr = pRsp->nwkAddr;
    396                      // Take the first endpoint, Can be changed to search through endpoints
    397                      GAS_DstAddr.endPoint = pRsp->epList[0];
    398          
    399                      // Light LED
    400                      HalLedSet( HAL_LED_4, HAL_LED_MODE_ON );
    401                    }
    402                    osal_mem_free( pRsp );
    403                  }
    404                }
    405                break;
    406            }
    407          }
    408          
    409          /*********************************************************************
    410           * @fn      GAS_HandleKeys
    411           *
    412           * @brief   Handles all key events for this device.
    413           *
    414           * @param   shift - true if in shift/alt.
    415           * @param   keys - bit field for key events. Valid entries:
    416           *                 HAL_KEY_SW_4
    417           *                 HAL_KEY_SW_3
    418           *                 HAL_KEY_SW_2
    419           *                 HAL_KEY_SW_1
    420           *
    421           * @return  none
    422           */
    423          static void GAS_HandleKeys( uint8 shift, uint8 keys )
    424          {
    425            zAddrType_t dstAddr;
    426          
    427            // Shift is used to make each button/switch dual purpose.
    428            if ( shift )
    429            {
    430              if ( keys & HAL_KEY_SW_1 )
    431              {
    432              }
    433              if ( keys & HAL_KEY_SW_2 )
    434              {
    435              }
    436              if ( keys & HAL_KEY_SW_3 )
    437              {
    438              }
    439              if ( keys & HAL_KEY_SW_4 )
    440              {
    441              }
    442            }
    443            else
    444            {
    445              if ( keys & HAL_KEY_SW_1 )
    446              {
    447                // Since SW1 isn't used for anything else in this application...
    448          #if defined( SWITCH1_BIND )
    449                // we can use SW1 to simulate SW2 for devices that only have one switch,
    450                keys |= HAL_KEY_SW_2;
    451          #elif defined( SWITCH1_MATCH )
    452                // or use SW1 to simulate SW4 for devices that only have one switch
    453                keys |= HAL_KEY_SW_4;
    454          #endif
    455              }
    456          
    457              if ( keys & HAL_KEY_SW_2 )
    458              {
    459                HalLedSet ( HAL_LED_4, HAL_LED_MODE_OFF );
    460          
    461                // Initiate an End Device Bind Request for the mandatory endpoint
    462                dstAddr.addrMode = Addr16Bit;
    463                dstAddr.addr.shortAddr = 0x0000; // Coordinator
    464                ZDP_EndDeviceBindReq( &dstAddr, NLME_GetShortAddr(),
    465                                      GAS_epDesc.endPoint,
    466                                      GAS_PROFID,
    467                                      GAS_MAX_CLUSTERS, (cId_t *)GAS_ClusterList,
    468                                      GAS_MAX_CLUSTERS, (cId_t *)GAS_ClusterList,
    469                                      FALSE );
    470              }
    471          
    472              if ( keys & HAL_KEY_SW_3 )
    473              {
    474              }
    475          
    476              if ( keys & HAL_KEY_SW_4 )
    477              {
    478                HalLedSet ( HAL_LED_4, HAL_LED_MODE_OFF );
    479                // Initiate a Match Description Request (Service Discovery)
    480                dstAddr.addrMode = AddrBroadcast;
    481                dstAddr.addr.shortAddr = NWK_BROADCAST_SHORTADDR;
    482                ZDP_MatchDescReq( &dstAddr, NWK_BROADCAST_SHORTADDR,
    483                                  GAS_PROFID,
    484                                  GAS_MAX_CLUSTERS, (cId_t *)GAS_ClusterList,
    485                                  GAS_MAX_CLUSTERS, (cId_t *)GAS_ClusterList,
    486                                  FALSE );
    487              }
    488            }
    489          }
    490          
    491          /*********************************************************************
    492           * LOCAL FUNCTIONS
    493           */
    494          
    495          /*********************************************************************
    496           * @fn      GAS_MessageMSGCB
    497           *
    498           * @brief   Data message processor callback.  This function processes
    499           *          any incoming data - probably from other devices.  So, based
    500           *          on cluster ID, perform the intended action.
    501           *
    502           * @param   none
    503           *
    504           * @return  none
    505           */
    506          static void GAS_MessageMSGCB( afIncomingMSGPacket_t *pkt )
    507          {
    508            switch ( pkt->clusterId )
    509            {
    510              case GAS_CLUSTERID:
    511                // "the" message
    512          #if defined( LCD_SUPPORTED )
    513                HalLcdWriteScreen( (char*)pkt->cmd.Data, "rcvd" );
    514          #elif defined( WIN32 )
    515                WPRINTSTR( pkt->cmd.Data );
    516          #endif
    517                break;
    518            }
    519          }
    520          
    521          /*********************************************************************
    522           * @fn      GAS_SendTheMessage
    523           *
    524           * @brief   Send "the" message.
    525           *
    526           * @param   none
    527           *
    528           * @return  none
    529           */
    530          static void GAS_SendTheMessage( void )
    531          {
    532            char theMessageData[] = "Hello World";
    533            
    534            P1DIR &= ~(1<<3);
    535            
    536            if(GASIN == 1)
    537            {
    538              theMessageData[0] = 'Y';
    539            } else {
    540              theMessageData[0] = 'N';
    541            }
    542          
    543            if ( AF_DataRequest( &GAS_DstAddr, &GAS_epDesc,
    544                                 GAS_CLUSTERID,
    545                                 (byte)osal_strlen( theMessageData ) + 1,
    546                                 (byte *)&theMessageData,
    547                                 &GAS_TransID,
    548                                 AF_DISCV_ROUTE, AF_DEFAULT_RADIUS ) == afStatus_SUCCESS )
    549            {
    550              // Successfully requested to be sent.
    551            }
    552            else
    553            {
    554              // Error occurred in request to send.
    555            }
    556          }
    557          
    558          #if defined( IAR_ARMCM3_LM )
    559          /*********************************************************************
    560           * @fn      GAS_ProcessRtosMessage
    561           *
    562           * @brief   Receive message from RTOS queue, send response back.
    563           *
    564           * @param   none
    565           *
    566           * @return  none
    567           */
    568          static void GAS_ProcessRtosMessage( void )
    569          {
    570            osalQueue_t inMsg;
    571          
    572            if ( osal_queue_receive( OsalQueue, &inMsg, 0 ) == pdPASS )
    573            {
    574              uint8 cmndId = inMsg.cmnd;
    575              uint32 counter = osal_build_uint32( inMsg.cbuf, 4 );
    576          
    577              switch ( cmndId )
    578              {
    579                case CMD_INCR:
    580                  counter += 1;  /* Increment the incoming counter */
    581                                 /* Intentionally fall through next case */
    582          
    583                case CMD_ECHO:
    584                {
    585                  userQueue_t outMsg;
    586          
    587                  outMsg.resp = RSP_CODE | cmndId;  /* Response ID */
    588                  osal_buffer_uint32( outMsg.rbuf, counter );    /* Increment counter */
    589                  osal_queue_send( UserQueue1, &outMsg, 0 );  /* Send back to UserTask */
    590                  break;
    591                }
    592                
    593                default:
    594                  break;  /* Ignore unknown command */    
    595              }
    596            }
    597          }
    598          #endif
    599          
    600          /*********************************************************************
    601           */

   Maximum stack usage in bytes:

     Function                   ISTACK PSTACK XSTACK
     --------                   ------ ------ ------
     GAS_Init                       0      0      9
       -> afRegister                0      0     18
       -> RegisterForKeys           0      0     18
       -> HalLcdWriteString         0      0     18
       -> ZDO_RegisterForZDOMsg     0      0     18
       -> ZDO_RegisterForZDOMsg     0      0     18
     GAS_ProcessEvent               2      0     44
       -> osal_msg_receive          0      0     70
       -> osal_start_timerEx        0      0     70
       -> osal_msg_deallocate       0      0     70
       -> osal_msg_receive          0      0     70
       -> ZDO_ParseEPListRsp        0      0     70
       -> HalLedSet                 0      0     70
       -> osal_mem_free             0      0     70
       -> HalLedSet                 0      0     70
       -> HalLedSet                 0      0     70
       -> HalLedSet                 0      0     70
       -> NLME_GetShortAddr         0      0     70
       -> ZDP_EndDeviceBindReq      0      0     88
       -> HalLedSet                 0      0     70
       -> ZDP_MatchDescReq          0      0     86
       -> HalLcdWriteScreen         0      0     70
       -> Scan                      0      0     70
       -> osal_strlen               0      0     80
       -> AF_DataRequest            0      0     88
       -> osal_start_timerEx        0      0     70
     Scan                           0      0     35


   Segment part sizes:

     Function/Label            Bytes
     --------------            -----
     _A_P1                        1
     P1SEL                        1
     P1DIR                        1
     GAS_ClusterList              2
     GAS_SimpleDesc              12
     GAS_epDesc                   6
     GAS_TaskID                   1
     GAS_NwkState                 1
     GAS_TransID                  1
     GAS_DstAddr                 12
     Scan                         9
     GAS_Init                   114
     GAS_ProcessEvent           751
     ??Scan?relay                 6
     ??GAS_Init?relay             6
     ??GAS_ProcessEvent?relay     6
     ?<Constant "GAS">            4
     ?<Constant "rcvd">           5
     ?<Constant "Hello World">   12

 
 874 bytes in segment BANKED_CODE
  18 bytes in segment BANK_RELAYS
   3 bytes in segment SFR_AN
  35 bytes in segment XDATA_ROM_C
  21 bytes in segment XDATA_Z
 
 892 bytes of CODE  memory
  35 bytes of CONST memory
   0 bytes of DATA  memory (+ 3 bytes shared)
  21 bytes of XDATA memory

Errors: none
Warnings: none
