///////////////////////////////////////////////////////////////////////////////
//                                                                            /
// IAR C/C++ Compiler V8.20.2.41139 for 8051            06/Dec/2016  22:10:24 /
// Copyright 2004-2013 IAR Systems AB.                                        /
//                                                                            /
//    Core               =  plain                                             /
//    Code model         =  banked                                            /
//    Data model         =  large                                             /
//    Calling convention =  xdata reentrant                                   /
//    Constant location  =  data_rom                                          /
//    Dptr setup         =  1,16                                              /
//                                                                            /
//    Source file        =  E:\Lib\micro-electromechanical\时延\ZStack-CC2530 /
//                          -2.5.1a\Projects\zstack\Samples\00协调节点\Source /
//                          \GenericApp.c                                     /
//    Command line       =  -f E:\Lib\micro-electromechanical\时延\ZStack-CC2 /
//                          530-2.5.1a\Projects\zstack\Samples\00协调节点\CC2 /
//                          530DB\..\..\..\Tools\CC2530DB\f8wRouter.cfg       /
//                          (-DCPU32MHZ -DROOT=__near_func                    /
//                          -DMAC_CFG_APP_PENDING_QUEUE=TRUE                  /
//                          -DMAC_CFG_TX_DATA_MAX=5 -DMAC_CFG_TX_MAX=8        /
//                          -DMAC_CFG_RX_MAX=5 -DRTR_NWK) -f                  /
//                          E:\Lib\micro-electromechanical\时延\ZStack-CC2530 /
//                          -2.5.1a\Projects\zstack\Samples\00协调节点\CC2530 /
//                          DB\..\..\..\Tools\CC2530DB\f8wConfig.cfg          /
//                          (-DZIGBEEPRO -DSECURE=0 -DZG_SECURE_DYNAMIC=0     /
//                          -DREFLECTOR -DDEFAULT_CHANLIST=0x00100000         /
//                          -DZDAPP_CONFIG_PAN_ID=0xFFFF                      /
//                          -DNWK_START_DELAY=100 -DEXTENDED_JOINING_RANDOM_M /
//                          ASK=0x007F -DBEACON_REQUEST_DELAY=100             /
//                          -DBEACON_REQ_DELAY_MASK=0x00FF                    /
//                          -DLINK_STATUS_JITTER_MASK=0x007F                  /
//                          -DROUTE_EXPIRY_TIME=30 -DAPSC_ACK_WAIT_DURATION_P /
//                          OLLED=3000 -DNWK_INDIRECT_MSG_TIMEOUT=7           /
//                          -DMAX_RREQ_ENTRIES=8 -DAPSC_MAX_FRAME_RETRIES=3   /
//                          -DNWK_MAX_DATA_RETRIES=2                          /
//                          -DMAX_POLL_FAILURE_RETRIES=2 -DMAX_BCAST=9        /
//                          -DAPS_MAX_GROUPS=16 -DMAX_RTG_ENTRIES=40          /
//                          -DNWK_MAX_BINDING_ENTRIES=4                       /
//                          -DMAX_BINDING_CLUSTER_IDS=4                       /
//                          "-DDEFAULT_KEY={0x01, 0x03, 0x05, 0x07, 0x09,     /
//                          0x0B, 0x0D, 0x0F, 0x00, 0x02, 0x04, 0x06, 0x08,   /
//                          0x0A, 0x0C, 0x0D}" -DMAC_MAX_FRAME_SIZE=116       /
//                          -DZDNWKMGR_MIN_TRANSMISSIONS=20 "-DCONST=const    /
//                          __code" -DGENERIC=__generic                       /
//                          -DRFD_RCVC_ALWAYS_ON=FALSE -DPOLL_RATE=1000       /
//                          -DQUEUED_POLL_RATE=100 -DRESPONSE_POLL_RATE=100)  /
//                          -DREJOIN_POLL_RATE=440 E:\Lib\micro-electromechan /
//                          ical\时延\ZStack-CC2530-2.5.1a\Projects\zstack\Sa /
//                          mples\00协调节点\Source\GenericApp.c -D ZTOOL_P1  /
//                          -D MT_TASK -D MT_SYS_FUNC -D MT_ZDO_FUNC -D       /
//                          LCD_SUPPORTED=DEBUG -lC                           /
//                          E:\Lib\micro-electromechanical\时延\ZStack-CC2530 /
//                          -2.5.1a\Projects\zstack\Samples\00协调节点\CC2530 /
//                          DB\RouterEB\List\ -lA E:\Lib\micro-electromechani /
//                          cal\时延\ZStack-CC2530-2.5.1a\Projects\zstack\Sam /
//                          ples\00协调节点\CC2530DB\RouterEB\List\           /
//                          --diag_suppress Pe001,Pa010 -o                    /
//                          E:\Lib\micro-electromechanical\时延\ZStack-CC2530 /
//                          -2.5.1a\Projects\zstack\Samples\00协调节点\CC2530 /
//                          DB\RouterEB\Obj\ -e --no_code_motion --debug      /
//                          --core=plain --dptr=16,1 --data_model=large       /
//                          --code_model=banked --calling_convention=xdata_re /
//                          entrant --place_constants=data_rom                /
//                          --nr_virtual_regs 16 -I                           /
//                          E:\Lib\micro-electromechanical\时延\ZStack-CC2530 /
//                          -2.5.1a\Projects\zstack\Samples\00协调节点\CC2530 /
//                          DB\ -I E:\Lib\micro-electromechanical\时延\ZStack /
//                          -CC2530-2.5.1a\Projects\zstack\Samples\00协调节点 /
//                          \CC2530DB\..\Source\ -I                           /
//                          E:\Lib\micro-electromechanical\时延\ZStack-CC2530 /
//                          -2.5.1a\Projects\zstack\Samples\00协调节点\CC2530 /
//                          DB\..\..\..\ZMain\TI2530DB\ -I                    /
//                          E:\Lib\micro-electromechanical\时延\ZStack-CC2530 /
//                          -2.5.1a\Projects\zstack\Samples\00协调节点\CC2530 /
//                          DB\..\..\..\..\..\Components\hal\include\ -I      /
//                          E:\Lib\micro-electromechanical\时延\ZStack-CC2530 /
//                          -2.5.1a\Projects\zstack\Samples\00协调节点\CC2530 /
//                          DB\..\..\..\..\..\Components\hal\target\CC2530EB\ /
//                           -I E:\Lib\micro-electromechanical\时延\ZStack-CC /
//                          2530-2.5.1a\Projects\zstack\Samples\00协调节点\CC /
//                          2530DB\..\..\..\..\..\Components\mac\include\ -I  /
//                          E:\Lib\micro-electromechanical\时延\ZStack-CC2530 /
//                          -2.5.1a\Projects\zstack\Samples\00协调节点\CC2530 /
//                          DB\..\..\..\..\..\Components\mac\high_level\ -I   /
//                          E:\Lib\micro-electromechanical\时延\ZStack-CC2530 /
//                          -2.5.1a\Projects\zstack\Samples\00协调节点\CC2530 /
//                          DB\..\..\..\..\..\Components\mac\low_level\srf04\ /
//                           -I E:\Lib\micro-electromechanical\时延\ZStack-CC /
//                          2530-2.5.1a\Projects\zstack\Samples\00协调节点\CC /
//                          2530DB\..\..\..\..\..\Components\mac\low_level\sr /
//                          f04\single_chip\ -I E:\Lib\micro-electromechanica /
//                          l\时延\ZStack-CC2530-2.5.1a\Projects\zstack\Sampl /
//                          es\00协调节点\CC2530DB\..\..\..\..\..\Components\ /
//                          mt\ -I E:\Lib\micro-electromechanical\时延\ZStack /
//                          -CC2530-2.5.1a\Projects\zstack\Samples\00协调节点 /
//                          \CC2530DB\..\..\..\..\..\Components\osal\include\ /
//                           -I E:\Lib\micro-electromechanical\时延\ZStack-CC /
//                          2530-2.5.1a\Projects\zstack\Samples\00协调节点\CC /
//                          2530DB\..\..\..\..\..\Components\services\saddr\  /
//                          -I E:\Lib\micro-electromechanical\时延\ZStack-CC2 /
//                          530-2.5.1a\Projects\zstack\Samples\00协调节点\CC2 /
//                          530DB\..\..\..\..\..\Components\services\sdata\   /
//                          -I E:\Lib\micro-electromechanical\时延\ZStack-CC2 /
//                          530-2.5.1a\Projects\zstack\Samples\00协调节点\CC2 /
//                          530DB\..\..\..\..\..\Components\stack\af\ -I      /
//                          E:\Lib\micro-electromechanical\时延\ZStack-CC2530 /
//                          -2.5.1a\Projects\zstack\Samples\00协调节点\CC2530 /
//                          DB\..\..\..\..\..\Components\stack\nwk\ -I        /
//                          E:\Lib\micro-electromechanical\时延\ZStack-CC2530 /
//                          -2.5.1a\Projects\zstack\Samples\00协调节点\CC2530 /
//                          DB\..\..\..\..\..\Components\stack\sapi\ -I       /
//                          E:\Lib\micro-electromechanical\时延\ZStack-CC2530 /
//                          -2.5.1a\Projects\zstack\Samples\00协调节点\CC2530 /
//                          DB\..\..\..\..\..\Components\stack\sec\ -I        /
//                          E:\Lib\micro-electromechanical\时延\ZStack-CC2530 /
//                          -2.5.1a\Projects\zstack\Samples\00协调节点\CC2530 /
//                          DB\..\..\..\..\..\Components\stack\sys\ -I        /
//                          E:\Lib\micro-electromechanical\时延\ZStack-CC2530 /
//                          -2.5.1a\Projects\zstack\Samples\00协调节点\CC2530 /
//                          DB\..\..\..\..\..\Components\stack\zdo\ -I        /
//                          E:\Lib\micro-electromechanical\时延\ZStack-CC2530 /
//                          -2.5.1a\Projects\zstack\Samples\00协调节点\CC2530 /
//                          DB\..\..\..\..\..\Components\zmac\ -I             /
//                          E:\Lib\micro-electromechanical\时延\ZStack-CC2530 /
//                          -2.5.1a\Projects\zstack\Samples\00协调节点\CC2530 /
//                          DB\..\..\..\..\..\Components\zmac\f8w\ -Ohz       /
//    List file          =  E:\Lib\micro-electromechanical\时延\ZStack-CC2530 /
//                          -2.5.1a\Projects\zstack\Samples\00协调节点\CC2530 /
//                          DB\RouterEB\List\GenericApp.s51                   /
//                                                                            /
//                                                                            /
///////////////////////////////////////////////////////////////////////////////

        NAME GenericApp

        RTMODEL "__SystemLibrary", "CLib"
        RTMODEL "__calling_convention", "xdata_reentrant"
        RTMODEL "__code_model", "banked"
        RTMODEL "__core", "plain"
        RTMODEL "__data_model", "large"
        RTMODEL "__dptr_size", "16"
        RTMODEL "__extended_stack", "disabled"
        RTMODEL "__location_for_constants", "data"
        RTMODEL "__number_of_dptrs", "1"
        RTMODEL "__rt_version", "1"

        RSEG DOVERLAY:DATA:NOROOT(0)
        RSEG IOVERLAY:IDATA:NOROOT(0)
        RSEG ISTACK:IDATA:NOROOT(0)
        RSEG PSTACK:XDATA:NOROOT(0)
        RSEG XSTACK:XDATA:NOROOT(0)

        EXTERN ?ALLOC_XSTACK8
        EXTERN ?BANKED_ENTER_XDATA
        EXTERN ?BANKED_LEAVE_XDATA
        EXTERN ?BDISPATCH
        EXTERN ?BRET
        EXTERN ?DEALLOC_XSTACK8
        EXTERN ?PUSH_XSTACK_I_ONE
        EXTERN ?PUSH_XSTACK_I_THREE
        EXTERN ?PUSH_XSTACK_I_TWO
        EXTERN ?US_SWITCH_SPARSE
        EXTERN ?V0
        EXTERN ?XSP
        EXTERN ?XSTACK_DISP0_8
        EXTERN __INIT_XDATA_I
        EXTERN __INIT_XDATA_Z

        PUBLIC ??Delays?relay
        FUNCTION ??Delays?relay,0203H
        PUBLIC ??GenericApp_Init?relay
        FUNCTION ??GenericApp_Init?relay,0203H
        PUBLIC ??GenericApp_MessageMSGCB?relay
        FUNCTION ??GenericApp_MessageMSGCB?relay,0203H
        PUBLIC ??GenericApp_ProcessEvent?relay
        FUNCTION ??GenericApp_ProcessEvent?relay,0203H
        PUBLIC ??GenericApp_SPI?relay
        FUNCTION ??GenericApp_SPI?relay,0203H
        PUBLIC ??GenericApp_SendTheMessage?relay
        FUNCTION ??GenericApp_SendTheMessage?relay,0203H
        PUBLIC ??GenericApp_UART1?relay
        FUNCTION ??GenericApp_UART1?relay,0203H
        PUBLIC ??hextoword1?relay
        FUNCTION ??hextoword1?relay,0203H
        PUBLIC ??hextoword2?relay
        FUNCTION ??hextoword2?relay,0203H
        PUBLIC ??initUARTSEND?relay
        FUNCTION ??initUARTSEND?relay,0203H
        PUBLIC ADCV
        PUBLIC ADCValue
        PUBLIC AdcValue
        PUBWEAK CLKCONCMD
        PUBWEAK CLKCONSTA
        PUBLIC Delays
        FUNCTION Delays,080203H
        ARGFRAME XSTACK, 0, STACK
        PUBLIC GenericApp_ClusterList
        PUBLIC GenericApp_Init
        FUNCTION GenericApp_Init,021203H
        ARGFRAME XSTACK, 0, STACK
        LOCFRAME XSTACK, 38, STACK
        PUBLIC GenericApp_MessageMSGCB
        FUNCTION GenericApp_MessageMSGCB,0a1203H
        ARGFRAME XSTACK, 12, STACK
        ARGFRAME IOVERLAY, 0, STATIC
        ARGFRAME DOVERLAY, 0, STATIC
        LOCFRAME ISTACK, 1, STACK
        LOCFRAME XSTACK, 43, STACK
        PUBLIC GenericApp_NwkState
        PUBLIC GenericApp_ProcessEvent
        FUNCTION GenericApp_ProcessEvent,021203H
        ARGFRAME XSTACK, 0, STACK
        LOCFRAME XSTACK, 12, STACK
        PUBLIC GenericApp_SPI
        FUNCTION GenericApp_SPI,021203H
        ARGFRAME XSTACK, 12, STACK
        ARGFRAME IOVERLAY, 0, STATIC
        ARGFRAME DOVERLAY, 0, STATIC
        LOCFRAME XSTACK, 10, STACK
        PUBLIC GenericApp_SendTheMessage
        FUNCTION GenericApp_SendTheMessage,021203H
        ARGFRAME XSTACK, 0, STACK
        LOCFRAME XSTACK, 31, STACK
        PUBLIC GenericApp_SimpleDesc
        PUBLIC GenericApp_TaskID
        PUBLIC GenericApp_TransID
        PUBLIC GenericApp_UART1
        FUNCTION GenericApp_UART1,021203H
        ARGFRAME XSTACK, 12, STACK
        ARGFRAME IOVERLAY, 0, STATIC
        ARGFRAME DOVERLAY, 0, STATIC
        LOCFRAME ISTACK, 2, STACK
        PUBLIC GenericApp_epDesc
        PUBWEAK P0SEL
        PUBWEAK PERCFG
        PUBWEAK U0BAUD
        PUBWEAK U0CSR
        PUBWEAK U0GCR
        PUBWEAK _A_IRCON2
        PUBWEAK _A_P1
        PUBLIC flag1
        PUBLIC flag2
        PUBLIC hextoword1
        FUNCTION hextoword1,0203H
        ARGFRAME XSTACK, 10, STACK
        ARGFRAME IOVERLAY, 0, STATIC
        ARGFRAME DOVERLAY, 0, STATIC
        PUBLIC hextoword2
        FUNCTION hextoword2,0203H
        ARGFRAME XSTACK, 0, STACK
        PUBLIC initUARTSEND
        FUNCTION initUARTSEND,0203H
        ARGFRAME XSTACK, 38, STACK
        ARGFRAME IOVERLAY, 0, STATIC
        ARGFRAME DOVERLAY, 0, STATIC
        PUBLIC shortddr
        PUBLIC temp1
        PUBLIC temp2
        PUBLIC temp3
        PUBLIC temp4
        PUBLIC temp5
        PUBLIC value
        
          CFI Names cfiNames0
          CFI StackFrame CFA_SP SP IDATA
          CFI StackFrame CFA_PSP16 PSP16 XDATA
          CFI StackFrame CFA_XSP16 XSP16 XDATA
          CFI StaticOverlayFrame CFA_IOVERLAY IOVERLAY
          CFI StaticOverlayFrame CFA_DOVERLAY DOVERLAY
          CFI Resource `PSW.CY`:1, `B.BR0`:1, `B.BR1`:1, `B.BR2`:1, `B.BR3`:1
          CFI Resource `B.BR4`:1, `B.BR5`:1, `B.BR6`:1, `B.BR7`:1, `VB.BR8`:1
          CFI Resource `VB.BR9`:1, `VB.BR10`:1, `VB.BR11`:1, `VB.BR12`:1
          CFI Resource `VB.BR13`:1, `VB.BR14`:1, `VB.BR15`:1, VB:8, B:8, A:8
          CFI Resource PSW:8, DPL0:8, DPH0:8, R0:8, R1:8, R2:8, R3:8, R4:8, R5:8
          CFI Resource R6:8, R7:8, V0:8, V1:8, V2:8, V3:8, V4:8, V5:8, V6:8, V7:8
          CFI Resource V8:8, V9:8, V10:8, V11:8, V12:8, V13:8, V14:8, V15:8, SP:8
          CFI Resource PSPH:8, PSPL:8, PSP16:16, XSPH:8, XSPL:8, XSP16:16
          CFI VirtualResource ?RET:24
          CFI Resource ?BRET_EXT:8
          CFI VirtualResource ?RET_HIGH:8, ?RET_LOW:8
          CFI ResourceParts PSP16 PSPH, PSPL
          CFI ResourceParts XSP16 XSPH, XSPL
          CFI ResourceParts ?RET ?BRET_EXT, ?RET_HIGH, ?RET_LOW
          CFI EndNames cfiNames0
        
          CFI Common cfiCommon0 Using cfiNames0
          CFI CodeAlign 1
          CFI DataAlign -1
          CFI ReturnAddress ?RET CODE
          CFI CFA_DOVERLAY Used
          CFI CFA_IOVERLAY Used
          CFI CFA_SP SP+-3
          CFI CFA_PSP16 PSP16+0
          CFI CFA_XSP16 XSP16+0
          CFI `PSW.CY` SameValue
          CFI `B.BR0` SameValue
          CFI `B.BR1` SameValue
          CFI `B.BR2` SameValue
          CFI `B.BR3` SameValue
          CFI `B.BR4` SameValue
          CFI `B.BR5` SameValue
          CFI `B.BR6` SameValue
          CFI `B.BR7` SameValue
          CFI `VB.BR8` SameValue
          CFI `VB.BR9` SameValue
          CFI `VB.BR10` SameValue
          CFI `VB.BR11` SameValue
          CFI `VB.BR12` SameValue
          CFI `VB.BR13` SameValue
          CFI `VB.BR14` SameValue
          CFI `VB.BR15` SameValue
          CFI VB SameValue
          CFI B Undefined
          CFI A Undefined
          CFI PSW SameValue
          CFI DPL0 SameValue
          CFI DPH0 SameValue
          CFI R0 Undefined
          CFI R1 Undefined
          CFI R2 Undefined
          CFI R3 Undefined
          CFI R4 Undefined
          CFI R5 Undefined
          CFI R6 SameValue
          CFI R7 SameValue
          CFI V0 SameValue
          CFI V1 SameValue
          CFI V2 SameValue
          CFI V3 SameValue
          CFI V4 SameValue
          CFI V5 SameValue
          CFI V6 SameValue
          CFI V7 SameValue
          CFI V8 SameValue
          CFI V9 SameValue
          CFI V10 SameValue
          CFI V11 SameValue
          CFI V12 SameValue
          CFI V13 SameValue
          CFI V14 SameValue
          CFI V15 SameValue
          CFI PSPH Undefined
          CFI PSPL Undefined
          CFI XSPH Undefined
          CFI XSPL Undefined
          CFI ?RET Concat
          CFI ?BRET_EXT Frame(CFA_SP, 3)
          CFI ?RET_HIGH Frame(CFA_SP, 2)
          CFI ?RET_LOW Frame(CFA_SP, 1)
          CFI EndCommon cfiCommon0
        
        
          CFI Common cfiCommon1 Using cfiNames0
          CFI CodeAlign 1
          CFI DataAlign -1
          CFI ReturnAddress ?RET CODE
          CFI CFA_DOVERLAY Used
          CFI CFA_IOVERLAY Used
          CFI CFA_SP SP+-2
          CFI CFA_PSP16 PSP16+0
          CFI CFA_XSP16 XSP16+0
          CFI `PSW.CY` SameValue
          CFI `B.BR0` SameValue
          CFI `B.BR1` SameValue
          CFI `B.BR2` SameValue
          CFI `B.BR3` SameValue
          CFI `B.BR4` SameValue
          CFI `B.BR5` SameValue
          CFI `B.BR6` SameValue
          CFI `B.BR7` SameValue
          CFI `VB.BR8` SameValue
          CFI `VB.BR9` SameValue
          CFI `VB.BR10` SameValue
          CFI `VB.BR11` SameValue
          CFI `VB.BR12` SameValue
          CFI `VB.BR13` SameValue
          CFI `VB.BR14` SameValue
          CFI `VB.BR15` SameValue
          CFI VB SameValue
          CFI B SameValue
          CFI A SameValue
          CFI PSW SameValue
          CFI DPL0 SameValue
          CFI DPH0 SameValue
          CFI R0 SameValue
          CFI R1 SameValue
          CFI R2 SameValue
          CFI R3 SameValue
          CFI R4 SameValue
          CFI R5 SameValue
          CFI R6 SameValue
          CFI R7 SameValue
          CFI V0 SameValue
          CFI V1 SameValue
          CFI V2 SameValue
          CFI V3 SameValue
          CFI V4 SameValue
          CFI V5 SameValue
          CFI V6 SameValue
          CFI V7 SameValue
          CFI V8 SameValue
          CFI V9 SameValue
          CFI V10 SameValue
          CFI V11 SameValue
          CFI V12 SameValue
          CFI V13 SameValue
          CFI V14 SameValue
          CFI V15 SameValue
          CFI PSPH Undefined
          CFI PSPL Undefined
          CFI XSPH Undefined
          CFI XSPL Undefined
          CFI ?RET Concat
          CFI ?BRET_EXT SameValue
          CFI ?RET_HIGH Frame(CFA_SP, 2)
          CFI ?RET_LOW Frame(CFA_SP, 1)
          CFI EndCommon cfiCommon1
        
AF_DataRequest      SYMBOL "AF_DataRequest"
??AF_DataRequest?relay SYMBOL "?relay", AF_DataRequest
HalUARTOpen         SYMBOL "HalUARTOpen"
??HalUARTOpen?relay SYMBOL "?relay", HalUARTOpen
HalUARTWrite        SYMBOL "HalUARTWrite"
??HalUARTWrite?relay SYMBOL "?relay", HalUARTWrite
MT_UartAppFlowControl SYMBOL "MT_UartAppFlowControl"
??MT_UartAppFlowControl?relay SYMBOL "?relay", MT_UartAppFlowControl
MT_UartRegisterTaskID SYMBOL "MT_UartRegisterTaskID"
??MT_UartRegisterTaskID?relay SYMBOL "?relay", MT_UartRegisterTaskID
NLME_GetShortAddr   SYMBOL "NLME_GetShortAddr"
??NLME_GetShortAddr?relay SYMBOL "?relay", NLME_GetShortAddr
RegisterForKeys     SYMBOL "RegisterForKeys"
??RegisterForKeys?relay SYMBOL "?relay", RegisterForKeys
afRegister          SYMBOL "afRegister"
??afRegister?relay  SYMBOL "?relay", afRegister
osal_memcpy         SYMBOL "osal_memcpy"
??osal_memcpy?relay SYMBOL "?relay", osal_memcpy
osal_msg_deallocate SYMBOL "osal_msg_deallocate"
??osal_msg_deallocate?relay SYMBOL "?relay", osal_msg_deallocate
osal_msg_receive    SYMBOL "osal_msg_receive"
??osal_msg_receive?relay SYMBOL "?relay", osal_msg_receive
osal_start_timerEx  SYMBOL "osal_start_timerEx"
??osal_start_timerEx?relay SYMBOL "?relay", osal_start_timerEx
Delays              SYMBOL "Delays"
??Delays?relay      SYMBOL "?relay", Delays
GenericApp_Init     SYMBOL "GenericApp_Init"
??GenericApp_Init?relay SYMBOL "?relay", GenericApp_Init
GenericApp_MessageMSGCB SYMBOL "GenericApp_MessageMSGCB"
??GenericApp_MessageMSGCB?relay SYMBOL "?relay", GenericApp_MessageMSGCB
GenericApp_ProcessEvent SYMBOL "GenericApp_ProcessEvent"
??GenericApp_ProcessEvent?relay SYMBOL "?relay", GenericApp_ProcessEvent
GenericApp_SPI      SYMBOL "GenericApp_SPI"
??GenericApp_SPI?relay SYMBOL "?relay", GenericApp_SPI
GenericApp_SendTheMessage SYMBOL "GenericApp_SendTheMessage"
??GenericApp_SendTheMessage?relay SYMBOL "?relay", GenericApp_SendTheMessage
GenericApp_UART1    SYMBOL "GenericApp_UART1"
??GenericApp_UART1?relay SYMBOL "?relay", GenericApp_UART1
hextoword1          SYMBOL "hextoword1"
??hextoword1?relay  SYMBOL "?relay", hextoword1
hextoword2          SYMBOL "hextoword2"
??hextoword2?relay  SYMBOL "?relay", hextoword2
initUARTSEND        SYMBOL "initUARTSEND"
??initUARTSEND?relay SYMBOL "?relay", initUARTSEND

        EXTERN ??AF_DataRequest?relay
        FUNCTION ??AF_DataRequest?relay,00H
        EXTERN ??HalUARTOpen?relay
        FUNCTION ??HalUARTOpen?relay,00H
        EXTERN ??HalUARTWrite?relay
        FUNCTION ??HalUARTWrite?relay,00H
        EXTERN ??MT_UartAppFlowControl?relay
        FUNCTION ??MT_UartAppFlowControl?relay,00H
        EXTERN ??MT_UartRegisterTaskID?relay
        FUNCTION ??MT_UartRegisterTaskID?relay,00H
        EXTERN ??NLME_GetShortAddr?relay
        FUNCTION ??NLME_GetShortAddr?relay,00H
        EXTERN ??RegisterForKeys?relay
        FUNCTION ??RegisterForKeys?relay,00H
        EXTERN ??afRegister?relay
        FUNCTION ??afRegister?relay,00H
        EXTERN ??osal_memcpy?relay
        FUNCTION ??osal_memcpy?relay,00H
        EXTERN ??osal_msg_deallocate?relay
        FUNCTION ??osal_msg_deallocate?relay,00H
        EXTERN ??osal_msg_receive?relay
        FUNCTION ??osal_msg_receive?relay,00H
        EXTERN ??osal_start_timerEx?relay
        FUNCTION ??osal_start_timerEx?relay,00H
        EXTERN AF_DataRequest
        FUNCTION AF_DataRequest,0202H
        ARGFRAME ISTACK, 0, STACK
        ARGFRAME PSTACK, 0, STACK
        ARGFRAME XSTACK, 31, STACK
        ARGFRAME IOVERLAY, 0, STATIC
        ARGFRAME DOVERLAY, 0, STATIC
        EXTERN HalUARTOpen
        FUNCTION HalUARTOpen,0202H
        ARGFRAME ISTACK, 0, STACK
        ARGFRAME PSTACK, 0, STACK
        ARGFRAME XSTACK, 38, STACK
        ARGFRAME IOVERLAY, 0, STATIC
        ARGFRAME DOVERLAY, 0, STATIC
        EXTERN HalUARTWrite
        FUNCTION HalUARTWrite,0202H
        ARGFRAME ISTACK, 2, STACK
        ARGFRAME PSTACK, 0, STACK
        ARGFRAME XSTACK, 40, STACK
        ARGFRAME IOVERLAY, 0, STATIC
        ARGFRAME DOVERLAY, 0, STATIC
        EXTERN MT_UartAppFlowControl
        FUNCTION MT_UartAppFlowControl,0202H
        ARGFRAME ISTACK, 2, STACK
        ARGFRAME PSTACK, 0, STACK
        ARGFRAME XSTACK, 0, STACK
        ARGFRAME IOVERLAY, 0, STATIC
        ARGFRAME DOVERLAY, 0, STATIC
        EXTERN MT_UartRegisterTaskID
        FUNCTION MT_UartRegisterTaskID,0202H
        ARGFRAME ISTACK, 0, STACK
        ARGFRAME PSTACK, 0, STACK
        ARGFRAME XSTACK, 38, STACK
        ARGFRAME IOVERLAY, 0, STATIC
        ARGFRAME DOVERLAY, 0, STATIC
        EXTERN NLME_GetShortAddr
        FUNCTION NLME_GetShortAddr,0202H
        ARGFRAME ISTACK, 0, STACK
        ARGFRAME PSTACK, 0, STACK
        ARGFRAME XSTACK, 10, STACK
        ARGFRAME IOVERLAY, 0, STATIC
        ARGFRAME DOVERLAY, 0, STATIC
        EXTERN RegisterForKeys
        FUNCTION RegisterForKeys,0202H
        ARGFRAME ISTACK, 0, STACK
        ARGFRAME PSTACK, 0, STACK
        ARGFRAME XSTACK, 38, STACK
        ARGFRAME IOVERLAY, 0, STATIC
        ARGFRAME DOVERLAY, 0, STATIC
        EXTERN afRegister
        FUNCTION afRegister,0202H
        ARGFRAME ISTACK, 0, STACK
        ARGFRAME PSTACK, 0, STACK
        ARGFRAME XSTACK, 38, STACK
        ARGFRAME IOVERLAY, 0, STATIC
        ARGFRAME DOVERLAY, 0, STATIC
        EXTERN osal_memcpy
        FUNCTION osal_memcpy,0202H
        ARGFRAME ISTACK, 0, STACK
        ARGFRAME PSTACK, 0, STACK
        ARGFRAME XSTACK, 43, STACK
        ARGFRAME IOVERLAY, 0, STATIC
        ARGFRAME DOVERLAY, 0, STATIC
        EXTERN osal_msg_deallocate
        FUNCTION osal_msg_deallocate,0202H
        ARGFRAME ISTACK, 0, STACK
        ARGFRAME PSTACK, 0, STACK
        ARGFRAME XSTACK, 12, STACK
        ARGFRAME IOVERLAY, 0, STATIC
        ARGFRAME DOVERLAY, 0, STATIC
        EXTERN osal_msg_receive
        FUNCTION osal_msg_receive,0202H
        ARGFRAME ISTACK, 0, STACK
        ARGFRAME PSTACK, 0, STACK
        ARGFRAME XSTACK, 12, STACK
        ARGFRAME IOVERLAY, 0, STATIC
        ARGFRAME DOVERLAY, 0, STATIC
        EXTERN osal_start_timerEx
        FUNCTION osal_start_timerEx,0202H
        ARGFRAME ISTACK, 0, STACK
        ARGFRAME PSTACK, 0, STACK
        ARGFRAME XSTACK, 12, STACK
        ARGFRAME IOVERLAY, 0, STATIC
        ARGFRAME DOVERLAY, 0, STATIC

// E:\Lib\micro-electromechanical\时延\ZStack-CC2530-2.5.1a\Projects\zstack\Samples\00协调节点\Source\GenericApp.c
//    1 /******************************************************************************
//    2   Filename:       GenericApp.c
//    3   Revised:        $Date: 2012-03-07 01:04:58 -0800 (Wed, 07 Mar 2012) $
//    4   Revision:       $Revision: 29656 $
//    5 
//    6   Description:    Generic Application (no Profile).
//    7 
//    8 
//    9   Copyright 2004-2012 Texas Instruments Incorporated. All rights reserved.
//   10 
//   11   IMPORTANT: Your use of this Software is limited to those specific rights
//   12   granted under the terms of a software license agreement between the user
//   13   who downloaded the software, his/her employer (which must be your employer)
//   14   and Texas Instruments Incorporated (the "License"). You may not use this
//   15   Software unless you agree to abide by the terms of the License. The License
//   16   limits your use, and you acknowledge, that the Software may not be modified,
//   17   copied or distributed unless embedded on a Texas Instruments microcontroller
//   18   or used solely and exclusively in conjunction with a Texas Instruments radio
//   19   frequency transceiver, which is integrated into your product. Other than for
//   20   the foregoing purpose, you may not use, reproduce, copy, prepare derivative
//   21   works of, modify, distribute, perform, display or sell this Software and/or
//   22   its documentation for any purpose.
//   23 
//   24   YOU FURTHER ACKNOWLEDGE AND AGREE THAT THE SOFTWARE AND DOCUMENTATION ARE
//   25   PROVIDED AS IS?WITHOUT WARRANTY OF ANY KIND, EITHER EXPRESS OR IMPLIED,
//   26   INCLUDING WITHOUT LIMITATION, ANY WARRANTY OF MERCHANTABILITY, TITLE,
//   27   NON-INFRINGEMENT AND FITNESS FOR A PARTICULAR PURPOSE. IN NO EVENT SHALL
//   28   TEXAS INSTRUMENTS OR ITS LICENSORS BE LIABLE OR OBLIGATED UNDER CONTRACT,
//   29   NEGLIGENCE, STRICT LIABILITY, CONTRIBUTION, BREACH OF WARRANTY, OR OTHER
//   30   LEGAL EQUITABLE THEORY ANY DIRECT OR INDIRECT DAMAGES OR EXPENSES
//   31   INCLUDING BUT NOT LIMITED TO ANY INCIDENTAL, SPECIAL, INDIRECT, PUNITIVE
//   32   OR CONSEQUENTIAL DAMAGES, LOST PROFITS OR LOST DATA, COST OF PROCUREMENT
//   33   OF SUBSTITUTE GOODS, TECHNOLOGY, SERVICES, OR ANY CLAIMS BY THIRD PARTIES
//   34   (INCLUDING BUT NOT LIMITED TO ANY DEFENSE THEREOF), OR OTHER SIMILAR COSTS.
//   35 
//   36   Should you have any questions regarding your right to use this Software,
//   37   contact Texas Instruments Incorporated at www.TI.com.
//   38 ******************************************************************************/
//   39 
//   40 /*********************************************************************
//   41   This application isn't intended to do anything useful, it is
//   42   intended to be a simple example of an application's structure.
//   43 
//   44   This application sends "Hello World" to another "Generic"
//   45   application every 5 seconds.  The application will also
//   46   receives "Hello World" packets.
//   47 
//   48   The "Hello World" messages are sent/received as MSG type message.
//   49 
//   50   This applications doesn't have a profile, so it handles everything
//   51   directly - itself.
//   52 
//   53   Key control:
//   54     SW1:
//   55     SW2:  initiates end device binding
//   56     SW3:
//   57     SW4:  initiates a match description request
//   58 *********************************************************************/
//   59 
//   60 /*********************************************************************
//   61  * INCLUDES
//   62  */
//   63 #include "OSAL.h"
//   64 #include "AF.h"
//   65 #include "ZDApp.h"
//   66 #include "ZDObject.h"
//   67 #include "ZDProfile.h"
//   68 
//   69 #include "GenericApp.h"
//   70 #include "DebugTrace.h"
//   71 
//   72 #if !defined( WIN32 )
//   73   #include "OnBoard.h"

        ASEGN SFR_AN:DATA:NOROOT,086H
// unsigned char volatile __sfr U0CSR
U0CSR:
        DATA8
        DS 1

        ASEGN SFR_AN:DATA:NOROOT,090H
// union <unnamed> volatile __sfr _A_P1
_A_P1:
        DATA8
        DS 1

        ASEGN SFR_AN:DATA:NOROOT,09eH
// unsigned char volatile __sfr CLKCONSTA
CLKCONSTA:
        DATA8
        DS 1

        ASEGN SFR_AN:DATA:NOROOT,0c2H
// unsigned char volatile __sfr U0BAUD
U0BAUD:
        DATA8
        DS 1

        ASEGN SFR_AN:DATA:NOROOT,0c5H
// unsigned char volatile __sfr U0GCR
U0GCR:
        DATA8
        DS 1

        ASEGN SFR_AN:DATA:NOROOT,0c6H
// unsigned char volatile __sfr CLKCONCMD
CLKCONCMD:
        DATA8
        DS 1

        ASEGN SFR_AN:DATA:NOROOT,0e8H
// union <unnamed> volatile __sfr _A_IRCON2
_A_IRCON2:
        DATA8
        DS 1

        ASEGN SFR_AN:DATA:NOROOT,0f1H
// unsigned char volatile __sfr PERCFG
PERCFG:
        DATA8
        DS 1

        ASEGN SFR_AN:DATA:NOROOT,0f3H
// unsigned char volatile __sfr P0SEL
P0SEL:
        DATA8
        DS 1
//   74 #endif
//   75  
//   76 #include "hal_uart.h"
//   77 /* HAL */
//   78 #include "hal_lcd.h"
//   79 #include "hal_led.h"
//   80 #include "hal_key.h"
//   81 #include "hal_uart.h"
//   82 
//   83 /* RTOS */
//   84 #if defined( IAR_ARMCM3_LM )
//   85 #include "RTOS_App.h"
//   86 #endif  
//   87 
//   88 #include<string.h>
//   89 #include "MT_UART.h"
//   90 /*********************************************************************
//   91  * MACROS
//   92  */
//   93 
//   94 /*********************************************************************
//   95  * CONSTANTS
//   96  */
//   97 
//   98 /*********************************************************************
//   99  * TYPEDEFS
//  100  */
//  101 
//  102 /*********************************************************************
//  103  * GLOBAL VARIABLES
//  104  */
//  105 #define ADC_REF_AVDD5 0x80
//  106 #define ADC_REF_125_V 0x00
//  107 #define ADC_14_BIT 0x30
//  108 #define ADC_AIN1_SENS 0x07
//  109 #define ADC_TEMP_SENS 0x0E

        RSEG XDATA_Z:XDATA:NOROOT(0)
        DATA8
//  110  devStates_t GenericApp_NwkState;
GenericApp_NwkState:
        DS 1
        REQUIRE __INIT_XDATA_Z

        RSEG XDATA_I:XDATA:NOROOT(0)
//  111 char temp1='a';
temp1:
        DATA8
        DS 1
        REQUIRE `?<Initializer for temp1>`
        REQUIRE __INIT_XDATA_I

        RSEG XDATA_I:XDATA:NOROOT(0)
//  112 char temp2='a';
temp2:
        DATA8
        DS 1
        REQUIRE `?<Initializer for temp2>`
        REQUIRE __INIT_XDATA_I

        RSEG XDATA_I:XDATA:NOROOT(0)
//  113 char temp3 = 'a';
temp3:
        DATA8
        DS 1
        REQUIRE `?<Initializer for temp3>`
        REQUIRE __INIT_XDATA_I

        RSEG XDATA_I:XDATA:NOROOT(0)
//  114 char temp4 = 'a';
temp4:
        DATA8
        DS 1
        REQUIRE `?<Initializer for temp4>`
        REQUIRE __INIT_XDATA_I

        RSEG XDATA_I:XDATA:NOROOT(0)
//  115 char temp5 = 'a';
temp5:
        DATA8
        DS 1
        REQUIRE `?<Initializer for temp5>`
        REQUIRE __INIT_XDATA_I

        RSEG XDATA_Z:XDATA:NOROOT(0)
        DATA16
//  116 int flag1 = 0;
flag1:
        DS 2
        REQUIRE __INIT_XDATA_Z

        RSEG XDATA_Z:XDATA:NOROOT(0)
        DATA16
//  117 int flag2 = 0;
flag2:
        DS 2
        REQUIRE __INIT_XDATA_Z
//  118 // This list should be filled with Application specific Cluster IDs.

        RSEG XDATA_ROM_C:CONST:REORDER:NOROOT(0)
        DATA8
//  119 const cId_t GenericApp_ClusterList[GENERICAPP_MAX_CLUSTERS] =
GenericApp_ClusterList:
        DATA16
        DW 1
        DW 7
        DW 6
        DW 8
        DW 5
        DW 4
        DW 2
        DW 0
//  120 {
//  121   GENERICAPP_CLUSTERID_TEMHUM,
//  122   GENERICAPP_CLUSTERID_LINGHT,
//  123   GENERICAPP_CLUSTERID_SOUND,
//  124   GENERICAPP_CLUSTERID_POSTURE,
//  125   GENERICAPP_CLUSTERID_DISTANCE,
//  126   GENERICAPP_CLUSTERID_GPS,
//  127   GENERICAPP_CLUSTERID_GAS
//  128 };
//  129 

        RSEG XDATA_ROM_C:CONST:REORDER:NOROOT(0)
        DATA8
//  130 const SimpleDescriptionFormat_t GenericApp_SimpleDesc =
GenericApp_SimpleDesc:
        DB 10
        DATA16
        DW 3844
        DW 1
        DATA8
        DB 0
        DB 8
        DATA16
        DW GenericApp_ClusterList
        DATA8
        DB 0
        DATA16
        DW 0H
//  131 {
//  132   GENERICAPP_ENDPOINT,              //  int Endpoint;
//  133   GENERICAPP_PROFID,                //  uint16 AppProfId[2];
//  134   GENERICAPP_DEVICEID,              //  uint16 AppDeviceId[2];
//  135   GENERICAPP_DEVICE_VERSION,        //  int   AppDevVer:4;
//  136   GENERICAPP_FLAGS,                 //  int   AppFlags:4;
//  137   GENERICAPP_MAX_CLUSTERS,          //  byte  AppNumInClusters;
//  138   (cId_t *)GenericApp_ClusterList,  //  byte *pAppInClusterList;
//  139   0,          //  byte  AppNumInClusters;
//  140   (cId_t *)NULL   //  byte *pAppInClusterList;
//  141 };
//  142 
//  143 // This is the Endpoint/Interface description.  It is defined here, but
//  144 // filled-in in GenericApp_Init().  Another way to go would be to fill
//  145 // in the structure here and make it a "const" (in code space).  The
//  146 // way it's defined in this sample app it is define in RAM.

        RSEG XDATA_Z:XDATA:NOROOT(0)
        DATA8
//  147 endPointDesc_t GenericApp_epDesc;
GenericApp_epDesc:
        DS 6
        REQUIRE __INIT_XDATA_Z

        RSEG XDATA_Z:XDATA:NOROOT(0)
        DATA8
//  148 byte GenericApp_TaskID;
GenericApp_TaskID:
        DS 1
        REQUIRE __INIT_XDATA_Z

        RSEG XDATA_Z:XDATA:NOROOT(0)
        DATA8
//  149 byte GenericApp_TransID;
GenericApp_TransID:
        DS 1
        REQUIRE __INIT_XDATA_Z
//  150 void GenericApp_MessageMSGCB(afIncomingMSGPacket_t *pkt);
//  151 void GenericApp_SendTheMessage(unsigned char *theMessageData);
//  152 
//  153 //uint8 * GetShortAddr(void);
//  154 uint8 hextoword1(uint8 t);
//  155 uint8 hextoword2(uint8 t);
//  156 void GenericApp_SPI(void);
//  157 void GenericApp_UART1(afIncomingMSGPacket_t *pkt);
//  158 
//  159 #if defined( IAR_ARMCM3_LM )
//  160 //static void GenericApp_ProcessRtosMessage( void );
//  161 #endif
//  162 
//  163 /*********************************************************************
//  164  * NETWORK LAYER CALLBACKS
//  165  */
//  166 
//  167 /*********************************************************************
//  168  * PUBLIC FUNCTIONS
//  169  */

        RSEG XDATA_Z:XDATA:NOROOT(0)
        DATA16
//  170 unsigned int  AdcValue;
AdcValue:
        DS 2
        REQUIRE __INIT_XDATA_Z

        RSEG XDATA_Z:XDATA:NOROOT(0)
        DATA16
//  171 unsigned int  value;
value:
        DS 2
        REQUIRE __INIT_XDATA_Z

        RSEG XDATA_Z:XDATA:NOROOT(0)
        DATA16
//  172 unsigned int ADCValue;
ADCValue:
        DS 2
        REQUIRE __INIT_XDATA_Z

        RSEG XDATA_Z:XDATA:NOROOT(0)
        DATA8
//  173 unsigned char ADCV[]="";
ADCV:
        DS 1
        REQUIRE __INIT_XDATA_Z

        RSEG BANKED_CODE:CODE:NOROOT(0)
//  174 void Delays(void) {
Delays:
          CFI Block cfiBlock0 Using cfiCommon0
          CFI Function Delays
        CODE
        ; Saved register size: 0
        ; Auto size: 0
//  175   unsigned int itemp;
//  176   for(itemp=0;itemp<500;itemp++) {
        MOV     R0,#-0xc
        MOV     R1,#0x1
//  177     asm("nop");
??Delays_0:
        nop
//  178   }
        MOV     A,R0
        ADD     A,#-0x1
        DEC     R0
        MOV     A,R1
        ADDC    A,#-0x1
        MOV     R1,A
        MOV     A,R0
        ORL     A,R1
        JNZ     ??Delays_0
//  179 }
        LJMP    ?BRET
          CFI EndBlock cfiBlock0

        RSEG BANKED_CODE:CODE:NOROOT(0)
//  180 void initUARTSEND(void)
initUARTSEND:
          CFI Block cfiBlock1 Using cfiCommon0
          CFI Function initUARTSEND
        CODE
//  181 {
        ; Saved register size: 0
        ; Auto size: 0
//  182 
//  183    /* CLKCONCMD &= ~0x40;                          //设置系统时钟源为32MHZ晶振
//  184     while(CLKCONSTA & 0x40);                     //等待晶振稳定
//  185     CLKCONCMD &= ~0x47;                          //设置系统主时钟频率为32MHZ
//  186    
//  187   
//  188     //PERCFG  Peripheral-control register
//  189     PERCFG = 0x00;				//位置1 P0口
//  190     //POSEL Port0 function-select register
//  191     P0SEL = 0x3c;				//P0_2,P0_3,P0_4,P0_5用作串口
//  192     P2DIR &= ~0X80;                             //P0优先作为UART1
//  193 
//  194     U1CSR |= 0x80;				//UART方式
//  195     U1GCR |= 8;				       
//  196     U1BAUD |= 59;				//波特率设为9600
//  197     UTX1IF = 0;                                 //UART1 TX中断标志初始置位0
//  198 */
//  199 
//  200     //SLEEPCMD&= ~0X04;
//  201    // CLKCONCMD = 0X10;                           //选择32KHz晶体振荡器,32MHz晶体振荡器,定时器tick输出8MHz
//  202    // while(CLKCONSTA!=0X10);                    //晶振是否稳定
//  203    // SLEEPCMD = 0X04;    
//  204 
//  205     CLKCONCMD &= ~0x40;                          //设置系统时钟源为32MHZ晶振
        ANL     0xc6,#0xbf
//  206     while(CLKCONSTA & 0x40);                     //等待晶振稳定
??initUARTSEND_0:
        MOV     A,0x9e
        MOV     C,0xE0 /* A   */.6
        JC      ??initUARTSEND_0
//  207     CLKCONCMD &= ~0x47; 
        ANL     0xc6,#0xb8
//  208     
//  209     PERCFG = 0x00;				//位置1 P0口
        MOV     0xf1,#0x0
//  210     P0SEL = 0x3c;				//P0用作串口
        MOV     0xf3,#0x3c
//  211     //P2DIR &= ~0XC0;                             //P0优先作为串口0
//  212 
//  213     U0CSR |= 0x80;				//UART方式
        ORL     0x86,#0x80
//  214     U0GCR |= 8;				        //baud_e
        ORL     0xc5,#0x8
//  215     U0BAUD |= 59;				//波特率设为9600
        ORL     0xc2,#0x3b
//  216     UTX0IF = 0;                                 //UART1 TX中断标志初始置位0
        CLR     0xe8.1
//  217 
//  218 
//  219 }
        LJMP    ?BRET
          CFI EndBlock cfiBlock1
        REQUIRE CLKCONCMD
        REQUIRE CLKCONSTA
        REQUIRE PERCFG
        REQUIRE P0SEL
        REQUIRE U0CSR
        REQUIRE U0GCR
        REQUIRE U0BAUD
        REQUIRE _A_IRCON2
//  220 
//  221 
//  222 /*static void rxCB(uint8 port,uint8 event)
//  223 {
//  224 unsigned  char LED[4];
//  225 unsigned char len;
//  226 
//  227   len = HalUARTRead(1, LED, 2);
//  228   if(!len)
//  229     return;
//  230  
//  231   if((LED[0] - '1') == 0x00)
//  232   {
//  233     P1_0=~P1_0;
//  234     GenericApp_SendTheMessage(LED);
//  235   }   
//  236   if((LED[0] - '2') == 0x00)
//  237   {
//  238     P1_0=~P1_0;
//  239     GenericApp_SendTheMessage(LED);
//  240   }    
//  241 }*/
//  242 /*********************************************************************
//  243  * @fn      GenericApp_Init
//  244  *
//  245  * @brief   Initialization function for the Generic App Task.
//  246  *          This is called during initialization and should contain
//  247  *          any application specific initialization (ie. hardware
//  248  *          initialization/setup, table initialization, power up
//  249  *          notificaiton ... ).
//  250  *
//  251  * @param   task_id - the ID assigned by OSAL.  This ID should be
//  252  *                    used to send messages and set timers.
//  253  *
//  254  * @return  none
//  255  */

        RSEG BANKED_CODE:CODE:NOROOT(0)
//  256 void GenericApp_Init( byte task_id )
GenericApp_Init:
          CFI Block cfiBlock2 Using cfiCommon0
          CFI Function GenericApp_Init
        CODE
//  257 {
        FUNCALL GenericApp_Init, initUARTSEND
        LOCFRAME ISTACK, 0, STACK
        LOCFRAME PSTACK, 0, STACK
        LOCFRAME XSTACK, 38, STACK
        LOCFRAME IOVERLAY, 0, STATIC
        LOCFRAME DOVERLAY, 0, STATIC
        ARGFRAME ISTACK, 0, STACK
        ARGFRAME PSTACK, 0, STACK
        ARGFRAME XSTACK, 38, STACK
        ARGFRAME IOVERLAY, 0, STATIC
        ARGFRAME DOVERLAY, 0, STATIC
        FUNCALL GenericApp_Init, afRegister
        LOCFRAME ISTACK, 0, STACK
        LOCFRAME PSTACK, 0, STACK
        LOCFRAME XSTACK, 38, STACK
        LOCFRAME IOVERLAY, 0, STATIC
        LOCFRAME DOVERLAY, 0, STATIC
        ARGFRAME ISTACK, 0, STACK
        ARGFRAME PSTACK, 0, STACK
        ARGFRAME XSTACK, 38, STACK
        ARGFRAME IOVERLAY, 0, STATIC
        ARGFRAME DOVERLAY, 0, STATIC
        FUNCALL GenericApp_Init, RegisterForKeys
        LOCFRAME ISTACK, 0, STACK
        LOCFRAME PSTACK, 0, STACK
        LOCFRAME XSTACK, 38, STACK
        LOCFRAME IOVERLAY, 0, STATIC
        LOCFRAME DOVERLAY, 0, STATIC
        ARGFRAME ISTACK, 0, STACK
        ARGFRAME PSTACK, 0, STACK
        ARGFRAME XSTACK, 38, STACK
        ARGFRAME IOVERLAY, 0, STATIC
        ARGFRAME DOVERLAY, 0, STATIC
        FUNCALL GenericApp_Init, MT_UartRegisterTaskID
        LOCFRAME ISTACK, 0, STACK
        LOCFRAME PSTACK, 0, STACK
        LOCFRAME XSTACK, 38, STACK
        LOCFRAME IOVERLAY, 0, STATIC
        LOCFRAME DOVERLAY, 0, STATIC
        ARGFRAME ISTACK, 0, STACK
        ARGFRAME PSTACK, 0, STACK
        ARGFRAME XSTACK, 38, STACK
        ARGFRAME IOVERLAY, 0, STATIC
        ARGFRAME DOVERLAY, 0, STATIC
        FUNCALL GenericApp_Init, HalUARTOpen
        LOCFRAME ISTACK, 0, STACK
        LOCFRAME PSTACK, 0, STACK
        LOCFRAME XSTACK, 38, STACK
        LOCFRAME IOVERLAY, 0, STATIC
        LOCFRAME DOVERLAY, 0, STATIC
        ARGFRAME ISTACK, 0, STACK
        ARGFRAME PSTACK, 0, STACK
        ARGFRAME XSTACK, 38, STACK
        ARGFRAME IOVERLAY, 0, STATIC
        ARGFRAME DOVERLAY, 0, STATIC
        MOV     A,#-0x9
        LCALL   ?BANKED_ENTER_XDATA
          CFI DPH0 load(1, XDATA, add(CFA_XSP16, literal(-1)))
          CFI DPL0 load(1, XDATA, add(CFA_XSP16, literal(-2)))
          CFI ?BRET_EXT load(1, XDATA, add(CFA_XSP16, literal(-3)))
          CFI ?RET_HIGH load(1, XDATA, add(CFA_XSP16, literal(-4)))
          CFI ?RET_LOW load(1, XDATA, add(CFA_XSP16, literal(-5)))
          CFI R7 load(1, XDATA, add(CFA_XSP16, literal(-6)))
          CFI V0 load(1, XDATA, add(CFA_XSP16, literal(-7)))
          CFI VB load(1, XDATA, add(CFA_XSP16, literal(-8)))
          CFI R6 load(1, XDATA, add(CFA_XSP16, literal(-9)))
          CFI CFA_SP SP+0
          CFI CFA_XSP16 add(XSP16, 9)
        ; Saved register size: 9
        ; Auto size: 29
        MOV     A,#-0x1d
        LCALL   ?ALLOC_XSTACK8
          CFI CFA_XSP16 add(XSP16, 38)
        MOV     A,R1
        MOV     R6,A
//  258   halUARTCfg_t uartConfig;
//  259   GenericApp_TaskID = task_id;
        MOV     DPTR,#GenericApp_TaskID
        MOVX    @DPTR,A
//  260   GenericApp_NwkState = DEV_INIT;
        MOV     DPTR,#GenericApp_NwkState
        MOV     A,#0x1
        MOVX    @DPTR,A
//  261   GenericApp_TransID = 0;   
        MOV     DPTR,#GenericApp_TransID
        CLR     A
        MOVX    @DPTR,A
//  262   //MT_UartInit();
//  263   initUARTSEND();
        ; Setup parameters for call to function initUARTSEND
        LCALL   ??initUARTSEND?relay
//  264   
//  265   //HalUARTWrite(1,"Hello World\n",12);
//  266 
//  267   GenericApp_epDesc.endPoint = GENERICAPP_ENDPOINT;
        MOV     DPTR,#GenericApp_epDesc
        MOV     A,#0xa
        MOVX    @DPTR,A
//  268   GenericApp_epDesc.task_id = &GenericApp_TaskID;
        INC     DPTR
        MOV     A,#GenericApp_TaskID & 0xff
        MOVX    @DPTR,A
        INC     DPTR
        MOV     A,#(GenericApp_TaskID >> 8) & 0xff
        MOVX    @DPTR,A
//  269   GenericApp_epDesc.simpleDesc
//  270             = (SimpleDescriptionFormat_t *)&GenericApp_SimpleDesc;
        INC     DPTR
        MOV     A,#GenericApp_SimpleDesc & 0xff
        MOVX    @DPTR,A
        INC     DPTR
        MOV     A,#(GenericApp_SimpleDesc >> 8) & 0xff
        MOVX    @DPTR,A
//  271   GenericApp_epDesc.latencyReq = noLatencyReqs;
        INC     DPTR
        CLR     A
        MOVX    @DPTR,A
//  272   
//  273   
//  274   afRegister( &GenericApp_epDesc );
        ; Setup parameters for call to function afRegister
        MOV     R2,#GenericApp_epDesc & 0xff
        MOV     R3,#(GenericApp_epDesc >> 8) & 0xff
        LCALL   ??afRegister?relay
//  275   RegisterForKeys( GenericApp_TaskID );
        ; Setup parameters for call to function RegisterForKeys
        MOV     DPTR,#GenericApp_TaskID
        MOVX    A,@DPTR
        MOV     R1,A
        LCALL   ??RegisterForKeys?relay
//  276   MT_UartRegisterTaskID(task_id);
        ; Setup parameters for call to function MT_UartRegisterTaskID
        MOV     A,R6
        MOV     R1,A
        LCALL   ??MT_UartRegisterTaskID?relay
//  277   
//  278   uartConfig.configured = TRUE;
        MOV     DPL,?XSP + 0
        MOV     DPH,?XSP + 1
        MOV     A,#0x1
        MOVX    @DPTR,A
//  279   uartConfig.baudRate = HAL_UART_BR_9600;
        LCALL   ?XSTACK_DISP0_8
        CLR     A
        MOVX    @DPTR,A
//  280   uartConfig.flowControl = FALSE;
        MOV     A,#0x2
        LCALL   ?XSTACK_DISP0_8
        CLR     A
        MOVX    @DPTR,A
//  281   uartConfig.callBackFunc = NULL;
        MOV     A,#0x1b
        LCALL   ?XSTACK_DISP0_8
        CLR     A
        MOVX    @DPTR,A
        INC     DPTR
        LCALL   ?Subroutine3 & 0xFFFF
//  282   HalUARTOpen(0,&uartConfig);
??CrossCallReturnLabel_2:
        MOV     R2,DPL
        MOV     R3,DPH
        MOV     R1,A
        LCALL   ??HalUARTOpen?relay
//  283 }
        MOV     A,#0x1d
        LCALL   ?DEALLOC_XSTACK8
          CFI CFA_XSP16 add(XSP16, 9)
        MOV     R7,#0x1
        LJMP    ?BANKED_LEAVE_XDATA
          CFI EndBlock cfiBlock2
//  284 
//  285 /*********************************************************************
//  286  * @fn      GenericApp_ProcessEvent
//  287  *
//  288  * @brief   Generic Application Task event processor.  This function
//  289  *          is called to process all events for the task.  Events
//  290  *          include timers, messages and any other user defined events.
//  291  *
//  292  * @param   task_id  - The OSAL assigned task ID.
//  293  * @param   events - events to process.  This is a bit map and can
//  294  *                   contain more than one event.
//  295  *
//  296  * @return  none
//  297  */

        RSEG BANKED_CODE:CODE:NOROOT(0)
//  298 UINT16 GenericApp_ProcessEvent( byte task_id, UINT16 events )
GenericApp_ProcessEvent:
          CFI Block cfiBlock3 Using cfiCommon0
          CFI Function GenericApp_ProcessEvent
        CODE
//  299 {
        FUNCALL GenericApp_ProcessEvent, osal_msg_receive
        LOCFRAME ISTACK, 0, STACK
        LOCFRAME PSTACK, 0, STACK
        LOCFRAME XSTACK, 12, STACK
        LOCFRAME IOVERLAY, 0, STATIC
        LOCFRAME DOVERLAY, 0, STATIC
        ARGFRAME ISTACK, 0, STACK
        ARGFRAME PSTACK, 0, STACK
        ARGFRAME XSTACK, 12, STACK
        ARGFRAME IOVERLAY, 0, STATIC
        ARGFRAME DOVERLAY, 0, STATIC
        FUNCALL GenericApp_ProcessEvent, GenericApp_UART1
        LOCFRAME ISTACK, 0, STACK
        LOCFRAME PSTACK, 0, STACK
        LOCFRAME XSTACK, 12, STACK
        LOCFRAME IOVERLAY, 0, STATIC
        LOCFRAME DOVERLAY, 0, STATIC
        ARGFRAME ISTACK, 0, STACK
        ARGFRAME PSTACK, 0, STACK
        ARGFRAME XSTACK, 12, STACK
        ARGFRAME IOVERLAY, 0, STATIC
        ARGFRAME DOVERLAY, 0, STATIC
        FUNCALL GenericApp_ProcessEvent, osal_msg_deallocate
        LOCFRAME ISTACK, 0, STACK
        LOCFRAME PSTACK, 0, STACK
        LOCFRAME XSTACK, 12, STACK
        LOCFRAME IOVERLAY, 0, STATIC
        LOCFRAME DOVERLAY, 0, STATIC
        ARGFRAME ISTACK, 0, STACK
        ARGFRAME PSTACK, 0, STACK
        ARGFRAME XSTACK, 12, STACK
        ARGFRAME IOVERLAY, 0, STATIC
        ARGFRAME DOVERLAY, 0, STATIC
        FUNCALL GenericApp_ProcessEvent, osal_msg_receive
        LOCFRAME ISTACK, 0, STACK
        LOCFRAME PSTACK, 0, STACK
        LOCFRAME XSTACK, 12, STACK
        LOCFRAME IOVERLAY, 0, STATIC
        LOCFRAME DOVERLAY, 0, STATIC
        ARGFRAME ISTACK, 0, STACK
        ARGFRAME PSTACK, 0, STACK
        ARGFRAME XSTACK, 12, STACK
        ARGFRAME IOVERLAY, 0, STATIC
        ARGFRAME DOVERLAY, 0, STATIC
        FUNCALL GenericApp_ProcessEvent, GenericApp_MessageMSGCB
        LOCFRAME ISTACK, 0, STACK
        LOCFRAME PSTACK, 0, STACK
        LOCFRAME XSTACK, 12, STACK
        LOCFRAME IOVERLAY, 0, STATIC
        LOCFRAME DOVERLAY, 0, STATIC
        ARGFRAME ISTACK, 0, STACK
        ARGFRAME PSTACK, 0, STACK
        ARGFRAME XSTACK, 12, STACK
        ARGFRAME IOVERLAY, 0, STATIC
        ARGFRAME DOVERLAY, 0, STATIC
        FUNCALL GenericApp_ProcessEvent, GenericApp_SPI
        LOCFRAME ISTACK, 0, STACK
        LOCFRAME PSTACK, 0, STACK
        LOCFRAME XSTACK, 12, STACK
        LOCFRAME IOVERLAY, 0, STATIC
        LOCFRAME DOVERLAY, 0, STATIC
        ARGFRAME ISTACK, 0, STACK
        ARGFRAME PSTACK, 0, STACK
        ARGFRAME XSTACK, 12, STACK
        ARGFRAME IOVERLAY, 0, STATIC
        ARGFRAME DOVERLAY, 0, STATIC
        FUNCALL GenericApp_ProcessEvent, osal_start_timerEx
        LOCFRAME ISTACK, 0, STACK
        LOCFRAME PSTACK, 0, STACK
        LOCFRAME XSTACK, 12, STACK
        LOCFRAME IOVERLAY, 0, STATIC
        LOCFRAME DOVERLAY, 0, STATIC
        ARGFRAME ISTACK, 0, STACK
        ARGFRAME PSTACK, 0, STACK
        ARGFRAME XSTACK, 12, STACK
        ARGFRAME IOVERLAY, 0, STATIC
        ARGFRAME DOVERLAY, 0, STATIC
        MOV     A,#-0xc
        LCALL   ?BANKED_ENTER_XDATA
          CFI DPH0 load(1, XDATA, add(CFA_XSP16, literal(-1)))
          CFI DPL0 load(1, XDATA, add(CFA_XSP16, literal(-2)))
          CFI ?BRET_EXT load(1, XDATA, add(CFA_XSP16, literal(-3)))
          CFI ?RET_HIGH load(1, XDATA, add(CFA_XSP16, literal(-4)))
          CFI ?RET_LOW load(1, XDATA, add(CFA_XSP16, literal(-5)))
          CFI R7 load(1, XDATA, add(CFA_XSP16, literal(-6)))
          CFI V3 load(1, XDATA, add(CFA_XSP16, literal(-7)))
          CFI V2 load(1, XDATA, add(CFA_XSP16, literal(-8)))
          CFI V1 load(1, XDATA, add(CFA_XSP16, literal(-9)))
          CFI V0 load(1, XDATA, add(CFA_XSP16, literal(-10)))
          CFI VB load(1, XDATA, add(CFA_XSP16, literal(-11)))
          CFI R6 load(1, XDATA, add(CFA_XSP16, literal(-12)))
          CFI CFA_SP SP+0
          CFI CFA_XSP16 add(XSP16, 12)
        ; Saved register size: 12
        ; Auto size: 0
        MOV     ?V0 + 0,R2
        MOV     ?V0 + 1,R3
//  300   afIncomingMSGPacket_t *MSGpkt;
//  301 
//  302   if ( events & SYS_EVENT_MSG )
        MOV     A,R3
        ANL     A,#0x80
        JZ      ??GenericApp_ProcessEvent_0
//  303   {
//  304     MSGpkt = (afIncomingMSGPacket_t *)osal_msg_receive( GenericApp_TaskID );
        ; Setup parameters for call to function osal_msg_receive
        SJMP    ??GenericApp_ProcessEvent_1
//  305     while ( MSGpkt )
//  306     {
//  307       switch ( MSGpkt->hdr.event )
//  308       {
//  309         case AF_INCOMING_MSG_CMD:
//  310           GenericApp_MessageMSGCB(MSGpkt);
//  311           break;
//  312         
//  313         case ZDO_STATE_CHANGE:
//  314           GenericApp_NwkState = (devStates_t)(MSGpkt->hdr.status);
//  315           if ( (GenericApp_NwkState == DEV_ZB_COORD)
//  316               || (GenericApp_NwkState == DEV_ROUTER)
//  317               || (GenericApp_NwkState == DEV_END_DEVICE) )
//  318           {
//  319             GenericApp_SPI();
//  320             // Start sending "the" message in a regular interval.
//  321             osal_start_timerEx( GenericApp_TaskID,
//  322                                 GENERICAPP_SEND_MSG_EVT,
//  323                                 1000 );
//  324           }
//  325           break;
//  326           
//  327         case SPI_INCOMING_ZAPP_DATA:
//  328           
//  329           GenericApp_UART1(MSGpkt);
??GenericApp_ProcessEvent_2:
        ; Setup parameters for call to function GenericApp_UART1
        MOV     A,R6
        MOV     R2,A
        MOV     A,R7
        MOV     R3,A
        LCALL   ??GenericApp_UART1?relay
//  330           break;
//  331           default:
//  332           break;
//  333       }
//  334       osal_msg_deallocate( (uint8 *)MSGpkt );
??GenericApp_ProcessEvent_3:
        ; Setup parameters for call to function osal_msg_deallocate
        MOV     A,R6
        MOV     R2,A
        MOV     A,R7
        MOV     R3,A
        LCALL   ??osal_msg_deallocate?relay
//  335       MSGpkt = (afIncomingMSGPacket_t *)osal_msg_receive( GenericApp_TaskID );
        ; Setup parameters for call to function osal_msg_receive
??GenericApp_ProcessEvent_1:
        MOV     DPTR,#GenericApp_TaskID
        MOVX    A,@DPTR
        MOV     R1,A
        LCALL   ??osal_msg_receive?relay
        MOV     ?V0 + 2,R2
        MOV     ?V0 + 3,R3
        MOV     R6,?V0 + 2
        MOV     R7,?V0 + 3
        MOV     A,R6
        ORL     A,R7
        JZ      ??GenericApp_ProcessEvent_4
        MOV     DPL,R6
        MOV     DPH,R7
        MOVX    A,@DPTR
        ADD     A,#-0x1a
        JZ      ??GenericApp_ProcessEvent_5
        ADD     A,#-0x8
        JZ      ??GenericApp_ProcessEvent_2
        ADD     A,#0x51
        JZ      ??GenericApp_ProcessEvent_6
        SJMP    ??GenericApp_ProcessEvent_3
??GenericApp_ProcessEvent_5:
        ; Setup parameters for call to function GenericApp_MessageMSGCB
        MOV     A,R6
        MOV     R2,A
        MOV     A,R7
        MOV     R3,A
        LCALL   ??GenericApp_MessageMSGCB?relay
        SJMP    ??GenericApp_ProcessEvent_3
??GenericApp_ProcessEvent_6:
        INC     DPTR
        MOVX    A,@DPTR
        MOV     DPTR,#GenericApp_NwkState
        MOVX    @DPTR,A
        XRL     A,#0x9
        JZ      ??GenericApp_ProcessEvent_7
        MOVX    A,@DPTR
        XRL     A,#0x7
        JZ      ??GenericApp_ProcessEvent_7
        MOVX    A,@DPTR
        XRL     A,#0x6
        JNZ     ??GenericApp_ProcessEvent_3
??GenericApp_ProcessEvent_7:
        ; Setup parameters for call to function GenericApp_SPI
        LCALL   ??GenericApp_SPI?relay
        ; Setup parameters for call to function osal_start_timerEx
        MOV     R4,#-0x18
        MOV     R5,#0x3
        MOV     R2,#0x1
        MOV     R3,#0x0
        MOV     DPTR,#GenericApp_TaskID
        MOVX    A,@DPTR
        MOV     R1,A
        LCALL   ??osal_start_timerEx?relay
        SJMP    ??GenericApp_ProcessEvent_3
//  336     }
//  337 
//  338     // return unprocessed events
//  339     return (events ^ SYS_EVENT_MSG);
??GenericApp_ProcessEvent_4:
        MOV     R2,?V0 + 0
        MOV     A,?V0 + 1
        XRL     A,#0x80
        MOV     R3,A
        SJMP    ??GenericApp_ProcessEvent_8
//  340   }
//  341  /* if ( events & GENERICAPP_SEND_MSG_EVT )
//  342   {
//  343     // Send "the" message
//  344     //GenericApp_SendTheMessage();
//  345     P0DIR &= ~0x80;
//  346     P0SEL |= 0x80;
//  347     // Setup to send message again
//  348     ADCCON3 = (ADC_REF_AVDD5 | ADC_14_BIT | ADC_AIN1_SENS);
//  349     //设置ADCCON1，转换模式
//  350     ADCCON1 |= 0x30;
//  351     //开始单次转换
//  352     ADCCON1 |= 0x40;
//  353     //等待AD转换完成
//  354     while(!(ADCCON1 & 0x80));
//  355     //保存ADC转换结果
//  356     ADCValue = ADCL >> 2;
//  357     ADCValue |= (((unsigned int)ADCH) << 6);
//  358     Delays();
//  359     if(ADCValue!=0)
//  360     {
//  361       ADCV[0]=ADCValue/1000+'0';
//  362       ADCV[1]=(ADCValue-ADCValue/1000*1000)/100+'0';
//  363       ADCV[2]=(ADCValue-ADCValue/100*100)/10+'0';
//  364       ADCV[3]=ADCValue%10+'0';
//  365       HalUARTWrite(1,"$u,14,00,",9);
//  366       HalUARTWrite(1,ADCV,4);
//  367       HalUARTWrite(1,",check,cr#",10);
//  368       HalUARTWrite(1,"\n",1);
//  369     }
//  370     osal_start_timerEx( GenericApp_TaskID,
//  371                         GENERICAPP_SEND_MSG_EVT,
//  372                         1000 );
//  373 
//  374     // return unprocessed events
//  375     return (events ^ GENERICAPP_SEND_MSG_EVT);
//  376   }*/
//  377   return 0;  
??GenericApp_ProcessEvent_0:
        MOV     R2,#0x0
        MOV     R3,#0x0
          CFI EndBlock cfiBlock3
??GenericApp_ProcessEvent_8:
        REQUIRE ?Subroutine0
        ; // Fall through to label ?Subroutine0
//  378 }

        RSEG BANKED_CODE:CODE:NOROOT(0)
?Subroutine0:
          CFI Block cfiBlock4 Using cfiCommon0
          CFI NoFunction
          CFI CFA_SP SP+0
          CFI CFA_XSP16 add(XSP16, 12)
          CFI VB load(1, XDATA, add(CFA_XSP16, literal(-11)))
          CFI DPL0 load(1, XDATA, add(CFA_XSP16, literal(-2)))
          CFI DPH0 load(1, XDATA, add(CFA_XSP16, literal(-1)))
          CFI R6 load(1, XDATA, add(CFA_XSP16, literal(-12)))
          CFI R7 load(1, XDATA, add(CFA_XSP16, literal(-6)))
          CFI V0 load(1, XDATA, add(CFA_XSP16, literal(-10)))
          CFI V1 load(1, XDATA, add(CFA_XSP16, literal(-9)))
          CFI V2 load(1, XDATA, add(CFA_XSP16, literal(-8)))
          CFI V3 load(1, XDATA, add(CFA_XSP16, literal(-7)))
          CFI ?BRET_EXT load(1, XDATA, add(CFA_XSP16, literal(-3)))
          CFI ?RET_HIGH load(1, XDATA, add(CFA_XSP16, literal(-4)))
          CFI ?RET_LOW load(1, XDATA, add(CFA_XSP16, literal(-5)))
        MOV     R7,#0x4
        LJMP    ?BANKED_LEAVE_XDATA
          CFI EndBlock cfiBlock4
//  379 /*********************************************************************
//  380  * LOCAL FUNCTIONS
//  381  */
//  382 
//  383 /*********************************************************************
//  384  * @fn      GenericApp_MessageMSGCB
//  385  *
//  386  * @brief   Data message processor callback.  This function processes
//  387  *          any incoming data - probably from other devices.  So, based
//  388  *          on cluster ID, perform the intended action.
//  389  *
//  390  * @param   none
//  391  *
//  392  * @return  none
//  393  */

        RSEG BANKED_CODE:CODE:NOROOT(0)
//  394 void GenericApp_MessageMSGCB(afIncomingMSGPacket_t *pkt)
GenericApp_MessageMSGCB:
          CFI Block cfiBlock5 Using cfiCommon0
          CFI Function GenericApp_MessageMSGCB
        CODE
//  395 {
        FUNCALL GenericApp_MessageMSGCB, osal_memcpy
        LOCFRAME ISTACK, 0, STACK
        LOCFRAME PSTACK, 0, STACK
        LOCFRAME XSTACK, 43, STACK
        LOCFRAME IOVERLAY, 0, STATIC
        LOCFRAME DOVERLAY, 0, STATIC
        ARGFRAME ISTACK, 0, STACK
        ARGFRAME PSTACK, 0, STACK
        ARGFRAME XSTACK, 43, STACK
        ARGFRAME IOVERLAY, 0, STATIC
        ARGFRAME DOVERLAY, 0, STATIC
        FUNCALL GenericApp_MessageMSGCB, HalUARTWrite
        LOCFRAME ISTACK, 0, STACK
        LOCFRAME PSTACK, 0, STACK
        LOCFRAME XSTACK, 40, STACK
        LOCFRAME IOVERLAY, 0, STATIC
        LOCFRAME DOVERLAY, 0, STATIC
        ARGFRAME ISTACK, 0, STACK
        ARGFRAME PSTACK, 0, STACK
        ARGFRAME XSTACK, 40, STACK
        ARGFRAME IOVERLAY, 0, STATIC
        ARGFRAME DOVERLAY, 0, STATIC
        FUNCALL GenericApp_MessageMSGCB, HalUARTWrite
        LOCFRAME ISTACK, 0, STACK
        LOCFRAME PSTACK, 0, STACK
        LOCFRAME XSTACK, 40, STACK
        LOCFRAME IOVERLAY, 0, STATIC
        LOCFRAME DOVERLAY, 0, STATIC
        ARGFRAME ISTACK, 0, STACK
        ARGFRAME PSTACK, 0, STACK
        ARGFRAME XSTACK, 40, STACK
        ARGFRAME IOVERLAY, 0, STATIC
        ARGFRAME DOVERLAY, 0, STATIC
        FUNCALL GenericApp_MessageMSGCB, HalUARTWrite
        LOCFRAME ISTACK, 0, STACK
        LOCFRAME PSTACK, 0, STACK
        LOCFRAME XSTACK, 40, STACK
        LOCFRAME IOVERLAY, 0, STATIC
        LOCFRAME DOVERLAY, 0, STATIC
        ARGFRAME ISTACK, 0, STACK
        ARGFRAME PSTACK, 0, STACK
        ARGFRAME XSTACK, 40, STACK
        ARGFRAME IOVERLAY, 0, STATIC
        ARGFRAME DOVERLAY, 0, STATIC
        FUNCALL GenericApp_MessageMSGCB, osal_memcpy
        LOCFRAME ISTACK, 0, STACK
        LOCFRAME PSTACK, 0, STACK
        LOCFRAME XSTACK, 43, STACK
        LOCFRAME IOVERLAY, 0, STATIC
        LOCFRAME DOVERLAY, 0, STATIC
        ARGFRAME ISTACK, 0, STACK
        ARGFRAME PSTACK, 0, STACK
        ARGFRAME XSTACK, 43, STACK
        ARGFRAME IOVERLAY, 0, STATIC
        ARGFRAME DOVERLAY, 0, STATIC
        FUNCALL GenericApp_MessageMSGCB, HalUARTWrite
        LOCFRAME ISTACK, 0, STACK
        LOCFRAME PSTACK, 0, STACK
        LOCFRAME XSTACK, 40, STACK
        LOCFRAME IOVERLAY, 0, STATIC
        LOCFRAME DOVERLAY, 0, STATIC
        ARGFRAME ISTACK, 0, STACK
        ARGFRAME PSTACK, 0, STACK
        ARGFRAME XSTACK, 40, STACK
        ARGFRAME IOVERLAY, 0, STATIC
        ARGFRAME DOVERLAY, 0, STATIC
        FUNCALL GenericApp_MessageMSGCB, HalUARTWrite
        LOCFRAME ISTACK, 0, STACK
        LOCFRAME PSTACK, 0, STACK
        LOCFRAME XSTACK, 40, STACK
        LOCFRAME IOVERLAY, 0, STATIC
        LOCFRAME DOVERLAY, 0, STATIC
        ARGFRAME ISTACK, 0, STACK
        ARGFRAME PSTACK, 0, STACK
        ARGFRAME XSTACK, 40, STACK
        ARGFRAME IOVERLAY, 0, STATIC
        ARGFRAME DOVERLAY, 0, STATIC
        FUNCALL GenericApp_MessageMSGCB, HalUARTWrite
        LOCFRAME ISTACK, 0, STACK
        LOCFRAME PSTACK, 0, STACK
        LOCFRAME XSTACK, 40, STACK
        LOCFRAME IOVERLAY, 0, STATIC
        LOCFRAME DOVERLAY, 0, STATIC
        ARGFRAME ISTACK, 0, STACK
        ARGFRAME PSTACK, 0, STACK
        ARGFRAME XSTACK, 40, STACK
        ARGFRAME IOVERLAY, 0, STATIC
        ARGFRAME DOVERLAY, 0, STATIC
        FUNCALL GenericApp_MessageMSGCB, HalUARTWrite
        LOCFRAME ISTACK, 0, STACK
        LOCFRAME PSTACK, 0, STACK
        LOCFRAME XSTACK, 40, STACK
        LOCFRAME IOVERLAY, 0, STATIC
        LOCFRAME DOVERLAY, 0, STATIC
        ARGFRAME ISTACK, 0, STACK
        ARGFRAME PSTACK, 0, STACK
        ARGFRAME XSTACK, 40, STACK
        ARGFRAME IOVERLAY, 0, STATIC
        ARGFRAME DOVERLAY, 0, STATIC
        FUNCALL GenericApp_MessageMSGCB, HalUARTWrite
        LOCFRAME ISTACK, 0, STACK
        LOCFRAME PSTACK, 0, STACK
        LOCFRAME XSTACK, 40, STACK
        LOCFRAME IOVERLAY, 0, STATIC
        LOCFRAME DOVERLAY, 0, STATIC
        ARGFRAME ISTACK, 0, STACK
        ARGFRAME PSTACK, 0, STACK
        ARGFRAME XSTACK, 40, STACK
        ARGFRAME IOVERLAY, 0, STATIC
        ARGFRAME DOVERLAY, 0, STATIC
        FUNCALL GenericApp_MessageMSGCB, HalUARTWrite
        LOCFRAME ISTACK, 0, STACK
        LOCFRAME PSTACK, 0, STACK
        LOCFRAME XSTACK, 40, STACK
        LOCFRAME IOVERLAY, 0, STATIC
        LOCFRAME DOVERLAY, 0, STATIC
        ARGFRAME ISTACK, 0, STACK
        ARGFRAME PSTACK, 0, STACK
        ARGFRAME XSTACK, 40, STACK
        ARGFRAME IOVERLAY, 0, STATIC
        ARGFRAME DOVERLAY, 0, STATIC
        MOV     A,#-0xc
        LCALL   ?BANKED_ENTER_XDATA
          CFI DPH0 load(1, XDATA, add(CFA_XSP16, literal(-1)))
          CFI DPL0 load(1, XDATA, add(CFA_XSP16, literal(-2)))
          CFI ?BRET_EXT load(1, XDATA, add(CFA_XSP16, literal(-3)))
          CFI ?RET_HIGH load(1, XDATA, add(CFA_XSP16, literal(-4)))
          CFI ?RET_LOW load(1, XDATA, add(CFA_XSP16, literal(-5)))
          CFI R7 load(1, XDATA, add(CFA_XSP16, literal(-6)))
          CFI V3 load(1, XDATA, add(CFA_XSP16, literal(-7)))
          CFI V2 load(1, XDATA, add(CFA_XSP16, literal(-8)))
          CFI V1 load(1, XDATA, add(CFA_XSP16, literal(-9)))
          CFI V0 load(1, XDATA, add(CFA_XSP16, literal(-10)))
          CFI VB load(1, XDATA, add(CFA_XSP16, literal(-11)))
          CFI R6 load(1, XDATA, add(CFA_XSP16, literal(-12)))
          CFI CFA_SP SP+0
          CFI CFA_XSP16 add(XSP16, 12)
        ; Saved register size: 12
        ; Auto size: 28
        MOV     A,#-0x1c
        LCALL   ?ALLOC_XSTACK8
          CFI CFA_XSP16 add(XSP16, 40)
//  396   //unsigned char GPS[33];
//  397   unsigned char buffer[24];
//  398   unsigned char WenDuChars[2];
//  399   unsigned char ShiDuChars[2]; 
//  400   switch(pkt->clusterId)
        MOV     DPL,R2
        MOV     DPH,R3
        INC     DPTR
        INC     DPTR
        INC     DPTR
        INC     DPTR
        MOVX    A,@DPTR
        MOV     ?V0 + 0,A
        INC     DPTR
        MOVX    A,@DPTR
        MOV     ?V0 + 1,A
        MOV     R0,#?V0 + 0
        LCALL   ?US_SWITCH_SPARSE
`?<Jumptable for GenericApp_MessageMSGCB>_0`:
        DATA
        DATA16
        DATA
        DATA16
        DATA
        DATA16
        DW        0
        DATA
        DATA16
        DATA
        DATA16
        DATA
        DATA16
        DW        2
        DATA
        DATA16
        DATA
        DATA16
        DATA
        DATA16
        DW        1
        DATA
        DATA16
        DATA
        DATA16
        DATA
        DATA16
        DW        ??GenericApp_MessageMSGCB_0
        DATA
        DATA16
        DATA
        DATA16
        DATA
        DATA16
        DW        7
        DATA
        DATA16
        DATA
        DATA16
        DATA
        DATA16
        DW        ??GenericApp_MessageMSGCB_1
        DATA
        DATA16
        DATA
        DATA16
        DW        ??GenericApp_MessageMSGCB_2
        CODE
//  401   {
//  402    /* case GENERICAPP_CLUSTERID_POSTURE:
//  403 
//  404     osal_memcpy(buffer,pkt->cmd.Data,24);
//  405     if(buffer[0]!=0)
//  406       {
//  407         P1_1=~P1_1;
//  408         P1_0=~P1_0;
//  409         HalUARTWrite(1,"$u,12,00,",9);
//  410         HalUARTWrite(1,buffer,24);
//  411         HalUARTWrite(1,",check,cr#",10);
//  412         HalUARTWrite(1,"\n",1);
//  413       }
//  414     break;*/
//  415     case GENERICAPP_CLUSTERID_LINGHT:
//  416     P1_0=~P1_0;
??GenericApp_MessageMSGCB_1:
        MOV     C,0x90.0
        SETB    B.0
        MOV     C,0x90.0
        JNB     B.0,??GenericApp_MessageMSGCB_3
        CPL     C
??GenericApp_MessageMSGCB_3:
        MOV     0x90.0,C
//  417     P1_1=~P1_1;
        MOV     C,0x90.1
        MOV     C,0x90.1
        JNB     B.0,??GenericApp_MessageMSGCB_4
        CPL     C
??GenericApp_MessageMSGCB_4:
        MOV     0x90.1,C
//  418 
//  419     P1_4=~P1_4;
        MOV     C,0x90.4
        MOV     C,0x90.4
        JNB     B.0,??GenericApp_MessageMSGCB_5
        CPL     C
??GenericApp_MessageMSGCB_5:
        MOV     0x90.4,C
//  420     
//  421     osal_memcpy(buffer,pkt->cmd.Data,3);
        ; Setup parameters for call to function osal_memcpy
        LCALL   ?Subroutine2 & 0xFFFF
??CrossCallReturnLabel_0:
        LCALL   ?PUSH_XSTACK_I_THREE
          CFI CFA_XSP16 add(XSP16, 43)
        MOV     R4,#0x3
        MOV     R5,#0x0
        MOV     A,#0x7
        LCALL   ?XSTACK_DISP0_8
        MOV     R2,DPL
        MOV     R3,DPH
        LCALL   ??osal_memcpy?relay
        MOV     A,#0x3
        LCALL   ?DEALLOC_XSTACK8
          CFI CFA_XSP16 add(XSP16, 40)
//  422     //char Txdata[25];
//  423    // strcpy(Txdata,"HELLO");
//  424     if(buffer[0]!=0)
        MOV     A,#0x4
        LCALL   ?XSTACK_DISP0_8
        MOVX    A,@DPTR
        JNZ     $+5
        LJMP    ??GenericApp_MessageMSGCB_2 & 0xFFFF
//  425       {
//  426         temp1 = buffer[0];
        MOV     DPTR,#temp1
        MOVX    @DPTR,A
//  427         temp2 = buffer[1];
        MOV     A,#0x5
        LCALL   ?XSTACK_DISP0_8
        MOVX    A,@DPTR
        MOV     DPTR,#temp2
        MOVX    @DPTR,A
//  428         temp3 = buffer[2];
        MOV     A,#0x6
        LCALL   ?XSTACK_DISP0_8
        MOVX    A,@DPTR
        MOV     DPTR,#temp3
        MOVX    @DPTR,A
//  429         flag1++;
        MOV     DPTR,#flag1
        LCALL   ?Subroutine4 & 0xFFFF
//  430         //P1_1=~P1_1;
//  431         //P1_0=~P1_0;
//  432         HalUARTWrite(0,"Light",5);
??CrossCallReturnLabel_5:
        ; Setup parameters for call to function HalUARTWrite
        MOV     R4,#0x5
        MOV     R5,#0x0
        MOV     R2,#`?<Constant "Light">` & 0xff
        MOV     R3,#(`?<Constant "Light">` >> 8) & 0xff
        MOV     R1,#0x0
        LCALL   ??HalUARTWrite?relay
//  433         HalUARTWrite(0,buffer,3);
        ; Setup parameters for call to function HalUARTWrite
        MOV     R4,#0x3
        LJMP    ??GenericApp_MessageMSGCB_6 & 0xFFFF
//  434         HalUARTWrite(0,"\n",1);
//  435        /*HalUARTWrite(0,"guang",5);
//  436         HalUARTWrite(0,buffer,3);
//  437        HalUARTWrite(0,"\n",1);*/
//  438       }
//  439     break;
//  440    /* case GENERICAPP_CLUSTERID_SOUND:
//  441     //P1_1=~P1_1;
//  442     
//  443     osal_memcpy(buffer,pkt->cmd.Data,1);
//  444     if(buffer[0]=='0' || buffer[0]=='1')
//  445       {
//  446         P1_1=~P1_1;
//  447         P1_0=~P1_0;
//  448         HalUARTWrite(1,"$u,10,00,",9);
//  449         HalUARTWrite(1,buffer,1);
//  450         HalUARTWrite(1,",check,cr#",10);
//  451         HalUARTWrite(1,"\n",1);
//  452       }
//  453     break;
//  454     
//  455     case GENERICAPP_CLUSTERID_DISTANCE:
//  456     P1_1=~P1_1;
//  457     
//  458     osal_memcpy(buffer,pkt->cmd.Data,3);
//  459     if(buffer[0]!=0)
//  460       {
//  461         P1_0=~P1_0;
//  462         HalUARTWrite(1,"$u,09,00,",9);
//  463         HalUARTWrite(1,buffer,3);
//  464         HalUARTWrite(1,",check,cr#",10);
//  465         HalUARTWrite(1,"\n",1);
//  466       }
//  467     break;
//  468     */
//  469    
//  470     case GENERICAPP_CLUSTERID_TEMHUM:
//  471     ////P1_0=~P1_0;
//  472    // P1_1=~P1_1;
//  473 
//  474    // P1_4=~P1_4;
//  475     osal_memcpy(buffer,pkt->cmd.Data,2);
??GenericApp_MessageMSGCB_0:
        ; Setup parameters for call to function osal_memcpy
        LCALL   ?Subroutine2 & 0xFFFF
??CrossCallReturnLabel_1:
        LCALL   ?PUSH_XSTACK_I_THREE
          CFI CFA_XSP16 add(XSP16, 43)
        MOV     R4,#0x2
        MOV     R5,#0x0
        MOV     A,#0x7
        LCALL   ?XSTACK_DISP0_8
        MOV     R2,DPL
        MOV     R3,DPH
        LCALL   ??osal_memcpy?relay
        MOV     A,#0x3
        LCALL   ?DEALLOC_XSTACK8
          CFI CFA_XSP16 add(XSP16, 40)
//  476     
//  477     
//  478     if(buffer[0]!=0)
        MOV     A,#0x4
        LCALL   ?XSTACK_DISP0_8
        MOVX    A,@DPTR
        JZ      ??GenericApp_MessageMSGCB_7
//  479       {
//  480         flag2++;
        MOV     DPTR,#flag2
        LCALL   ?Subroutine4 & 0xFFFF
//  481         WenDuChars[0]=buffer[0]/10+'0';
??CrossCallReturnLabel_6:
        MOV     B,#0xa
        MOV     A,#0x4
        LCALL   ?XSTACK_DISP0_8
        MOVX    A,@DPTR
        DIV     AB
        ADD     A,#0x30
        PUSH    A
          CFI CFA_SP SP+-1
        MOV     A,#0x2
        LCALL   ?XSTACK_DISP0_8
        POP     A
          CFI CFA_SP SP+0
        MOVX    @DPTR,A
//  482         WenDuChars[1]=buffer[0]%10+'0';
        MOV     A,#0x4
        LCALL   ?XSTACK_DISP0_8
        MOVX    A,@DPTR
        MOV     B,#0xa
        DIV     AB
        MOV     A,B
        ADD     A,#0x30
        PUSH    A
          CFI CFA_SP SP+-1
        MOV     A,#0x3
        LCALL   ?XSTACK_DISP0_8
        POP     A
          CFI CFA_SP SP+0
        MOVX    @DPTR,A
//  483         temp4 = WenDuChars[0];
        MOV     A,#0x2
        LCALL   ?XSTACK_DISP0_8
        MOVX    A,@DPTR
        MOV     DPTR,#temp4
        MOVX    @DPTR,A
//  484         HalUARTWrite(0,"tem",3);
        ; Setup parameters for call to function HalUARTWrite
        MOV     R4,#0x3
        MOV     R5,#0x0
        MOV     R2,#`?<Constant "tem">` & 0xff
        MOV     R3,#(`?<Constant "tem">` >> 8) & 0xff
        MOV     R1,#0x0
        LCALL   ??HalUARTWrite?relay
//  485         HalUARTWrite(0,buffer,1);
        ; Setup parameters for call to function HalUARTWrite
        MOV     R4,#0x1
        MOV     R5,#0x0
        MOV     A,#0x4
        LCALL   ?XSTACK_DISP0_8
        MOV     R2,DPL
        MOV     R3,DPH
        MOV     R1,#0x0
        LCALL   ??HalUARTWrite?relay
//  486         /*HalUARTWrite(1,"$u,01,00,",9);
//  487         HalUARTWrite(1,WenDuChars,2);
//  488         HalUARTWrite(1,",check,cr#",10);
//  489         HalUARTWrite(1,"\n",1);*/
//  490       }
//  491       else
//  492       {
//  493         //HalUARTWrite(1,"It's Wrong",10);
//  494       }
//  495       if(buffer[1]!=0)
??GenericApp_MessageMSGCB_7:
        MOV     A,#0x5
        LCALL   ?XSTACK_DISP0_8
        MOVX    A,@DPTR
        JZ      ??GenericApp_MessageMSGCB_8
//  496       { 
//  497         ShiDuChars[0]=buffer[1]/10+'0';
        MOV     R0,A
        MOV     B,#0xa
        DIV     AB
        ADD     A,#0x30
        MOV     DPL,?XSP + 0
        MOV     DPH,?XSP + 1
        MOVX    @DPTR,A
//  498         ShiDuChars[1]=buffer[1]%10+'0';
        MOV     A,R0
        MOV     B,#0xa
        DIV     AB
        MOV     A,B
        ADD     A,#0x30
        PUSH    A
          CFI CFA_SP SP+-1
        MOV     A,#0x1
        LCALL   ?XSTACK_DISP0_8
        POP     A
          CFI CFA_SP SP+0
        LCALL   ?Subroutine3 & 0xFFFF
//  499         temp5 =  ShiDuChars[0];
??CrossCallReturnLabel_3:
        MOVX    A,@DPTR
        MOV     DPTR,#temp5
        MOVX    @DPTR,A
//  500         HalUARTWrite(0,"hum",3);
        ; Setup parameters for call to function HalUARTWrite
        MOV     R4,#0x3
        MOV     R5,#0x0
        MOV     R2,#`?<Constant "hum">` & 0xff
        MOV     R3,#(`?<Constant "hum">` >> 8) & 0xff
        MOV     R1,#0x0
        LCALL   ??HalUARTWrite?relay
//  501          HalUARTWrite(0,buffer,1);
        ; Setup parameters for call to function HalUARTWrite
        MOV     R4,#0x1
??GenericApp_MessageMSGCB_6:
        MOV     R5,#0x0
        MOV     A,#0x4
        LCALL   ?XSTACK_DISP0_8
        MOV     R2,DPL
        MOV     R3,DPH
        MOV     R1,#0x0
        LCALL   ??HalUARTWrite?relay
//  502           HalUARTWrite(0,"\n",1);
        ; Setup parameters for call to function HalUARTWrite
        MOV     R4,#0x1
        MOV     R5,#0x0
        MOV     R2,#`?<Constant "\\n">` & 0xff
        MOV     R3,#(`?<Constant "\\n">` >> 8) & 0xff
        MOV     R1,#0x0
        SJMP    ??GenericApp_MessageMSGCB_9
//  503        /* HalUARTWrite(1,"$u,02,00,",9);
//  504         HalUARTWrite(1,ShiDuChars,2);
//  505         HalUARTWrite(1,",check,cr#",10);
//  506         HalUARTWrite(1,"\n",1);*/
//  507       }
//  508       else
//  509       {
//  510         //HalUARTWrite(1,"It's Wrong",10);
//  511         HalUARTWrite(1,"\n",1);
??GenericApp_MessageMSGCB_8:
        ; Setup parameters for call to function HalUARTWrite
        MOV     R4,#0x1
        MOV     R5,#0x0
        MOV     R2,#`?<Constant "\\n">` & 0xff
        MOV     R3,#(`?<Constant "\\n">` >> 8) & 0xff
        MOV     R1,#0x1
??GenericApp_MessageMSGCB_9:
        LCALL   ??HalUARTWrite?relay
//  512       } 
//  513     break;
//  514    /* case GENERICAPP_CLUSTERID_GAS:
//  515     //P1_1=~P1_1;
//  516     
//  517     osal_memcpy(buffer,pkt->cmd.Data,1);
//  518     if(buffer[0]!=0)
//  519       {
//  520         P1_1=~P1_1;
//  521         P1_0=~P1_0;
//  522         HalUARTWrite(1,"$u,13,00,",9);
//  523         HalUARTWrite(1,buffer,1);
//  524         HalUARTWrite(1,",check,cr#",10);
//  525         HalUARTWrite(1,"\n",1);
//  526       }
//  527     break;
//  528     case GENERICAPP_CLUSTERID_DOUBLE:
//  529 
//  530     break;
//  531     case GENERICAPP_CLUSTERID_GPS:
//  532       osal_memcpy(GPS,pkt->cmd.Data,33);
//  533       if(buffer[0]!=0)
//  534       {
//  535         HalUARTWrite(1,"$u,04,00,",9);
//  536         HalUARTWrite(1,pkt->cmd.Data,33);
//  537         HalUARTWrite(1,",check,cr#",10);
//  538         HalUARTWrite(1,"\n",1);
//  539       }
//  540     break;*/
//  541   }
//  542 }
??GenericApp_MessageMSGCB_2:
        MOV     A,#0x1c
        LCALL   ?DEALLOC_XSTACK8
          CFI CFA_XSP16 add(XSP16, 12)
        LJMP    ?Subroutine0 & 0xFFFF
          CFI EndBlock cfiBlock5
        REQUIRE _A_P1

        RSEG BANKED_CODE:CODE:NOROOT(0)
?Subroutine4:
          CFI Block cfiCond6 Using cfiCommon0
          CFI Function GenericApp_MessageMSGCB
          CFI Conditional ??CrossCallReturnLabel_5
          CFI R6 load(1, XDATA, add(CFA_XSP16, literal(-12)))
          CFI VB load(1, XDATA, add(CFA_XSP16, literal(-11)))
          CFI V0 load(1, XDATA, add(CFA_XSP16, literal(-10)))
          CFI V1 load(1, XDATA, add(CFA_XSP16, literal(-9)))
          CFI V2 load(1, XDATA, add(CFA_XSP16, literal(-8)))
          CFI V3 load(1, XDATA, add(CFA_XSP16, literal(-7)))
          CFI R7 load(1, XDATA, add(CFA_XSP16, literal(-6)))
          CFI ?RET_LOW load(1, XDATA, add(CFA_XSP16, literal(-5)))
          CFI ?RET_HIGH load(1, XDATA, add(CFA_XSP16, literal(-4)))
          CFI ?BRET_EXT load(1, XDATA, add(CFA_XSP16, literal(-3)))
          CFI DPL0 load(1, XDATA, add(CFA_XSP16, literal(-2)))
          CFI DPH0 load(1, XDATA, add(CFA_XSP16, literal(-1)))
          CFI CFA_SP SP+0
          CFI CFA_XSP16 add(XSP16, 40)
          CFI Block cfiCond7 Using cfiCommon0
          CFI (cfiCond7) Function GenericApp_MessageMSGCB
          CFI (cfiCond7) Conditional ??CrossCallReturnLabel_6
          CFI (cfiCond7) R6 load(1, XDATA, add(CFA_XSP16, literal(-12)))
          CFI (cfiCond7) VB load(1, XDATA, add(CFA_XSP16, literal(-11)))
          CFI (cfiCond7) V0 load(1, XDATA, add(CFA_XSP16, literal(-10)))
          CFI (cfiCond7) V1 load(1, XDATA, add(CFA_XSP16, literal(-9)))
          CFI (cfiCond7) V2 load(1, XDATA, add(CFA_XSP16, literal(-8)))
          CFI (cfiCond7) V3 load(1, XDATA, add(CFA_XSP16, literal(-7)))
          CFI (cfiCond7) R7 load(1, XDATA, add(CFA_XSP16, literal(-6)))
          CFI (cfiCond7) ?RET_LOW load(1, XDATA, add(CFA_XSP16, literal(-5)))
          CFI (cfiCond7) ?RET_HIGH load(1, XDATA, add(CFA_XSP16, literal(-4)))
          CFI (cfiCond7) ?BRET_EXT load(1, XDATA, add(CFA_XSP16, literal(-3)))
          CFI (cfiCond7) DPL0 load(1, XDATA, add(CFA_XSP16, literal(-2)))
          CFI (cfiCond7) DPH0 load(1, XDATA, add(CFA_XSP16, literal(-1)))
          CFI (cfiCond7) CFA_SP SP+0
          CFI (cfiCond7) CFA_XSP16 add(XSP16, 40)
          CFI Block cfiPicker8 Using cfiCommon1
          CFI (cfiPicker8) NoFunction
          CFI (cfiPicker8) Picker
        MOVX    A,@DPTR
        ADD     A,#0x1
        MOVX    @DPTR,A
        INC     DPTR
        MOVX    A,@DPTR
        ADDC    A,#0x0
        MOVX    @DPTR,A
        RET
          CFI EndBlock cfiCond6
          CFI EndBlock cfiCond7
          CFI EndBlock cfiPicker8

        RSEG BANKED_CODE:CODE:NOROOT(0)
?Subroutine3:
          CFI Block cfiCond9 Using cfiCommon0
          CFI Function GenericApp_Init
          CFI Conditional ??CrossCallReturnLabel_2
          CFI R6 load(1, XDATA, add(CFA_XSP16, literal(-9)))
          CFI VB load(1, XDATA, add(CFA_XSP16, literal(-8)))
          CFI V0 load(1, XDATA, add(CFA_XSP16, literal(-7)))
          CFI R7 load(1, XDATA, add(CFA_XSP16, literal(-6)))
          CFI ?RET_LOW load(1, XDATA, add(CFA_XSP16, literal(-5)))
          CFI ?RET_HIGH load(1, XDATA, add(CFA_XSP16, literal(-4)))
          CFI ?BRET_EXT load(1, XDATA, add(CFA_XSP16, literal(-3)))
          CFI DPL0 load(1, XDATA, add(CFA_XSP16, literal(-2)))
          CFI DPH0 load(1, XDATA, add(CFA_XSP16, literal(-1)))
          CFI CFA_SP SP+0
          CFI CFA_XSP16 add(XSP16, 38)
          CFI Block cfiCond10 Using cfiCommon0
          CFI (cfiCond10) Function GenericApp_MessageMSGCB
          CFI (cfiCond10) Conditional ??CrossCallReturnLabel_3
          CFI (cfiCond10) R6 load(1, XDATA, add(CFA_XSP16, literal(-12)))
          CFI (cfiCond10) VB load(1, XDATA, add(CFA_XSP16, literal(-11)))
          CFI (cfiCond10) V0 load(1, XDATA, add(CFA_XSP16, literal(-10)))
          CFI (cfiCond10) V1 load(1, XDATA, add(CFA_XSP16, literal(-9)))
          CFI (cfiCond10) V2 load(1, XDATA, add(CFA_XSP16, literal(-8)))
          CFI (cfiCond10) V3 load(1, XDATA, add(CFA_XSP16, literal(-7)))
          CFI (cfiCond10) R7 load(1, XDATA, add(CFA_XSP16, literal(-6)))
          CFI (cfiCond10) ?RET_LOW load(1, XDATA, add(CFA_XSP16, literal(-5)))
          CFI (cfiCond10) ?RET_HIGH load(1, XDATA, add(CFA_XSP16, literal(-4)))
          CFI (cfiCond10) ?BRET_EXT load(1, XDATA, add(CFA_XSP16, literal(-3)))
          CFI (cfiCond10) DPL0 load(1, XDATA, add(CFA_XSP16, literal(-2)))
          CFI (cfiCond10) DPH0 load(1, XDATA, add(CFA_XSP16, literal(-1)))
          CFI (cfiCond10) CFA_SP SP+0
          CFI (cfiCond10) CFA_XSP16 add(XSP16, 40)
          CFI Block cfiCond11 Using cfiCommon0
          CFI (cfiCond11) Function GenericApp_SendTheMessage
          CFI (cfiCond11) Conditional ??CrossCallReturnLabel_4
          CFI (cfiCond11) R6 load(1, XDATA, add(CFA_XSP16, literal(-10)))
          CFI (cfiCond11) VB load(1, XDATA, add(CFA_XSP16, literal(-9)))
          CFI (cfiCond11) V0 load(1, XDATA, add(CFA_XSP16, literal(-8)))
          CFI (cfiCond11) V1 load(1, XDATA, add(CFA_XSP16, literal(-7)))
          CFI (cfiCond11) R7 load(1, XDATA, add(CFA_XSP16, literal(-6)))
          CFI (cfiCond11) ?RET_LOW load(1, XDATA, add(CFA_XSP16, literal(-5)))
          CFI (cfiCond11) ?RET_HIGH load(1, XDATA, add(CFA_XSP16, literal(-4)))
          CFI (cfiCond11) ?BRET_EXT load(1, XDATA, add(CFA_XSP16, literal(-3)))
          CFI (cfiCond11) DPL0 load(1, XDATA, add(CFA_XSP16, literal(-2)))
          CFI (cfiCond11) DPH0 load(1, XDATA, add(CFA_XSP16, literal(-1)))
          CFI (cfiCond11) CFA_SP SP+0
          CFI (cfiCond11) CFA_XSP16 add(XSP16, 22)
          CFI Block cfiPicker12 Using cfiCommon1
          CFI (cfiPicker12) NoFunction
          CFI (cfiPicker12) Picker
        MOVX    @DPTR,A
        ; Setup parameters for call to function HalUARTOpen
        MOV     DPL,?XSP + 0
        MOV     DPH,?XSP + 1
        RET
          CFI EndBlock cfiCond9
          CFI EndBlock cfiCond10
          CFI EndBlock cfiCond11
          CFI EndBlock cfiPicker12

        RSEG BANKED_CODE:CODE:NOROOT(0)
?Subroutine2:
          CFI Block cfiCond13 Using cfiCommon0
          CFI Function GenericApp_MessageMSGCB
          CFI Conditional ??CrossCallReturnLabel_0
          CFI R6 load(1, XDATA, add(CFA_XSP16, literal(-12)))
          CFI VB load(1, XDATA, add(CFA_XSP16, literal(-11)))
          CFI V0 load(1, XDATA, add(CFA_XSP16, literal(-10)))
          CFI V1 load(1, XDATA, add(CFA_XSP16, literal(-9)))
          CFI V2 load(1, XDATA, add(CFA_XSP16, literal(-8)))
          CFI V3 load(1, XDATA, add(CFA_XSP16, literal(-7)))
          CFI R7 load(1, XDATA, add(CFA_XSP16, literal(-6)))
          CFI ?RET_LOW load(1, XDATA, add(CFA_XSP16, literal(-5)))
          CFI ?RET_HIGH load(1, XDATA, add(CFA_XSP16, literal(-4)))
          CFI ?BRET_EXT load(1, XDATA, add(CFA_XSP16, literal(-3)))
          CFI DPL0 load(1, XDATA, add(CFA_XSP16, literal(-2)))
          CFI DPH0 load(1, XDATA, add(CFA_XSP16, literal(-1)))
          CFI CFA_SP SP+0
          CFI CFA_XSP16 add(XSP16, 40)
          CFI Block cfiCond14 Using cfiCommon0
          CFI (cfiCond14) Function GenericApp_MessageMSGCB
          CFI (cfiCond14) Conditional ??CrossCallReturnLabel_1
          CFI (cfiCond14) R6 load(1, XDATA, add(CFA_XSP16, literal(-12)))
          CFI (cfiCond14) VB load(1, XDATA, add(CFA_XSP16, literal(-11)))
          CFI (cfiCond14) V0 load(1, XDATA, add(CFA_XSP16, literal(-10)))
          CFI (cfiCond14) V1 load(1, XDATA, add(CFA_XSP16, literal(-9)))
          CFI (cfiCond14) V2 load(1, XDATA, add(CFA_XSP16, literal(-8)))
          CFI (cfiCond14) V3 load(1, XDATA, add(CFA_XSP16, literal(-7)))
          CFI (cfiCond14) R7 load(1, XDATA, add(CFA_XSP16, literal(-6)))
          CFI (cfiCond14) ?RET_LOW load(1, XDATA, add(CFA_XSP16, literal(-5)))
          CFI (cfiCond14) ?RET_HIGH load(1, XDATA, add(CFA_XSP16, literal(-4)))
          CFI (cfiCond14) ?BRET_EXT load(1, XDATA, add(CFA_XSP16, literal(-3)))
          CFI (cfiCond14) DPL0 load(1, XDATA, add(CFA_XSP16, literal(-2)))
          CFI (cfiCond14) DPH0 load(1, XDATA, add(CFA_XSP16, literal(-1)))
          CFI (cfiCond14) CFA_SP SP+0
          CFI (cfiCond14) CFA_XSP16 add(XSP16, 40)
          CFI Block cfiPicker15 Using cfiCommon1
          CFI (cfiPicker15) NoFunction
          CFI (cfiPicker15) Picker
        MOV     A,R2
        ADD     A,#0x22
        MOV     DPL,A
        MOV     A,R3
        ADDC    A,#0x0
        MOV     DPH,A
        MOVX    A,@DPTR
        MOV     ?V0 + 0,A
        INC     DPTR
        MOVX    A,@DPTR
        MOV     ?V0 + 1,A
        MOV     ?V0 + 2,#0x0
        MOV     R0,#?V0 + 0
        RET
          CFI EndBlock cfiCond13
          CFI EndBlock cfiCond14
          CFI EndBlock cfiPicker15
//  543 /*********************************************************************
//  544  * @fn      GenericApp_SendTheMessage
//  545  *
//  546  * @brief   Send "the" message.
//  547  *
//  548  * @param   none
//  549  *
//  550  * @return  none
//  551  */

        RSEG BANKED_CODE:CODE:NOROOT(0)
//  552 void GenericApp_SendTheMessage(unsigned char *theMessageData)
GenericApp_SendTheMessage:
          CFI Block cfiBlock16 Using cfiCommon0
          CFI Function GenericApp_SendTheMessage
        CODE
//  553 {
        FUNCALL GenericApp_SendTheMessage, AF_DataRequest
        LOCFRAME ISTACK, 0, STACK
        LOCFRAME PSTACK, 0, STACK
        LOCFRAME XSTACK, 31, STACK
        LOCFRAME IOVERLAY, 0, STATIC
        LOCFRAME DOVERLAY, 0, STATIC
        ARGFRAME ISTACK, 0, STACK
        ARGFRAME PSTACK, 0, STACK
        ARGFRAME XSTACK, 31, STACK
        ARGFRAME IOVERLAY, 0, STATIC
        ARGFRAME DOVERLAY, 0, STATIC
        MOV     A,#-0xa
        LCALL   ?BANKED_ENTER_XDATA
          CFI DPH0 load(1, XDATA, add(CFA_XSP16, literal(-1)))
          CFI DPL0 load(1, XDATA, add(CFA_XSP16, literal(-2)))
          CFI ?BRET_EXT load(1, XDATA, add(CFA_XSP16, literal(-3)))
          CFI ?RET_HIGH load(1, XDATA, add(CFA_XSP16, literal(-4)))
          CFI ?RET_LOW load(1, XDATA, add(CFA_XSP16, literal(-5)))
          CFI R7 load(1, XDATA, add(CFA_XSP16, literal(-6)))
          CFI V1 load(1, XDATA, add(CFA_XSP16, literal(-7)))
          CFI V0 load(1, XDATA, add(CFA_XSP16, literal(-8)))
          CFI VB load(1, XDATA, add(CFA_XSP16, literal(-9)))
          CFI R6 load(1, XDATA, add(CFA_XSP16, literal(-10)))
          CFI CFA_SP SP+0
          CFI CFA_XSP16 add(XSP16, 10)
        ; Saved register size: 10
        ; Auto size: 12
        MOV     A,#-0xc
        LCALL   ?ALLOC_XSTACK8
          CFI CFA_XSP16 add(XSP16, 22)
//  554   afAddrType_t my_DstAddr;
//  555   my_DstAddr.addrMode=(afAddrMode_t)Addr16Bit;
        MOV     A,#0x8
        LCALL   ?XSTACK_DISP0_8
        MOV     A,#0x2
        MOVX    @DPTR,A
//  556   my_DstAddr.endPoint=GENERICAPP_ENDPOINT;
        MOV     A,#0x9
        LCALL   ?XSTACK_DISP0_8
        MOV     A,#0xa
        LCALL   ?Subroutine3 & 0xFFFF
//  557   my_DstAddr.addr.shortAddr=0xFFFF; 
??CrossCallReturnLabel_4:
        MOV     A,#-0x1
        MOVX    @DPTR,A
        INC     DPTR
        MOVX    @DPTR,A
//  558   
//  559   AF_DataRequest(&my_DstAddr
//  560                  ,&GenericApp_epDesc
//  561                    ,GENERICAPP_CLUSTERID_DOUBLE
//  562                        ,4
//  563                        ,theMessageData
//  564                          ,&GenericApp_TransID
//  565                            ,AF_DISCV_ROUTE
//  566                              ,AF_DEFAULT_RADIUS);
        ; Setup parameters for call to function AF_DataRequest
        MOV     ?V0 + 0,#0x1e
        MOV     R0,#?V0 + 0
        LCALL   ?PUSH_XSTACK_I_ONE
          CFI CFA_XSP16 add(XSP16, 23)
        MOV     ?V0 + 0,#GenericApp_TransID & 0xff
        MOV     ?V0 + 1,#(GenericApp_TransID >> 8) & 0xff
        MOV     R0,#?V0 + 0
        LCALL   ?PUSH_XSTACK_I_TWO
          CFI CFA_XSP16 add(XSP16, 25)
        MOV     ?V0 + 0,R2
        MOV     ?V0 + 1,R3
        MOV     R0,#?V0 + 0
        LCALL   ?PUSH_XSTACK_I_TWO
          CFI CFA_XSP16 add(XSP16, 27)
        MOV     ?V0 + 0,#0x4
        MOV     ?V0 + 1,#0x0
        MOV     R0,#?V0 + 0
        LCALL   ?PUSH_XSTACK_I_TWO
          CFI CFA_XSP16 add(XSP16, 29)
        MOV     ?V0 + 0,#0x3
        MOV     R0,#?V0 + 0
        LCALL   ?PUSH_XSTACK_I_TWO
          CFI CFA_XSP16 add(XSP16, 31)
        MOV     R1,#0x20
        MOV     R4,#GenericApp_epDesc & 0xff
        MOV     R5,#(GenericApp_epDesc >> 8) & 0xff
        MOV     A,#0x9
        LCALL   ?XSTACK_DISP0_8
        MOV     R2,DPL
        MOV     R3,DPH
        LCALL   ??AF_DataRequest?relay
        MOV     A,#0x9
        LCALL   ?DEALLOC_XSTACK8
          CFI CFA_XSP16 add(XSP16, 22)
//  567 }
        MOV     A,#0xc
        LCALL   ?DEALLOC_XSTACK8
          CFI EndBlock cfiBlock16
        REQUIRE ?Subroutine1
        ; // Fall through to label ?Subroutine1

        RSEG BANKED_CODE:CODE:NOROOT(0)
?Subroutine1:
          CFI Block cfiBlock17 Using cfiCommon0
          CFI NoFunction
          CFI CFA_SP SP+0
          CFI CFA_XSP16 add(XSP16, 10)
          CFI VB load(1, XDATA, add(CFA_XSP16, literal(-9)))
          CFI DPL0 load(1, XDATA, add(CFA_XSP16, literal(-2)))
          CFI DPH0 load(1, XDATA, add(CFA_XSP16, literal(-1)))
          CFI R6 load(1, XDATA, add(CFA_XSP16, literal(-10)))
          CFI R7 load(1, XDATA, add(CFA_XSP16, literal(-6)))
          CFI V0 load(1, XDATA, add(CFA_XSP16, literal(-8)))
          CFI V1 load(1, XDATA, add(CFA_XSP16, literal(-7)))
          CFI ?BRET_EXT load(1, XDATA, add(CFA_XSP16, literal(-3)))
          CFI ?RET_HIGH load(1, XDATA, add(CFA_XSP16, literal(-4)))
          CFI ?RET_LOW load(1, XDATA, add(CFA_XSP16, literal(-5)))
        MOV     R7,#0x2
        LJMP    ?BANKED_LEAVE_XDATA
          CFI EndBlock cfiBlock17
//  568 
//  569 /*********************************************************************
//  570  */

        RSEG XDATA_Z:XDATA:NOROOT(0)
        DATA8
//  571 uint8 shortddr[8];
shortddr:
        DS 8
        REQUIRE __INIT_XDATA_Z

        RSEG BANKED_CODE:CODE:NOROOT(0)
//  572 void GenericApp_SPI(void)
GenericApp_SPI:
          CFI Block cfiBlock18 Using cfiCommon0
          CFI Function GenericApp_SPI
        CODE
//  573 {       
        FUNCALL GenericApp_SPI, NLME_GetShortAddr
        LOCFRAME ISTACK, 0, STACK
        LOCFRAME PSTACK, 0, STACK
        LOCFRAME XSTACK, 10, STACK
        LOCFRAME IOVERLAY, 0, STATIC
        LOCFRAME DOVERLAY, 0, STATIC
        ARGFRAME ISTACK, 0, STACK
        ARGFRAME PSTACK, 0, STACK
        ARGFRAME XSTACK, 10, STACK
        ARGFRAME IOVERLAY, 0, STATIC
        ARGFRAME DOVERLAY, 0, STATIC
        FUNCALL GenericApp_SPI, hextoword1
        LOCFRAME ISTACK, 0, STACK
        LOCFRAME PSTACK, 0, STACK
        LOCFRAME XSTACK, 10, STACK
        LOCFRAME IOVERLAY, 0, STATIC
        LOCFRAME DOVERLAY, 0, STATIC
        ARGFRAME ISTACK, 0, STACK
        ARGFRAME PSTACK, 0, STACK
        ARGFRAME XSTACK, 10, STACK
        ARGFRAME IOVERLAY, 0, STATIC
        ARGFRAME DOVERLAY, 0, STATIC
        FUNCALL GenericApp_SPI, hextoword1
        LOCFRAME ISTACK, 0, STACK
        LOCFRAME PSTACK, 0, STACK
        LOCFRAME XSTACK, 10, STACK
        LOCFRAME IOVERLAY, 0, STATIC
        LOCFRAME DOVERLAY, 0, STATIC
        ARGFRAME ISTACK, 0, STACK
        ARGFRAME PSTACK, 0, STACK
        ARGFRAME XSTACK, 10, STACK
        ARGFRAME IOVERLAY, 0, STATIC
        ARGFRAME DOVERLAY, 0, STATIC
        FUNCALL GenericApp_SPI, HalUARTWrite
        LOCFRAME ISTACK, 0, STACK
        LOCFRAME PSTACK, 0, STACK
        LOCFRAME XSTACK, 10, STACK
        LOCFRAME IOVERLAY, 0, STATIC
        LOCFRAME DOVERLAY, 0, STATIC
        ARGFRAME ISTACK, 0, STACK
        ARGFRAME PSTACK, 0, STACK
        ARGFRAME XSTACK, 10, STACK
        ARGFRAME IOVERLAY, 0, STATIC
        ARGFRAME DOVERLAY, 0, STATIC
        MOV     A,#-0xa
        LCALL   ?BANKED_ENTER_XDATA
          CFI DPH0 load(1, XDATA, add(CFA_XSP16, literal(-1)))
          CFI DPL0 load(1, XDATA, add(CFA_XSP16, literal(-2)))
          CFI ?BRET_EXT load(1, XDATA, add(CFA_XSP16, literal(-3)))
          CFI ?RET_HIGH load(1, XDATA, add(CFA_XSP16, literal(-4)))
          CFI ?RET_LOW load(1, XDATA, add(CFA_XSP16, literal(-5)))
          CFI R7 load(1, XDATA, add(CFA_XSP16, literal(-6)))
          CFI V1 load(1, XDATA, add(CFA_XSP16, literal(-7)))
          CFI V0 load(1, XDATA, add(CFA_XSP16, literal(-8)))
          CFI VB load(1, XDATA, add(CFA_XSP16, literal(-9)))
          CFI R6 load(1, XDATA, add(CFA_XSP16, literal(-10)))
          CFI CFA_SP SP+0
          CFI CFA_XSP16 add(XSP16, 10)
        ; Saved register size: 10
        ; Auto size: 0
//  574   uint8 str_1[]="my short address is";
//  575   //HalUARTWrite(0,&str_1[0],20);
//  576   
//  577   uint16 short_ddr;
//  578   uint8 short_ddr_H;
//  579   uint8 short_ddr_L;
//  580   uint8 shortaddr[7];
//  581   uint8* pointerl;
//  582   
//  583   short_ddr=NLME_GetShortAddr();
        ; Setup parameters for call to function NLME_GetShortAddr
        LCALL   ??NLME_GetShortAddr?relay
        MOV     ?V0 + 0,R2
//  584   short_ddr_H=(uint8)((short_ddr&0xff00)>>8);
//  585   short_ddr_H=(uint8)short_ddr;
//  586   
//  587   shortddr[0]=48;
        MOV     DPTR,#shortddr
        MOV     A,#0x30
        MOVX    @DPTR,A
//  588   shortddr[1]=120;
        INC     DPTR
        MOV     A,#0x78
        MOVX    @DPTR,A
//  589   shortddr[2]=hextoword1(short_ddr_H);
        ; Setup parameters for call to function hextoword1
        MOV     R1,?V0 + 0
        LCALL   ??hextoword1?relay
        MOV     A,R1
        MOV     DPTR,#shortddr + 2
        MOVX    @DPTR,A
//  590   shortddr[3]=hextoword2(short_ddr_H);
        INC     DPTR
        MOV     A,#0x30
        MOVX    @DPTR,A
//  591   shortddr[4]=hextoword1(short_ddr_L);
        ; Setup parameters for call to function hextoword1
        MOV     R1,#0x0
        LCALL   ??hextoword1?relay
        MOV     A,R1
        MOV     DPTR,#shortddr + 4
        MOVX    @DPTR,A
//  592   shortddr[5]=hextoword2(short_ddr_L);
        INC     DPTR
        MOV     A,#0x30
        MOVX    @DPTR,A
//  593   shortddr[6]='\n';
        INC     DPTR
        MOV     A,#0xa
        MOVX    @DPTR,A
//  594   
//  595   pointerl=&shortaddr[0];
//  596   HalUARTWrite(0,"UART SUCCESS",12);
        ; Setup parameters for call to function HalUARTWrite
        MOV     R4,#0xc
        MOV     R5,#0x0
        MOV     R2,#`?<Constant "UART SUCCESS">` & 0xff
        MOV     R3,#(`?<Constant "UART SUCCESS">` >> 8) & 0xff
        MOV     R1,#0x0
        LCALL   ??HalUARTWrite?relay
//  597 }
        SJMP    ?Subroutine1
          CFI EndBlock cfiBlock18
//  598 /*uint8 * GetShortAddr(void)
//  599 {
//  600   uint8 * p;
//  601   shor_dr=NLME_GetShortAddr();
//  602   
//  603   short_dr_H=(uint8)((short_dr&0xff00)>>8);
//  604   short_dr_L=(uint8)short_dr;
//  605   
//  606   shortadr[0]=48;
//  607   shortadr[1]=120;
//  608   shortadr[2]=hextoword1(short_dr_H);
//  609   shortadr[3]=hextoword2(short_dr_H);
//  610   shortadr[4]=hextoword1(short_dr_L);
//  611   shortadr[5]=hextoword2(short_dr_L);
//  612   shortadr[6]='\n';
//  613   p=&shortaddr[0];
//  614   return(p);
//  615 }*/

        RSEG BANKED_CODE:CODE:NOROOT(0)
//  616 uint8 hextoword1(uint8 t)
hextoword1:
          CFI Block cfiBlock19 Using cfiCommon0
          CFI Function hextoword1
        CODE
//  617 {
        ; Saved register size: 0
        ; Auto size: 0
        MOV     A,R1
//  618   uint8 abc;
//  619   uint8 cba;
//  620   uint8 xx1;
//  621   abc = t;
//  622   cba = 0xf0;
//  623   abc=(abc&cba)>>4;
        SWAP    A
        ANL     A,#0xf
        MOV     R1,A
//  624   if(abc<10)
        CLR     C
        SUBB    A,#0xa
        JNC     ??hextoword1_0
//  625   {
//  626     xx1 = abc+48;
        MOV     A,#0x30
        SJMP    ??hextoword1_1
//  627   }
//  628   else
//  629   {
//  630     xx1=abc+55;
??hextoword1_0:
        MOV     A,#0x37
??hextoword1_1:
        ADD     A,R1
        MOV     R1,A
//  631   }
//  632   return xx1;
        LJMP    ?BRET
          CFI EndBlock cfiBlock19
//  633 }

        RSEG BANKED_CODE:CODE:NOROOT(0)
//  634 uint8 hextoword2(uint8 t)
hextoword2:
          CFI Block cfiBlock20 Using cfiCommon0
          CFI Function hextoword2
        CODE
//  635 {
        ; Saved register size: 0
        ; Auto size: 0
//  636   uint8 abc;
//  637   uint8 cba;
//  638   uint8 xx2;
//  639   abc = t;
//  640   cba = 0x0f;
//  641   abc=(abc&cba)>>4;
//  642   if(abc<10)
//  643   {
//  644     xx2 = abc+48;
//  645   }
//  646   else
//  647   {
//  648     xx2=abc+55;
//  649   }
//  650   return xx2;
        MOV     R1,#0x30
        LJMP    ?BRET
          CFI EndBlock cfiBlock20
//  651 }

        RSEG BANKED_CODE:CODE:NOROOT(0)
//  652 void GenericApp_UART1(afIncomingMSGPacket_t *pkt)
GenericApp_UART1:
          CFI Block cfiBlock21 Using cfiCommon0
          CFI Function GenericApp_UART1
        CODE
//  653 {
        FUNCALL GenericApp_UART1, HalUARTWrite
        LOCFRAME ISTACK, 2, STACK
        LOCFRAME PSTACK, 0, STACK
        LOCFRAME XSTACK, 0, STACK
        LOCFRAME IOVERLAY, 0, STATIC
        LOCFRAME DOVERLAY, 0, STATIC
        ARGFRAME ISTACK, 2, STACK
        ARGFRAME PSTACK, 0, STACK
        ARGFRAME XSTACK, 0, STACK
        ARGFRAME IOVERLAY, 0, STATIC
        ARGFRAME DOVERLAY, 0, STATIC
        FUNCALL GenericApp_UART1, MT_UartAppFlowControl
        LOCFRAME ISTACK, 2, STACK
        LOCFRAME PSTACK, 0, STACK
        LOCFRAME XSTACK, 0, STACK
        LOCFRAME IOVERLAY, 0, STATIC
        LOCFRAME DOVERLAY, 0, STATIC
        ARGFRAME ISTACK, 2, STACK
        ARGFRAME PSTACK, 0, STACK
        ARGFRAME XSTACK, 0, STACK
        ARGFRAME IOVERLAY, 0, STATIC
        ARGFRAME DOVERLAY, 0, STATIC
        PUSH    DPL
          CFI DPL0 Frame(CFA_SP, 4)
          CFI CFA_SP SP+-4
        PUSH    DPH
          CFI DPH0 Frame(CFA_SP, 5)
          CFI CFA_SP SP+-5
        ; Saved register size: 2
        ; Auto size: 0
//  654   HalUARTWrite(0,(uint8 *)((osal_event_hdr_t *)pkt+1),pkt->hdr.status);
        ; Setup parameters for call to function HalUARTWrite
        MOV     DPL,R2
        MOV     DPH,R3
        INC     DPTR
        MOVX    A,@DPTR
        MOV     R4,A
        MOV     R5,#0x0
        MOV     A,R2
        ADD     A,#0x2
        MOV     R2,A
        MOV     A,R3
        ADDC    A,#0x0
        MOV     R3,A
        MOV     R1,#0x0
        LCALL   ??HalUARTWrite?relay
//  655   MT_UartAppFlowControl(true);
        ; Setup parameters for call to function MT_UartAppFlowControl
        MOV     R1,#0x1
        LCALL   ??MT_UartAppFlowControl?relay
//  656 }
        POP     DPH
          CFI DPH0 SameValue
          CFI CFA_SP SP+-4
        POP     DPL
          CFI DPL0 SameValue
          CFI CFA_SP SP+-3
        LJMP    ?BRET
          CFI EndBlock cfiBlock21

        RSEG XDATA_ID:CODE:NOROOT(0)
`?<Initializer for temp1>`:
        DATA8
        DB 97

        RSEG XDATA_ID:CODE:NOROOT(0)
`?<Initializer for temp2>`:
        DATA8
        DB 97

        RSEG XDATA_ID:CODE:NOROOT(0)
`?<Initializer for temp3>`:
        DATA8
        DB 97

        RSEG XDATA_ID:CODE:NOROOT(0)
`?<Initializer for temp4>`:
        DATA8
        DB 97

        RSEG XDATA_ID:CODE:NOROOT(0)
`?<Initializer for temp5>`:
        DATA8
        DB 97

        RSEG BANK_RELAYS:CODE:REORDER:NOROOT(0)
??Delays?relay:
        CODE
        LCALL   ?BDISPATCH
        DATA24
        DC24    Delays

        RSEG BANK_RELAYS:CODE:REORDER:NOROOT(0)
??initUARTSEND?relay:
        CODE
        LCALL   ?BDISPATCH
        DATA24
        DC24    initUARTSEND

        RSEG BANK_RELAYS:CODE:REORDER:NOROOT(0)
??GenericApp_Init?relay:
        CODE
        LCALL   ?BDISPATCH
        DATA24
        DC24    GenericApp_Init

        RSEG BANK_RELAYS:CODE:REORDER:NOROOT(0)
??GenericApp_ProcessEvent?relay:
        CODE
        LCALL   ?BDISPATCH
        DATA24
        DC24    GenericApp_ProcessEvent

        RSEG BANK_RELAYS:CODE:REORDER:NOROOT(0)
??GenericApp_MessageMSGCB?relay:
        CODE
        LCALL   ?BDISPATCH
        DATA24
        DC24    GenericApp_MessageMSGCB

        RSEG BANK_RELAYS:CODE:REORDER:NOROOT(0)
??GenericApp_SendTheMessage?relay:
        CODE
        LCALL   ?BDISPATCH
        DATA24
        DC24    GenericApp_SendTheMessage

        RSEG BANK_RELAYS:CODE:REORDER:NOROOT(0)
??GenericApp_SPI?relay:
        CODE
        LCALL   ?BDISPATCH
        DATA24
        DC24    GenericApp_SPI

        RSEG BANK_RELAYS:CODE:REORDER:NOROOT(0)
??hextoword1?relay:
        CODE
        LCALL   ?BDISPATCH
        DATA24
        DC24    hextoword1

        RSEG BANK_RELAYS:CODE:REORDER:NOROOT(0)
??hextoword2?relay:
        CODE
        LCALL   ?BDISPATCH
        DATA24
        DC24    hextoword2

        RSEG BANK_RELAYS:CODE:REORDER:NOROOT(0)
??GenericApp_UART1?relay:
        CODE
        LCALL   ?BDISPATCH
        DATA24
        DC24    GenericApp_UART1

        RSEG XDATA_ROM_C:CONST:REORDER:NOROOT(0)
        DATA8
`?<Constant "Light">`:
        DB "Light"

        RSEG XDATA_ROM_C:CONST:REORDER:NOROOT(0)
        DATA16
`?<Constant "\\n">`:
        DB "\012"

        RSEG XDATA_ROM_C:CONST:REORDER:NOROOT(0)
        DATA32
`?<Constant "tem">`:
        DB "tem"

        RSEG XDATA_ROM_C:CONST:REORDER:NOROOT(0)
        DATA32
`?<Constant "hum">`:
        DB "hum"

        RSEG XDATA_ROM_C:CONST:REORDER:NOROOT(0)
        DATA8
`?<Constant "UART SUCCESS">`:
        DB "UART SUCCESS"

        END
// 
// 1 001 bytes in segment BANKED_CODE
//    60 bytes in segment BANK_RELAYS
//     9 bytes in segment SFR_AN
//     5 bytes in segment XDATA_I
//     5 bytes in segment XDATA_ID
//    57 bytes in segment XDATA_ROM_C
//    28 bytes in segment XDATA_Z
// 
// 1 066 bytes of CODE  memory
//    57 bytes of CONST memory
//     0 bytes of DATA  memory (+ 9 bytes shared)
//    33 bytes of XDATA memory
//
//Errors: none
//Warnings: 3
