///////////////////////////////////////////////////////////////////////////////
//                                                                            /
// IAR C/C++ Compiler V8.10.3.10338/W32 for 8051        13/Feb/2014  16:00:05 /
// Copyright 2004-2011 IAR Systems AB.                                        /
//                                                                            /
//    Core               =  plain                                             /
//    Code model         =  banked                                            /
//    Data model         =  large                                             /
//    Calling convention =  xdata reentrant                                   /
//    Constant location  =  data_rom                                          /
//    Dptr setup         =  1,16                                              /
//    Source file        =  C:\Users\OurEDA\Documents\Tencent                 /
//                          Files\1534143789\FileRecv\ZStack-CC2530-2.5.1a\ZS /
//                          tack-CC2530-2.5.1a\Projects\zstack\Samples\05Post /
//                          ure_ENDDB - 副本\Source\BH1750.c                  /
//    Command line       =  -f "C:\Users\OurEDA\Documents\Tencent             /
//                          Files\1534143789\FileRecv\ZStack-CC2530-2.5.1a\ZS /
//                          tack-CC2530-2.5.1a\Projects\zstack\Samples\05Post /
//                          ure_ENDDB - 副本\CC2530DB\..\..\..\Tools\CC2530DB /
//                          \f8wEndev.cfg" (-DCPU32MHZ -DROOT=__near_func     /
//                          -DMAC_CFG_TX_DATA_MAX=3 -DMAC_CFG_TX_MAX=6        /
//                          -DMAC_CFG_RX_MAX=3) -f "C:\Users\OurEDA\Documents /
//                          \Tencent Files\1534143789\FileRecv\ZStack-CC2530- /
//                          2.5.1a\ZStack-CC2530-2.5.1a\Projects\zstack\Sampl /
//                          es\05Posture_ENDDB - 副本\CC2530DB\..\..\..\Tools /
//                          \CC2530DB\f8wConfig.cfg" (-DZIGBEEPRO -DSECURE=0  /
//                          -DZG_SECURE_DYNAMIC=0 -DREFLECTOR                 /
//                          -DDEFAULT_CHANLIST=0x00000800                     /
//                          -DZDAPP_CONFIG_PAN_ID=0xFFFF                      /
//                          -DNWK_START_DELAY=100 -DEXTENDED_JOINING_RANDOM_M /
//                          ASK=0x007F -DBEACON_REQUEST_DELAY=100             /
//                          -DBEACON_REQ_DELAY_MASK=0x00FF                    /
//                          -DLINK_STATUS_JITTER_MASK=0x007F                  /
//                          -DROUTE_EXPIRY_TIME=30 -DAPSC_ACK_WAIT_DURATION_P /
//                          OLLED=3000 -DNWK_INDIRECT_MSG_TIMEOUT=7           /
//                          -DMAX_RREQ_ENTRIES=8 -DAPSC_MAX_FRAME_RETRIES=3   /
//                          -DNWK_MAX_DATA_RETRIES=2                          /
//                          -DMAX_POLL_FAILURE_RETRIES=2 -DMAX_BCAST=9        /
//                          -DAPS_MAX_GROUPS=16 -DMAX_RTG_ENTRIES=40          /
//                          -DNWK_MAX_BINDING_ENTRIES=4                       /
//                          -DMAX_BINDING_CLUSTER_IDS=4                       /
//                          "-DDEFAULT_KEY={0x01, 0x03, 0x05, 0x07, 0x09,     /
//                          0x0B, 0x0D, 0x0F, 0x00, 0x02, 0x04, 0x06, 0x08,   /
//                          0x0A, 0x0C, 0x0D}" -DMAC_MAX_FRAME_SIZE=116       /
//                          -DZDNWKMGR_MIN_TRANSMISSIONS=20 "-DCONST=const    /
//                          __code" -DGENERIC=__generic                       /
//                          -DRFD_RCVC_ALWAYS_ON=FALSE -DPOLL_RATE=1000       /
//                          -DQUEUED_POLL_RATE=100 -DRESPONSE_POLL_RATE=100)  /
//                          -DREJOIN_POLL_RATE=440 "C:\Users\OurEDA\Documents /
//                          \Tencent Files\1534143789\FileRecv\ZStack-CC2530- /
//                          2.5.1a\ZStack-CC2530-2.5.1a\Projects\zstack\Sampl /
//                          es\05Posture_ENDDB - 副本\Source\BH1750.c" -D     /
//                          NWK_AUTO_POLL -D ZTOOL_P1 -D MT_TASK -D           /
//                          MT_SYS_FUNC -D MT_ZDO_FUNC -D                     /
//                          LCD_SUPPORTED=DEBUG -D xPOWER_SAVING -lC          /
//                          "C:\Users\OurEDA\Documents\Tencent                /
//                          Files\1534143789\FileRecv\ZStack-CC2530-2.5.1a\ZS /
//                          tack-CC2530-2.5.1a\Projects\zstack\Samples\05Post /
//                          ure_ENDDB - 副本\CC2530DB\EndDeviceEB\List\" -lA  /
//                          "C:\Users\OurEDA\Documents\Tencent                /
//                          Files\1534143789\FileRecv\ZStack-CC2530-2.5.1a\ZS /
//                          tack-CC2530-2.5.1a\Projects\zstack\Samples\05Post /
//                          ure_ENDDB - 副本\CC2530DB\EndDeviceEB\List\"      /
//                          --diag_suppress Pe001,Pa010 -o                    /
//                          "C:\Users\OurEDA\Documents\Tencent                /
//                          Files\1534143789\FileRecv\ZStack-CC2530-2.5.1a\ZS /
//                          tack-CC2530-2.5.1a\Projects\zstack\Samples\05Post /
//                          ure_ENDDB - 副本\CC2530DB\EndDeviceEB\Obj\" -e    /
//                          --no_code_motion --debug --core=plain             /
//                          --dptr=16,1 --data_model=large                    /
//                          --code_model=banked --calling_convention=xdata_re /
//                          entrant --place_constants=data_rom                /
//                          --nr_virtual_regs 16 -I                           /
//                          "C:\Users\OurEDA\Documents\Tencent                /
//                          Files\1534143789\FileRecv\ZStack-CC2530-2.5.1a\ZS /
//                          tack-CC2530-2.5.1a\Projects\zstack\Samples\05Post /
//                          ure_ENDDB - 副本\CC2530DB\" -I                    /
//                          "C:\Users\OurEDA\Documents\Tencent                /
//                          Files\1534143789\FileRecv\ZStack-CC2530-2.5.1a\ZS /
//                          tack-CC2530-2.5.1a\Projects\zstack\Samples\05Post /
//                          ure_ENDDB - 副本\CC2530DB\..\Source\" -I          /
//                          "C:\Users\OurEDA\Documents\Tencent                /
//                          Files\1534143789\FileRecv\ZStack-CC2530-2.5.1a\ZS /
//                          tack-CC2530-2.5.1a\Projects\zstack\Samples\05Post /
//                          ure_ENDDB - 副本\CC2530DB\..\..\..\ZMain\TI2530DB /
//                          \" -I "C:\Users\OurEDA\Documents\Tencent          /
//                          Files\1534143789\FileRecv\ZStack-CC2530-2.5.1a\ZS /
//                          tack-CC2530-2.5.1a\Projects\zstack\Samples\05Post /
//                          ure_ENDDB - 副本\CC2530DB\..\..\..\..\..\Componen /
//                          ts\hal\include\" -I "C:\Users\OurEDA\Documents\Te /
//                          ncent Files\1534143789\FileRecv\ZStack-CC2530-2.5 /
//                          .1a\ZStack-CC2530-2.5.1a\Projects\zstack\Samples\ /
//                          05Posture_ENDDB - 副本\CC2530DB\..\..\..\..\..\Co /
//                          mponents\hal\target\CC2530EB\" -I                 /
//                          "C:\Users\OurEDA\Documents\Tencent                /
//                          Files\1534143789\FileRecv\ZStack-CC2530-2.5.1a\ZS /
//                          tack-CC2530-2.5.1a\Projects\zstack\Samples\05Post /
//                          ure_ENDDB - 副本\CC2530DB\..\..\..\..\..\Componen /
//                          ts\mac\include\" -I "C:\Users\OurEDA\Documents\Te /
//                          ncent Files\1534143789\FileRecv\ZStack-CC2530-2.5 /
//                          .1a\ZStack-CC2530-2.5.1a\Projects\zstack\Samples\ /
//                          05Posture_ENDDB - 副本\CC2530DB\..\..\..\..\..\Co /
//                          mponents\mac\high_level\" -I                      /
//                          "C:\Users\OurEDA\Documents\Tencent                /
//                          Files\1534143789\FileRecv\ZStack-CC2530-2.5.1a\ZS /
//                          tack-CC2530-2.5.1a\Projects\zstack\Samples\05Post /
//                          ure_ENDDB - 副本\CC2530DB\..\..\..\..\..\Componen /
//                          ts\mac\low_level\srf04\" -I                       /
//                          "C:\Users\OurEDA\Documents\Tencent                /
//                          Files\1534143789\FileRecv\ZStack-CC2530-2.5.1a\ZS /
//                          tack-CC2530-2.5.1a\Projects\zstack\Samples\05Post /
//                          ure_ENDDB - 副本\CC2530DB\..\..\..\..\..\Componen /
//                          ts\mac\low_level\srf04\single_chip\" -I           /
//                          "C:\Users\OurEDA\Documents\Tencent                /
//                          Files\1534143789\FileRecv\ZStack-CC2530-2.5.1a\ZS /
//                          tack-CC2530-2.5.1a\Projects\zstack\Samples\05Post /
//                          ure_ENDDB - 副本\CC2530DB\..\..\..\..\..\Componen /
//                          ts\mt\" -I "C:\Users\OurEDA\Documents\Tencent     /
//                          Files\1534143789\FileRecv\ZStack-CC2530-2.5.1a\ZS /
//                          tack-CC2530-2.5.1a\Projects\zstack\Samples\05Post /
//                          ure_ENDDB - 副本\CC2530DB\..\..\..\..\..\Componen /
//                          ts\osal\include\" -I "C:\Users\OurEDA\Documents\T /
//                          encent Files\1534143789\FileRecv\ZStack-CC2530-2. /
//                          5.1a\ZStack-CC2530-2.5.1a\Projects\zstack\Samples /
//                          \05Posture_ENDDB - 副本\CC2530DB\..\..\..\..\..\C /
//                          omponents\services\saddr\" -I                     /
//                          "C:\Users\OurEDA\Documents\Tencent                /
//                          Files\1534143789\FileRecv\ZStack-CC2530-2.5.1a\ZS /
//                          tack-CC2530-2.5.1a\Projects\zstack\Samples\05Post /
//                          ure_ENDDB - 副本\CC2530DB\..\..\..\..\..\Componen /
//                          ts\services\sdata\" -I "C:\Users\OurEDA\Documents /
//                          \Tencent Files\1534143789\FileRecv\ZStack-CC2530- /
//                          2.5.1a\ZStack-CC2530-2.5.1a\Projects\zstack\Sampl /
//                          es\05Posture_ENDDB - 副本\CC2530DB\..\..\..\..\.. /
//                          \Components\stack\af\" -I                         /
//                          "C:\Users\OurEDA\Documents\Tencent                /
//                          Files\1534143789\FileRecv\ZStack-CC2530-2.5.1a\ZS /
//                          tack-CC2530-2.5.1a\Projects\zstack\Samples\05Post /
//                          ure_ENDDB - 副本\CC2530DB\..\..\..\..\..\Componen /
//                          ts\stack\nwk\" -I "C:\Users\OurEDA\Documents\Tenc /
//                          ent Files\1534143789\FileRecv\ZStack-CC2530-2.5.1 /
//                          a\ZStack-CC2530-2.5.1a\Projects\zstack\Samples\05 /
//                          Posture_ENDDB - 副本\CC2530DB\..\..\..\..\..\Comp /
//                          onents\stack\sapi\" -I "C:\Users\OurEDA\Documents /
//                          \Tencent Files\1534143789\FileRecv\ZStack-CC2530- /
//                          2.5.1a\ZStack-CC2530-2.5.1a\Projects\zstack\Sampl /
//                          es\05Posture_ENDDB - 副本\CC2530DB\..\..\..\..\.. /
//                          \Components\stack\sec\" -I                        /
//                          "C:\Users\OurEDA\Documents\Tencent                /
//                          Files\1534143789\FileRecv\ZStack-CC2530-2.5.1a\ZS /
//                          tack-CC2530-2.5.1a\Projects\zstack\Samples\05Post /
//                          ure_ENDDB - 副本\CC2530DB\..\..\..\..\..\Componen /
//                          ts\stack\sys\" -I "C:\Users\OurEDA\Documents\Tenc /
//                          ent Files\1534143789\FileRecv\ZStack-CC2530-2.5.1 /
//                          a\ZStack-CC2530-2.5.1a\Projects\zstack\Samples\05 /
//                          Posture_ENDDB - 副本\CC2530DB\..\..\..\..\..\Comp /
//                          onents\stack\zdo\" -I "C:\Users\OurEDA\Documents\ /
//                          Tencent Files\1534143789\FileRecv\ZStack-CC2530-2 /
//                          .5.1a\ZStack-CC2530-2.5.1a\Projects\zstack\Sample /
//                          s\05Posture_ENDDB - 副本\CC2530DB\..\..\..\..\..\ /
//                          Components\zmac\" -I "C:\Users\OurEDA\Documents\T /
//                          encent Files\1534143789\FileRecv\ZStack-CC2530-2. /
//                          5.1a\ZStack-CC2530-2.5.1a\Projects\zstack\Samples /
//                          \05Posture_ENDDB - 副本\CC2530DB\..\..\..\..\..\C /
//                          omponents\zmac\f8w\" -Ohz                         /
//    List file          =  C:\Users\OurEDA\Documents\Tencent                 /
//                          Files\1534143789\FileRecv\ZStack-CC2530-2.5.1a\ZS /
//                          tack-CC2530-2.5.1a\Projects\zstack\Samples\05Post /
//                          ure_ENDDB - 副本\CC2530DB\EndDeviceEB\List\BH1750 /
//                          .s51                                              /
//                                                                            /
//                                                                            /
///////////////////////////////////////////////////////////////////////////////

        NAME BH1750

        RTMODEL "__SystemLibrary", "CLib"
        RTMODEL "__calling_convention", "xdata_reentrant"
        RTMODEL "__code_model", "banked"
        RTMODEL "__core", "plain"
        RTMODEL "__data_model", "large"
        RTMODEL "__dptr_size", "16"
        RTMODEL "__extended_stack", "disabled"
        RTMODEL "__location_for_constants", "data"
        RTMODEL "__number_of_dptrs", "1"
        RTMODEL "__rt_version", "1"

        RSEG DOVERLAY:DATA:NOROOT(0)
        RSEG IOVERLAY:IDATA:NOROOT(0)
        RSEG ISTACK:IDATA:NOROOT(0)
        RSEG PSTACK:XDATA:NOROOT(0)
        RSEG XSTACK:XDATA:NOROOT(0)

        EXTERN ?BANKED_ENTER_XDATA
        EXTERN ?BANKED_LEAVE_XDATA
        EXTERN ?BDISPATCH
        EXTERN ?BRET
        EXTERN ?US_DIV_MOD
        EXTERN ?V0
        EXTERN __INIT_XDATA_Z

        PUBLIC ??BH1750_RecvByte?relay
        FUNCTION ??BH1750_RecvByte?relay,0203H
        PUBLIC ??BH1750_SendByte?relay
        FUNCTION ??BH1750_SendByte?relay,0203H
        PUBLIC ??BH1750_Start?relay
        FUNCTION ??BH1750_Start?relay,0203H
        PUBLIC ??BH1750_Stop?relay
        FUNCTION ??BH1750_Stop?relay,0203H
        PUBLIC ??Delay5ms?relay
        FUNCTION ??Delay5ms?relay,0203H
        PUBLIC ??Delay5us?relay
        FUNCTION ??Delay5us?relay,0203H
        PUBLIC ??Init_BH1750?relay
        FUNCTION ??Init_BH1750?relay,0203H
        PUBLIC ??Multiple_Read?relay
        FUNCTION ??Multiple_Read?relay,0203H
        PUBLIC ??Single_Write_BH1750?relay
        FUNCTION ??Single_Write_BH1750?relay,0203H
        PUBLIC ??conversion?relay
        FUNCTION ??conversion?relay,0203H
        PUBLIC ??delay_nms?relay
        FUNCTION ??delay_nms?relay,0203H
        PUBLIC BH1750_RecvByte
        FUNCTION BH1750_RecvByte,021203H
        ARGFRAME XSTACK, 10, STACK
        ARGFRAME IOVERLAY, 0, STATIC
        ARGFRAME DOVERLAY, 0, STATIC
        LOCFRAME XSTACK, 9, STACK
        PUBLIC BH1750_SendByte
        FUNCTION BH1750_SendByte,021203H
        ARGFRAME XSTACK, 10, STACK
        ARGFRAME IOVERLAY, 0, STATIC
        ARGFRAME DOVERLAY, 0, STATIC
        LOCFRAME XSTACK, 9, STACK
        PUBLIC BH1750_Start
        FUNCTION BH1750_Start,021203H
        ARGFRAME XSTACK, 10, STACK
        ARGFRAME IOVERLAY, 0, STATIC
        ARGFRAME DOVERLAY, 0, STATIC
        LOCFRAME ISTACK, 2, STACK
        PUBLIC BH1750_Stop
        FUNCTION BH1750_Stop,021203H
        ARGFRAME XSTACK, 10, STACK
        ARGFRAME IOVERLAY, 0, STATIC
        ARGFRAME DOVERLAY, 0, STATIC
        LOCFRAME ISTACK, 2, STACK
        PUBLIC BUF
        PUBLIC Delay5ms
        FUNCTION Delay5ms,021203H
        ARGFRAME XSTACK, 10, STACK
        ARGFRAME IOVERLAY, 0, STATIC
        ARGFRAME DOVERLAY, 0, STATIC
        LOCFRAME XSTACK, 9, STACK
        PUBLIC Delay5us
        FUNCTION Delay5us,080203H
        ARGFRAME XSTACK, 11, STACK
        ARGFRAME IOVERLAY, 0, STATIC
        ARGFRAME DOVERLAY, 0, STATIC
        PUBLIC Init_BH1750
        FUNCTION Init_BH1750,021203H
        ARGFRAME XSTACK, 0, STACK
        LOCFRAME ISTACK, 2, STACK
        PUBLIC Multiple_Read
        FUNCTION Multiple_Read,021203H
        ARGFRAME XSTACK, 0, STACK
        LOCFRAME ISTACK, 1, STACK
        LOCFRAME XSTACK, 10, STACK
        PUBWEAK P1DIR
        PUBLIC Single_Write_BH1750
        FUNCTION Single_Write_BH1750,021203H
        ARGFRAME XSTACK, 0, STACK
        ARGFRAME IOVERLAY, 0, STATIC
        ARGFRAME DOVERLAY, 0, STATIC
        LOCFRAME XSTACK, 9, STACK
        PUBWEAK _A_P1
        PUBWEAK _A_PSW
        PUBLIC bai
        PUBLIC conversion
        FUNCTION conversion,0203H
        ARGFRAME XSTACK, 0, STACK
        LOCFRAME XSTACK, 10, STACK
        PUBLIC delay_nms
        FUNCTION delay_nms,021203H
        ARGFRAME XSTACK, 0, STACK
        LOCFRAME XSTACK, 11, STACK
        PUBLIC dis_data
        PUBLIC `ge`
        PUBLIC qian
        PUBLIC shi
        PUBLIC wan
        
        CFI Names cfiNames0
        CFI StackFrame CFA_SP SP IDATA
        CFI StackFrame CFA_PSP16 PSP16 XDATA
        CFI StackFrame CFA_XSP16 XSP16 XDATA
        CFI StaticOverlayFrame CFA_IOVERLAY IOVERLAY
        CFI StaticOverlayFrame CFA_DOVERLAY DOVERLAY
        CFI Resource `PSW.CY`:1, `B.BR0`:1, `B.BR1`:1, `B.BR2`:1, `B.BR3`:1
        CFI Resource `B.BR4`:1, `B.BR5`:1, `B.BR6`:1, `B.BR7`:1, `VB.BR8`:1
        CFI Resource `VB.BR9`:1, `VB.BR10`:1, `VB.BR11`:1, `VB.BR12`:1
        CFI Resource `VB.BR13`:1, `VB.BR14`:1, `VB.BR15`:1, VB:8, B:8, A:8
        CFI Resource PSW:8, DPL0:8, DPH0:8, R0:8, R1:8, R2:8, R3:8, R4:8, R5:8
        CFI Resource R6:8, R7:8, V0:8, V1:8, V2:8, V3:8, V4:8, V5:8, V6:8, V7:8
        CFI Resource V8:8, V9:8, V10:8, V11:8, V12:8, V13:8, V14:8, V15:8, SP:8
        CFI Resource PSPH:8, PSPL:8, PSP16:16, XSPH:8, XSPL:8, XSP16:16
        CFI VirtualResource ?RET:24
        CFI Resource ?BRET_EXT:8
        CFI VirtualResource ?RET_HIGH:8, ?RET_LOW:8
        CFI ResourceParts PSP16 PSPH, PSPL
        CFI ResourceParts XSP16 XSPH, XSPL
        CFI ResourceParts ?RET ?BRET_EXT, ?RET_HIGH, ?RET_LOW
        CFI EndNames cfiNames0
        
        CFI Common cfiCommon0 Using cfiNames0
        CFI CodeAlign 1
        CFI DataAlign -1
        CFI ReturnAddress ?RET CODE
        CFI CFA_DOVERLAY Used
        CFI CFA_IOVERLAY Used
        CFI CFA_SP SP+-3
        CFI CFA_PSP16 PSP16+0
        CFI CFA_XSP16 XSP16+0
        CFI `PSW.CY` SameValue
        CFI `B.BR0` SameValue
        CFI `B.BR1` SameValue
        CFI `B.BR2` SameValue
        CFI `B.BR3` SameValue
        CFI `B.BR4` SameValue
        CFI `B.BR5` SameValue
        CFI `B.BR6` SameValue
        CFI `B.BR7` SameValue
        CFI `VB.BR8` SameValue
        CFI `VB.BR9` SameValue
        CFI `VB.BR10` SameValue
        CFI `VB.BR11` SameValue
        CFI `VB.BR12` SameValue
        CFI `VB.BR13` SameValue
        CFI `VB.BR14` SameValue
        CFI `VB.BR15` SameValue
        CFI VB SameValue
        CFI B Undefined
        CFI A Undefined
        CFI PSW SameValue
        CFI DPL0 SameValue
        CFI DPH0 SameValue
        CFI R0 Undefined
        CFI R1 Undefined
        CFI R2 Undefined
        CFI R3 Undefined
        CFI R4 Undefined
        CFI R5 Undefined
        CFI R6 SameValue
        CFI R7 SameValue
        CFI V0 SameValue
        CFI V1 SameValue
        CFI V2 SameValue
        CFI V3 SameValue
        CFI V4 SameValue
        CFI V5 SameValue
        CFI V6 SameValue
        CFI V7 SameValue
        CFI V8 SameValue
        CFI V9 SameValue
        CFI V10 SameValue
        CFI V11 SameValue
        CFI V12 SameValue
        CFI V13 SameValue
        CFI V14 SameValue
        CFI V15 SameValue
        CFI PSPH Undefined
        CFI PSPL Undefined
        CFI XSPH Undefined
        CFI XSPL Undefined
        CFI ?RET Concat
        CFI ?BRET_EXT Frame(CFA_SP, 3)
        CFI ?RET_HIGH Frame(CFA_SP, 2)
        CFI ?RET_LOW Frame(CFA_SP, 1)
        CFI EndCommon cfiCommon0
        
        
        CFI Common cfiCommon1 Using cfiNames0
        CFI CodeAlign 1
        CFI DataAlign -1
        CFI ReturnAddress ?RET CODE
        CFI CFA_DOVERLAY Used
        CFI CFA_IOVERLAY Used
        CFI CFA_SP SP+-2
        CFI CFA_PSP16 PSP16+0
        CFI CFA_XSP16 XSP16+0
        CFI `PSW.CY` SameValue
        CFI `B.BR0` SameValue
        CFI `B.BR1` SameValue
        CFI `B.BR2` SameValue
        CFI `B.BR3` SameValue
        CFI `B.BR4` SameValue
        CFI `B.BR5` SameValue
        CFI `B.BR6` SameValue
        CFI `B.BR7` SameValue
        CFI `VB.BR8` SameValue
        CFI `VB.BR9` SameValue
        CFI `VB.BR10` SameValue
        CFI `VB.BR11` SameValue
        CFI `VB.BR12` SameValue
        CFI `VB.BR13` SameValue
        CFI `VB.BR14` SameValue
        CFI `VB.BR15` SameValue
        CFI VB SameValue
        CFI B SameValue
        CFI A SameValue
        CFI PSW SameValue
        CFI DPL0 SameValue
        CFI DPH0 SameValue
        CFI R0 SameValue
        CFI R1 SameValue
        CFI R2 SameValue
        CFI R3 SameValue
        CFI R4 SameValue
        CFI R5 SameValue
        CFI R6 SameValue
        CFI R7 SameValue
        CFI V0 SameValue
        CFI V1 SameValue
        CFI V2 SameValue
        CFI V3 SameValue
        CFI V4 SameValue
        CFI V5 SameValue
        CFI V6 SameValue
        CFI V7 SameValue
        CFI V8 SameValue
        CFI V9 SameValue
        CFI V10 SameValue
        CFI V11 SameValue
        CFI V12 SameValue
        CFI V13 SameValue
        CFI V14 SameValue
        CFI V15 SameValue
        CFI PSPH Undefined
        CFI PSPL Undefined
        CFI XSPH Undefined
        CFI XSPL Undefined
        CFI ?RET Concat
        CFI ?BRET_EXT SameValue
        CFI ?RET_HIGH Frame(CFA_SP, 2)
        CFI ?RET_LOW Frame(CFA_SP, 1)
        CFI EndCommon cfiCommon1
        
BH1750_RecvByte     SYMBOL "BH1750_RecvByte"
??BH1750_RecvByte?relay SYMBOL "?relay", BH1750_RecvByte
BH1750_SendByte     SYMBOL "BH1750_SendByte"
??BH1750_SendByte?relay SYMBOL "?relay", BH1750_SendByte
BH1750_Start        SYMBOL "BH1750_Start"
??BH1750_Start?relay SYMBOL "?relay", BH1750_Start
BH1750_Stop         SYMBOL "BH1750_Stop"
??BH1750_Stop?relay SYMBOL "?relay", BH1750_Stop
Delay5ms            SYMBOL "Delay5ms"
??Delay5ms?relay    SYMBOL "?relay", Delay5ms
Delay5us            SYMBOL "Delay5us"
??Delay5us?relay    SYMBOL "?relay", Delay5us
Init_BH1750         SYMBOL "Init_BH1750"
??Init_BH1750?relay SYMBOL "?relay", Init_BH1750
Multiple_Read       SYMBOL "Multiple_Read"
??Multiple_Read?relay SYMBOL "?relay", Multiple_Read
Single_Write_BH1750 SYMBOL "Single_Write_BH1750"
??Single_Write_BH1750?relay SYMBOL "?relay", Single_Write_BH1750
conversion          SYMBOL "conversion"
??conversion?relay  SYMBOL "?relay", conversion
delay_nms           SYMBOL "delay_nms"
??delay_nms?relay   SYMBOL "?relay", delay_nms

// C:\Users\OurEDA\Documents\Tencent Files\1534143789\FileRecv\ZStack-CC2530-2.5.1a\ZStack-CC2530-2.5.1a\Projects\zstack\Samples\05Posture_ENDDB - 副本\Source\BH1750.c
//    1 /*******************************************************
//    2 文件名:main.c
//    3 版本号:v1.0
//    4 创建日期:2013-10-23
//    5 作者：楼D航
//    6 主要函数描述：conversion 转换数据可供显示的ACII值
//    7               BH1750_Start() BH1750_Stop()分别给出启动和停止信号
//    8               BH1750_SendByte(BYTE dat)送一字节数据
//    9               BH1750_RecvByte()接受一个字节数据
//   10               Single_Write_BH1750(uchar REG_Address)写一个字节
//   11               Multiple_Read()连续读出内部数据
//   12               Init_BH1750()初始化BH1750
//   13 ********************************************************/
//   14 
//   15 #include "BH1750.h"

        ASEGN SFR_AN:DATA:NOROOT,090H
// union <unnamed> volatile __sfr _A_P1
_A_P1:
        DATA8
        DS 1

        ASEGN SFR_AN:DATA:NOROOT,0d0H
// union <unnamed> volatile __sfr _A_PSW
_A_PSW:
        DATA8
        DS 1

        ASEGN SFR_AN:DATA:NOROOT,0feH
// unsigned char volatile __sfr P1DIR
P1DIR:
        DATA8
        DS 1
//   16 

        RSEG XDATA_Z:XDATA:NOROOT(0)
        DATA8
//   17 BYTE    BUF[8];
BUF:
        DS 8
        REQUIRE __INIT_XDATA_Z

        RSEG XDATA_Z:XDATA:NOROOT(0)
        DATA8
//   18 uchar   ge, shi, bai, qian, wan;            //显示变量
`ge`:
        DS 1
        REQUIRE __INIT_XDATA_Z

        RSEG XDATA_Z:XDATA:NOROOT(0)
        DATA8
shi:
        DS 1
        REQUIRE __INIT_XDATA_Z

        RSEG XDATA_Z:XDATA:NOROOT(0)
        DATA8
bai:
        DS 1
        REQUIRE __INIT_XDATA_Z

        RSEG XDATA_Z:XDATA:NOROOT(0)
        DATA8
qian:
        DS 1
        REQUIRE __INIT_XDATA_Z

        RSEG XDATA_Z:XDATA:NOROOT(0)
        DATA8
wan:
        DS 1
        REQUIRE __INIT_XDATA_Z

        RSEG XDATA_Z:XDATA:NOROOT(0)
        DATA16
//   19 int     dis_data;
dis_data:
        DS 2
        REQUIRE __INIT_XDATA_Z
//   20 
//   21 
//   22 //*********************************************************

        RSEG BANKED_CODE:CODE:NOROOT(0)
//   23 void conversion(uint temp_data)  //  数据转换出 个，十，百，千，万
conversion:
        CFI Block cfiBlock0 Using cfiCommon0
        CFI Function conversion
        CODE
//   24 {
        MOV     A,#-0xa
        LCALL   ?BANKED_ENTER_XDATA
        CFI DPH0 load(1, XDATA, add(CFA_XSP16, literal(-1)))
        CFI DPL0 load(1, XDATA, add(CFA_XSP16, literal(-2)))
        CFI ?BRET_EXT load(1, XDATA, add(CFA_XSP16, literal(-3)))
        CFI ?RET_HIGH load(1, XDATA, add(CFA_XSP16, literal(-4)))
        CFI ?RET_LOW load(1, XDATA, add(CFA_XSP16, literal(-5)))
        CFI R7 load(1, XDATA, add(CFA_XSP16, literal(-6)))
        CFI V1 load(1, XDATA, add(CFA_XSP16, literal(-7)))
        CFI V0 load(1, XDATA, add(CFA_XSP16, literal(-8)))
        CFI VB load(1, XDATA, add(CFA_XSP16, literal(-9)))
        CFI R6 load(1, XDATA, add(CFA_XSP16, literal(-10)))
        CFI CFA_SP SP+0
        CFI CFA_XSP16 add(XSP16, 10)
        ; Saved register size: 10
        ; Auto size: 0
        MOV     A,R2
        MOV     R4,A
        MOV     A,R3
        MOV     R5,A
//   25     wan=temp_data/10000+0x30 ;
        MOV     A,R4
        MOV     R0,A
        MOV     A,R5
        MOV     R1,A
        MOV     R2,#0x10
        MOV     R3,#0x27
        LCALL   ?US_DIV_MOD
        MOV     A,R0
        ADD     A,#0x30
        MOV     DPTR,#wan
        LCALL   ?Subroutine4 & 0xFFFF
//   26     temp_data=temp_data%10000;   //取余运算
??CrossCallReturnLabel_2:
        MOV     R2,#0x10
        MOV     R3,#0x27
        LCALL   ?US_DIV_MOD
        MOV     ?V0 + 0,R2
        MOV     ?V0 + 1,R3
        MOV     R4,?V0 + 0
        MOV     R5,?V0 + 1
//   27     qian=temp_data/1000+0x30 ;
        MOV     A,R4
        MOV     R0,A
        MOV     A,R5
        MOV     R1,A
        MOV     R2,#-0x18
        MOV     R3,#0x3
        LCALL   ?US_DIV_MOD
        MOV     A,R0
        ADD     A,#0x30
        MOV     DPTR,#qian
        LCALL   ?Subroutine4 & 0xFFFF
//   28     temp_data=temp_data%1000;    //取余运算
??CrossCallReturnLabel_3:
        MOV     R2,#-0x18
        MOV     R3,#0x3
        LCALL   ?US_DIV_MOD
        MOV     ?V0 + 0,R2
        MOV     ?V0 + 1,R3
        MOV     R4,?V0 + 0
        MOV     R5,?V0 + 1
//   29     bai=temp_data/100+0x30   ;
        MOV     A,R4
        MOV     R0,A
        MOV     A,R5
        MOV     R1,A
        MOV     R2,#0x64
        MOV     R3,#0x0
        LCALL   ?US_DIV_MOD
        MOV     A,R0
        ADD     A,#0x30
        MOV     DPTR,#bai
        LCALL   ?Subroutine4 & 0xFFFF
//   30     temp_data=temp_data%100;     //取余运算
??CrossCallReturnLabel_4:
        MOV     R2,#0x64
        MOV     R3,#0x0
        LCALL   ?US_DIV_MOD
        MOV     ?V0 + 0,R2
        MOV     ?V0 + 1,R3
        MOV     R4,?V0 + 0
        MOV     R5,?V0 + 1
//   31     shi=temp_data/10+0x30    ;
        MOV     A,R4
        MOV     R0,A
        MOV     A,R5
        MOV     R1,A
        MOV     R2,#0xa
        MOV     R3,#0x0
        LCALL   ?US_DIV_MOD
        MOV     A,R0
        ADD     A,#0x30
        MOV     DPTR,#shi
        LCALL   ?Subroutine4 & 0xFFFF
//   32     temp_data=temp_data%10;      //取余运算
//   33     ge=temp_data+0x30; 	
??CrossCallReturnLabel_5:
        MOV     R2,#0xa
        MOV     R3,#0x0
        LCALL   ?US_DIV_MOD
        MOV     A,R2
        ADD     A,#0x30
        MOV     DPTR,#`ge`
        MOVX    @DPTR,A
        CFI EndBlock cfiBlock0
//   34 }
        REQUIRE ?Subroutine0
        ; // Fall through to label ?Subroutine0

        RSEG BANKED_CODE:CODE:NOROOT(0)
?Subroutine0:
        CFI Block cfiBlock1 Using cfiCommon0
        CFI NoFunction
        CFI CFA_SP SP+0
        CFI CFA_XSP16 add(XSP16, 10)
        CFI VB load(1, XDATA, add(CFA_XSP16, literal(-9)))
        CFI DPL0 load(1, XDATA, add(CFA_XSP16, literal(-2)))
        CFI DPH0 load(1, XDATA, add(CFA_XSP16, literal(-1)))
        CFI R6 load(1, XDATA, add(CFA_XSP16, literal(-10)))
        CFI R7 load(1, XDATA, add(CFA_XSP16, literal(-6)))
        CFI V0 load(1, XDATA, add(CFA_XSP16, literal(-8)))
        CFI V1 load(1, XDATA, add(CFA_XSP16, literal(-7)))
        CFI ?BRET_EXT load(1, XDATA, add(CFA_XSP16, literal(-3)))
        CFI ?RET_HIGH load(1, XDATA, add(CFA_XSP16, literal(-4)))
        CFI ?RET_LOW load(1, XDATA, add(CFA_XSP16, literal(-5)))
        MOV     R7,#0x2
        LJMP    ?BANKED_LEAVE_XDATA
        CFI EndBlock cfiBlock1

        RSEG BANKED_CODE:CODE:NOROOT(0)
?Subroutine4:
        CFI Block cfiCond2 Using cfiCommon0
        CFI NoFunction
        CFI Conditional ??CrossCallReturnLabel_2
        CFI R6 load(1, XDATA, add(CFA_XSP16, literal(-10)))
        CFI VB load(1, XDATA, add(CFA_XSP16, literal(-9)))
        CFI V0 load(1, XDATA, add(CFA_XSP16, literal(-8)))
        CFI V1 load(1, XDATA, add(CFA_XSP16, literal(-7)))
        CFI R7 load(1, XDATA, add(CFA_XSP16, literal(-6)))
        CFI ?RET_LOW load(1, XDATA, add(CFA_XSP16, literal(-5)))
        CFI ?RET_HIGH load(1, XDATA, add(CFA_XSP16, literal(-4)))
        CFI ?BRET_EXT load(1, XDATA, add(CFA_XSP16, literal(-3)))
        CFI DPL0 load(1, XDATA, add(CFA_XSP16, literal(-2)))
        CFI DPH0 load(1, XDATA, add(CFA_XSP16, literal(-1)))
        CFI CFA_SP SP+0
        CFI CFA_XSP16 add(XSP16, 10)
        CFI Block cfiCond3 Using cfiCommon0
        CFI (cfiCond3) NoFunction
        CFI (cfiCond3) Conditional ??CrossCallReturnLabel_3
        CFI (cfiCond3) R6 load(1, XDATA, add(CFA_XSP16, literal(-10)))
        CFI (cfiCond3) VB load(1, XDATA, add(CFA_XSP16, literal(-9)))
        CFI (cfiCond3) V0 load(1, XDATA, add(CFA_XSP16, literal(-8)))
        CFI (cfiCond3) V1 load(1, XDATA, add(CFA_XSP16, literal(-7)))
        CFI (cfiCond3) R7 load(1, XDATA, add(CFA_XSP16, literal(-6)))
        CFI (cfiCond3) ?RET_LOW load(1, XDATA, add(CFA_XSP16, literal(-5)))
        CFI (cfiCond3) ?RET_HIGH load(1, XDATA, add(CFA_XSP16, literal(-4)))
        CFI (cfiCond3) ?BRET_EXT load(1, XDATA, add(CFA_XSP16, literal(-3)))
        CFI (cfiCond3) DPL0 load(1, XDATA, add(CFA_XSP16, literal(-2)))
        CFI (cfiCond3) DPH0 load(1, XDATA, add(CFA_XSP16, literal(-1)))
        CFI (cfiCond3) CFA_SP SP+0
        CFI (cfiCond3) CFA_XSP16 add(XSP16, 10)
        CFI Block cfiCond4 Using cfiCommon0
        CFI (cfiCond4) NoFunction
        CFI (cfiCond4) Conditional ??CrossCallReturnLabel_4
        CFI (cfiCond4) R6 load(1, XDATA, add(CFA_XSP16, literal(-10)))
        CFI (cfiCond4) VB load(1, XDATA, add(CFA_XSP16, literal(-9)))
        CFI (cfiCond4) V0 load(1, XDATA, add(CFA_XSP16, literal(-8)))
        CFI (cfiCond4) V1 load(1, XDATA, add(CFA_XSP16, literal(-7)))
        CFI (cfiCond4) R7 load(1, XDATA, add(CFA_XSP16, literal(-6)))
        CFI (cfiCond4) ?RET_LOW load(1, XDATA, add(CFA_XSP16, literal(-5)))
        CFI (cfiCond4) ?RET_HIGH load(1, XDATA, add(CFA_XSP16, literal(-4)))
        CFI (cfiCond4) ?BRET_EXT load(1, XDATA, add(CFA_XSP16, literal(-3)))
        CFI (cfiCond4) DPL0 load(1, XDATA, add(CFA_XSP16, literal(-2)))
        CFI (cfiCond4) DPH0 load(1, XDATA, add(CFA_XSP16, literal(-1)))
        CFI (cfiCond4) CFA_SP SP+0
        CFI (cfiCond4) CFA_XSP16 add(XSP16, 10)
        CFI Block cfiCond5 Using cfiCommon0
        CFI (cfiCond5) NoFunction
        CFI (cfiCond5) Conditional ??CrossCallReturnLabel_5
        CFI (cfiCond5) R6 load(1, XDATA, add(CFA_XSP16, literal(-10)))
        CFI (cfiCond5) VB load(1, XDATA, add(CFA_XSP16, literal(-9)))
        CFI (cfiCond5) V0 load(1, XDATA, add(CFA_XSP16, literal(-8)))
        CFI (cfiCond5) V1 load(1, XDATA, add(CFA_XSP16, literal(-7)))
        CFI (cfiCond5) R7 load(1, XDATA, add(CFA_XSP16, literal(-6)))
        CFI (cfiCond5) ?RET_LOW load(1, XDATA, add(CFA_XSP16, literal(-5)))
        CFI (cfiCond5) ?RET_HIGH load(1, XDATA, add(CFA_XSP16, literal(-4)))
        CFI (cfiCond5) ?BRET_EXT load(1, XDATA, add(CFA_XSP16, literal(-3)))
        CFI (cfiCond5) DPL0 load(1, XDATA, add(CFA_XSP16, literal(-2)))
        CFI (cfiCond5) DPH0 load(1, XDATA, add(CFA_XSP16, literal(-1)))
        CFI (cfiCond5) CFA_SP SP+0
        CFI (cfiCond5) CFA_XSP16 add(XSP16, 10)
        CFI Block cfiPicker6 Using cfiCommon1
        CFI (cfiPicker6) NoFunction
        CFI (cfiPicker6) Picker
        MOVX    @DPTR,A
        MOV     A,R4
        MOV     R0,A
        MOV     A,R5
        MOV     R1,A
        RET
        CFI EndBlock cfiCond2
        CFI EndBlock cfiCond3
        CFI EndBlock cfiCond4
        CFI EndBlock cfiCond5
        CFI EndBlock cfiPicker6
//   35 
//   36 /**************************************
//   37 延时5微秒
//   38 不同的工作环境,需要调整此函数，注意时钟过快时需要修改
//   39 当改用1T的MCU时,请调整此延时函数
//   40 **************************************/

        RSEG BANKED_CODE:CODE:NOROOT(0)
//   41 void Delay5us()
Delay5us:
        CFI Block cfiBlock7 Using cfiCommon0
        CFI Function Delay5us
        CODE
//   42 {
        ; Saved register size: 0
        ; Auto size: 0
//   43   asm("nop");//asm("nop");//asm("nop");asm("nop");
        nop
//   44   //asm("nop");asm("nop");asm("nop");asm("nop");
//   45   //asm("nop");asm("nop");asm("nop");asm("nop");
//   46   //asm("nop");asm("nop");asm("nop");asm("nop");
//   47   //asm("nop");asm("nop");asm("nop");asm("nop");
//   48   //asm("nop");asm("nop");asm("nop");asm("nop");
//   49   //asm("nop");asm("nop");asm("nop");asm("nop");
//   50  // asm("nop");asm("nop");asm("nop");asm("nop");
//   51 }
        LJMP    ?BRET
        CFI EndBlock cfiBlock7
//   52 
//   53 //毫秒延时**************************

        RSEG BANKED_CODE:CODE:NOROOT(0)
//   54 void delay_nms(unsigned int k)	
delay_nms:
        CFI Block cfiBlock8 Using cfiCommon0
        CFI Function delay_nms
        CODE
//   55 {						
        FUNCALL delay_nms, Delay5us
        LOCFRAME ISTACK, 0, STACK
        LOCFRAME PSTACK, 0, STACK
        LOCFRAME XSTACK, 11, STACK
        LOCFRAME IOVERLAY, 0, STATIC
        LOCFRAME DOVERLAY, 0, STATIC
        ARGFRAME ISTACK, 0, STACK
        ARGFRAME PSTACK, 0, STACK
        ARGFRAME XSTACK, 11, STACK
        ARGFRAME IOVERLAY, 0, STATIC
        ARGFRAME DOVERLAY, 0, STATIC
        MOV     A,#-0xb
        LCALL   ?BANKED_ENTER_XDATA
        CFI DPH0 load(1, XDATA, add(CFA_XSP16, literal(-1)))
        CFI DPL0 load(1, XDATA, add(CFA_XSP16, literal(-2)))
        CFI ?BRET_EXT load(1, XDATA, add(CFA_XSP16, literal(-3)))
        CFI ?RET_HIGH load(1, XDATA, add(CFA_XSP16, literal(-4)))
        CFI ?RET_LOW load(1, XDATA, add(CFA_XSP16, literal(-5)))
        CFI R7 load(1, XDATA, add(CFA_XSP16, literal(-6)))
        CFI V2 load(1, XDATA, add(CFA_XSP16, literal(-7)))
        CFI V1 load(1, XDATA, add(CFA_XSP16, literal(-8)))
        CFI V0 load(1, XDATA, add(CFA_XSP16, literal(-9)))
        CFI VB load(1, XDATA, add(CFA_XSP16, literal(-10)))
        CFI R6 load(1, XDATA, add(CFA_XSP16, literal(-11)))
        CFI CFA_SP SP+0
        CFI CFA_XSP16 add(XSP16, 11)
        ; Saved register size: 11
        ; Auto size: 0
        MOV     A,R2
        MOV     R6,A
        MOV     A,R3
        MOV     R7,A
//   56 unsigned int i,j;	
//   57 for(i=0;i<k;i++)
        MOV     ?V0 + 0,#0x0
        MOV     ?V0 + 1,#0x0
        SJMP    ??delay_nms_0
//   58 {
//   59   for(j=0;j<200;j++)
??delay_nms_1:
        MOV     ?V0 + 2,#-0x38
//   60   {
//   61     Delay5us();
??delay_nms_2:
        ; Setup parameters for call to function Delay5us
        LCALL   ??Delay5us?relay
//   62   }	
        DEC     ?V0 + 2
        MOV     A,?V0 + 2
        JNZ     ??delay_nms_2
//   63 }
        MOV     A,?V0 + 0
        ADD     A,#0x1
        MOV     ?V0 + 0,A
        MOV     A,?V0 + 1
        ADDC    A,#0x0
        MOV     ?V0 + 1,A
??delay_nms_0:
        CLR     C
        MOV     A,?V0 + 0
        SUBB    A,R6
        MOV     A,?V0 + 1
        SUBB    A,R7
        JC      ??delay_nms_1
//   64 }
        MOV     R7,#0x3
        LJMP    ?BANKED_LEAVE_XDATA
        CFI EndBlock cfiBlock8
//   65 
//   66 /**************************************
//   67 延时5毫秒(STC90C52RC@12M)
//   68 不同的工作环境,需要调整此函数
//   69 当改用1T的MCU时,请调整此延时函数
//   70 **************************************/

        RSEG BANKED_CODE:CODE:NOROOT(0)
//   71 void Delay5ms()
Delay5ms:
        CFI Block cfiBlock9 Using cfiCommon0
        CFI Function Delay5ms
        CODE
//   72 {
        FUNCALL Delay5ms, Delay5us
        LOCFRAME ISTACK, 0, STACK
        LOCFRAME PSTACK, 0, STACK
        LOCFRAME XSTACK, 9, STACK
        LOCFRAME IOVERLAY, 0, STATIC
        LOCFRAME DOVERLAY, 0, STATIC
        ARGFRAME ISTACK, 0, STACK
        ARGFRAME PSTACK, 0, STACK
        ARGFRAME XSTACK, 9, STACK
        ARGFRAME IOVERLAY, 0, STATIC
        ARGFRAME DOVERLAY, 0, STATIC
        MOV     A,#-0x9
        LCALL   ?BANKED_ENTER_XDATA
        CFI DPH0 load(1, XDATA, add(CFA_XSP16, literal(-1)))
        CFI DPL0 load(1, XDATA, add(CFA_XSP16, literal(-2)))
        CFI ?BRET_EXT load(1, XDATA, add(CFA_XSP16, literal(-3)))
        CFI ?RET_HIGH load(1, XDATA, add(CFA_XSP16, literal(-4)))
        CFI ?RET_LOW load(1, XDATA, add(CFA_XSP16, literal(-5)))
        CFI R7 load(1, XDATA, add(CFA_XSP16, literal(-6)))
        CFI V0 load(1, XDATA, add(CFA_XSP16, literal(-7)))
        CFI VB load(1, XDATA, add(CFA_XSP16, literal(-8)))
        CFI R6 load(1, XDATA, add(CFA_XSP16, literal(-9)))
        CFI CFA_SP SP+0
        CFI CFA_XSP16 add(XSP16, 9)
        ; Saved register size: 9
        ; Auto size: 0
//   73   int i=0;
//   74   for(i=0;i<1000;i++)
        MOV     R6,#-0x18
        MOV     R7,#0x3
//   75     Delay5us();
??Delay5ms_0:
        ; Setup parameters for call to function Delay5us
        LCALL   ??Delay5us?relay
        MOV     A,R6
        ADD     A,#-0x1
        DEC     R6
        MOV     A,R7
        ADDC    A,#-0x1
        MOV     R7,A
        MOV     A,R6
        ORL     A,R7
        JNZ     ??Delay5ms_0
        CFI EndBlock cfiBlock9
//   76 }
        REQUIRE ?Subroutine2
        ; // Fall through to label ?Subroutine2

        RSEG BANKED_CODE:CODE:NOROOT(0)
?Subroutine2:
        CFI Block cfiBlock10 Using cfiCommon0
        CFI NoFunction
        CFI CFA_SP SP+0
        CFI CFA_XSP16 add(XSP16, 9)
        CFI VB load(1, XDATA, add(CFA_XSP16, literal(-8)))
        CFI DPL0 load(1, XDATA, add(CFA_XSP16, literal(-2)))
        CFI DPH0 load(1, XDATA, add(CFA_XSP16, literal(-1)))
        CFI R6 load(1, XDATA, add(CFA_XSP16, literal(-9)))
        CFI R7 load(1, XDATA, add(CFA_XSP16, literal(-6)))
        CFI V0 load(1, XDATA, add(CFA_XSP16, literal(-7)))
        CFI ?BRET_EXT load(1, XDATA, add(CFA_XSP16, literal(-3)))
        CFI ?RET_HIGH load(1, XDATA, add(CFA_XSP16, literal(-4)))
        CFI ?RET_LOW load(1, XDATA, add(CFA_XSP16, literal(-5)))
        MOV     R7,#0x1
        LJMP    ?BANKED_LEAVE_XDATA
        CFI EndBlock cfiBlock10
//   77 
//   78 /**************************************
//   79 起始信号
//   80 **************************************/
//   81 //_Pragma("optimize=none")

        RSEG BANKED_CODE:CODE:NOROOT(0)
//   82 void BH1750_Start()
BH1750_Start:
        CFI Block cfiBlock11 Using cfiCommon0
        CFI Function BH1750_Start
        CODE
//   83 {
        FUNCALL BH1750_Start, Delay5us
        LOCFRAME ISTACK, 2, STACK
        LOCFRAME PSTACK, 0, STACK
        LOCFRAME XSTACK, 0, STACK
        LOCFRAME IOVERLAY, 0, STATIC
        LOCFRAME DOVERLAY, 0, STATIC
        ARGFRAME ISTACK, 2, STACK
        ARGFRAME PSTACK, 0, STACK
        ARGFRAME XSTACK, 0, STACK
        ARGFRAME IOVERLAY, 0, STATIC
        ARGFRAME DOVERLAY, 0, STATIC
        FUNCALL BH1750_Start, Delay5us
        LOCFRAME ISTACK, 2, STACK
        LOCFRAME PSTACK, 0, STACK
        LOCFRAME XSTACK, 0, STACK
        LOCFRAME IOVERLAY, 0, STATIC
        LOCFRAME DOVERLAY, 0, STATIC
        ARGFRAME ISTACK, 2, STACK
        ARGFRAME PSTACK, 0, STACK
        ARGFRAME XSTACK, 0, STACK
        ARGFRAME IOVERLAY, 0, STATIC
        ARGFRAME DOVERLAY, 0, STATIC
        PUSH    DPL
        CFI DPL0 Frame(CFA_SP, 4)
        CFI CFA_SP SP+-4
        PUSH    DPH
        CFI DPH0 Frame(CFA_SP, 5)
        CFI CFA_SP SP+-5
        ; Saved register size: 2
        ; Auto size: 0
//   84     P1DIR |= (SCLBIT + SDABIT);
        ORL     0xfe,#0x88
//   85     SDA = 1;                    //拉高数据线
        SETB    0x90.3
//   86     SCL = 1;                    //拉高时钟线
        SETB    0x90.7
//   87     Delay5us();                 //延时
        ; Setup parameters for call to function Delay5us
        LCALL   ??Delay5us?relay
//   88     SDA = 0;                    //产生下降沿
        CLR     0x90.3
//   89     Delay5us();                 //延时
        ; Setup parameters for call to function Delay5us
        LCALL   ??Delay5us?relay
//   90     SCL = 0;                    //拉低时钟线
        CLR     0x90.7
        CFI EndBlock cfiBlock11
//   91 }
        REQUIRE ?Subroutine1
        REQUIRE P1DIR
        REQUIRE _A_P1
        ; // Fall through to label ?Subroutine1

        RSEG BANKED_CODE:CODE:NOROOT(0)
?Subroutine1:
        CFI Block cfiBlock12 Using cfiCommon0
        CFI NoFunction
        CFI CFA_SP SP+-5
        CFI DPL0 Frame(CFA_SP, 4)
        CFI DPH0 Frame(CFA_SP, 5)
        POP     DPH
        CFI CFA_SP SP+-4
        CFI DPH0 SameValue
        POP     DPL
        CFI CFA_SP SP+-3
        CFI DPL0 SameValue
        LJMP    ?BRET
        CFI EndBlock cfiBlock12
//   92 
//   93 /**************************************
//   94 停止信号
//   95 **************************************/
//   96 //_Pragma("optimize=none")

        RSEG BANKED_CODE:CODE:NOROOT(0)
//   97 void BH1750_Stop()
BH1750_Stop:
        CFI Block cfiBlock13 Using cfiCommon0
        CFI Function BH1750_Stop
        CODE
//   98 {
        FUNCALL BH1750_Stop, Delay5us
        LOCFRAME ISTACK, 2, STACK
        LOCFRAME PSTACK, 0, STACK
        LOCFRAME XSTACK, 0, STACK
        LOCFRAME IOVERLAY, 0, STATIC
        LOCFRAME DOVERLAY, 0, STATIC
        ARGFRAME ISTACK, 2, STACK
        ARGFRAME PSTACK, 0, STACK
        ARGFRAME XSTACK, 0, STACK
        ARGFRAME IOVERLAY, 0, STATIC
        ARGFRAME DOVERLAY, 0, STATIC
        FUNCALL BH1750_Stop, Delay5us
        LOCFRAME ISTACK, 2, STACK
        LOCFRAME PSTACK, 0, STACK
        LOCFRAME XSTACK, 0, STACK
        LOCFRAME IOVERLAY, 0, STATIC
        LOCFRAME DOVERLAY, 0, STATIC
        ARGFRAME ISTACK, 2, STACK
        ARGFRAME PSTACK, 0, STACK
        ARGFRAME XSTACK, 0, STACK
        ARGFRAME IOVERLAY, 0, STATIC
        ARGFRAME DOVERLAY, 0, STATIC
        PUSH    DPL
        CFI DPL0 Frame(CFA_SP, 4)
        CFI CFA_SP SP+-4
        PUSH    DPH
        CFI DPH0 Frame(CFA_SP, 5)
        CFI CFA_SP SP+-5
        ; Saved register size: 2
        ; Auto size: 0
//   99     P1DIR |= (SCLBIT + SDABIT);
        LCALL   ?Subroutine3 & 0xFFFF
//  100     SDA = 0;                    //拉低数据线
//  101     SCL = 1;                    //拉高时钟线
//  102     Delay5us();                 //延时
//  103     SDA = 1;                    //产生上升沿
??CrossCallReturnLabel_0:
        SETB    0x90.3
//  104     Delay5us();                 //延时
        ; Setup parameters for call to function Delay5us
        LCALL   ??Delay5us?relay
//  105 }
        SJMP    ?Subroutine1
        CFI EndBlock cfiBlock13
        REQUIRE P1DIR
        REQUIRE _A_P1
//  106 
//  107 /**************************************
//  108 向IIC总线发送一个字节数据
//  109 **************************************/
//  110 _Pragma("optimize=none")

        RSEG BANKED_CODE:CODE:NOROOT(0)
//  111 void BH1750_SendByte(BYTE dat)
BH1750_SendByte:
        CFI Block cfiBlock14 Using cfiCommon0
        CFI Function BH1750_SendByte
        CODE
//  112 {
        FUNCALL BH1750_SendByte, Delay5us
        LOCFRAME ISTACK, 0, STACK
        LOCFRAME PSTACK, 0, STACK
        LOCFRAME XSTACK, 9, STACK
        LOCFRAME IOVERLAY, 0, STATIC
        LOCFRAME DOVERLAY, 0, STATIC
        ARGFRAME ISTACK, 0, STACK
        ARGFRAME PSTACK, 0, STACK
        ARGFRAME XSTACK, 9, STACK
        ARGFRAME IOVERLAY, 0, STATIC
        ARGFRAME DOVERLAY, 0, STATIC
        FUNCALL BH1750_SendByte, Delay5us
        LOCFRAME ISTACK, 0, STACK
        LOCFRAME PSTACK, 0, STACK
        LOCFRAME XSTACK, 9, STACK
        LOCFRAME IOVERLAY, 0, STATIC
        LOCFRAME DOVERLAY, 0, STATIC
        ARGFRAME ISTACK, 0, STACK
        ARGFRAME PSTACK, 0, STACK
        ARGFRAME XSTACK, 9, STACK
        ARGFRAME IOVERLAY, 0, STATIC
        ARGFRAME DOVERLAY, 0, STATIC
        FUNCALL BH1750_SendByte, Delay5us
        LOCFRAME ISTACK, 0, STACK
        LOCFRAME PSTACK, 0, STACK
        LOCFRAME XSTACK, 9, STACK
        LOCFRAME IOVERLAY, 0, STATIC
        LOCFRAME DOVERLAY, 0, STATIC
        ARGFRAME ISTACK, 0, STACK
        ARGFRAME PSTACK, 0, STACK
        ARGFRAME XSTACK, 9, STACK
        ARGFRAME IOVERLAY, 0, STATIC
        ARGFRAME DOVERLAY, 0, STATIC
        FUNCALL BH1750_SendByte, Delay5us
        LOCFRAME ISTACK, 0, STACK
        LOCFRAME PSTACK, 0, STACK
        LOCFRAME XSTACK, 9, STACK
        LOCFRAME IOVERLAY, 0, STATIC
        LOCFRAME DOVERLAY, 0, STATIC
        ARGFRAME ISTACK, 0, STACK
        ARGFRAME PSTACK, 0, STACK
        ARGFRAME XSTACK, 9, STACK
        ARGFRAME IOVERLAY, 0, STATIC
        ARGFRAME DOVERLAY, 0, STATIC
        MOV     A,#-0x9
        LCALL   ?BANKED_ENTER_XDATA
        CFI DPH0 load(1, XDATA, add(CFA_XSP16, literal(-1)))
        CFI DPL0 load(1, XDATA, add(CFA_XSP16, literal(-2)))
        CFI ?BRET_EXT load(1, XDATA, add(CFA_XSP16, literal(-3)))
        CFI ?RET_HIGH load(1, XDATA, add(CFA_XSP16, literal(-4)))
        CFI ?RET_LOW load(1, XDATA, add(CFA_XSP16, literal(-5)))
        CFI R7 load(1, XDATA, add(CFA_XSP16, literal(-6)))
        CFI V0 load(1, XDATA, add(CFA_XSP16, literal(-7)))
        CFI VB load(1, XDATA, add(CFA_XSP16, literal(-8)))
        CFI R6 load(1, XDATA, add(CFA_XSP16, literal(-9)))
        CFI CFA_SP SP+0
        CFI CFA_XSP16 add(XSP16, 9)
        ; Saved register size: 9
        ; Auto size: 0
        MOV     A,R1
        MOV     R7,A
//  113     P1DIR |= (SCLBIT + SDABIT);
        ORL     0xfe,#0x88
//  114     BYTE i;
//  115 
//  116     for (i=0; i<8; i++)         //8位计数器
        MOV     R6,#0x0
??BH1750_SendByte_0:
        MOV     A,R6
        CLR     C
        SUBB    A,#0x8
        JNC     ??BH1750_SendByte_1
//  117     {
//  118         dat <<= 1;              //移出数据的最高位
        MOV     A,R7
        CLR     C
        RLC     A
        MOV     R7,A
//  119         SDA = CY;               //送数据口
        MOV     C,0xd0.7
        MOV     0x90.3,C
//  120         SCL = 1;                //拉高时钟线
        SETB    0x90.7
//  121         Delay5us();             //延时
        ; Setup parameters for call to function Delay5us
        LCALL   ??Delay5us?relay
//  122         SCL = 0;                //拉低时钟线
        CLR     0x90.7
//  123         Delay5us();             //延时
        ; Setup parameters for call to function Delay5us
        LCALL   ??Delay5us?relay
//  124     }
        INC     R6
        SJMP    ??BH1750_SendByte_0
//  125     SCL = 1;                    //拉高时钟线
??BH1750_SendByte_1:
        SETB    0x90.7
//  126     P1DIR &= ~SDABIT;                  //改变SDA方向
        ANL     0xfe,#0xf7
//  127     Delay5us();                 //延时
        ; Setup parameters for call to function Delay5us
        LCALL   ??Delay5us?relay
//  128     CY = SDA;                   //读应答信号
        MOV     C,0x90.3
        MOV     0xd0.7,C
//  129     SCL = 0;                    //拉低时钟线
        CLR     0x90.7
//  130     Delay5us();                 //延时
        ; Setup parameters for call to function Delay5us
        LCALL   ??Delay5us?relay
//  131     P1DIR |= (SCLBIT + SDABIT);
        ORL     0xfe,#0x88
//  132 }
        MOV     R7,#0x1
        LJMP    ?BANKED_LEAVE_XDATA
        CFI EndBlock cfiBlock14
        REQUIRE P1DIR
        REQUIRE _A_P1
        REQUIRE _A_PSW
//  133 
//  134 /**************************************
//  135 从IIC总线接收一个字节数据
//  136 **************************************/
//  137 //_Pragma("optimize=none")

        RSEG BANKED_CODE:CODE:NOROOT(0)
//  138 BYTE BH1750_RecvByte()
BH1750_RecvByte:
        CFI Block cfiBlock15 Using cfiCommon0
        CFI Function BH1750_RecvByte
        CODE
//  139 {
        FUNCALL BH1750_RecvByte, Delay5us
        LOCFRAME ISTACK, 0, STACK
        LOCFRAME PSTACK, 0, STACK
        LOCFRAME XSTACK, 9, STACK
        LOCFRAME IOVERLAY, 0, STATIC
        LOCFRAME DOVERLAY, 0, STATIC
        ARGFRAME ISTACK, 0, STACK
        ARGFRAME PSTACK, 0, STACK
        ARGFRAME XSTACK, 9, STACK
        ARGFRAME IOVERLAY, 0, STATIC
        ARGFRAME DOVERLAY, 0, STATIC
        FUNCALL BH1750_RecvByte, Delay5us
        LOCFRAME ISTACK, 0, STACK
        LOCFRAME PSTACK, 0, STACK
        LOCFRAME XSTACK, 9, STACK
        LOCFRAME IOVERLAY, 0, STATIC
        LOCFRAME DOVERLAY, 0, STATIC
        ARGFRAME ISTACK, 0, STACK
        ARGFRAME PSTACK, 0, STACK
        ARGFRAME XSTACK, 9, STACK
        ARGFRAME IOVERLAY, 0, STATIC
        ARGFRAME DOVERLAY, 0, STATIC
        MOV     A,#-0x9
        LCALL   ?BANKED_ENTER_XDATA
        CFI DPH0 load(1, XDATA, add(CFA_XSP16, literal(-1)))
        CFI DPL0 load(1, XDATA, add(CFA_XSP16, literal(-2)))
        CFI ?BRET_EXT load(1, XDATA, add(CFA_XSP16, literal(-3)))
        CFI ?RET_HIGH load(1, XDATA, add(CFA_XSP16, literal(-4)))
        CFI ?RET_LOW load(1, XDATA, add(CFA_XSP16, literal(-5)))
        CFI R7 load(1, XDATA, add(CFA_XSP16, literal(-6)))
        CFI V0 load(1, XDATA, add(CFA_XSP16, literal(-7)))
        CFI VB load(1, XDATA, add(CFA_XSP16, literal(-8)))
        CFI R6 load(1, XDATA, add(CFA_XSP16, literal(-9)))
        CFI CFA_SP SP+0
        CFI CFA_XSP16 add(XSP16, 9)
        ; Saved register size: 9
        ; Auto size: 0
//  140     P1DIR |= SCLBIT;
        ORL     0xfe,#0x80
//  141     P1DIR &= ~SDABIT;
        ANL     0xfe,#0xf7
//  142     BYTE i;
//  143     BYTE dat = 0;
        MOV     R6,#0x0
//  144 
//  145     SDA = 1;                    //使能内部上拉,准备读取数据,
        SETB    0x90.3
//  146     for (i=0; i<8; i++)         //8位计数器
        MOV     R7,#0x8
//  147     {
//  148         dat <<= 1;
//  149         SCL = 1;                //拉高时钟线
??BH1750_RecvByte_0:
        SETB    0x90.7
//  150         Delay5us();             //延时
        ; Setup parameters for call to function Delay5us
        LCALL   ??Delay5us?relay
//  151         dat |= SDA;             //读数据
        MOV     C,0x90.3
        CLR     A
        RLC     A
        MOV     R0,A
        MOV     A,R6
        RLC     A
        ORL     A,R0
        MOV     R6,A
//  152         SCL = 0;                //拉低时钟线
        CLR     0x90.7
//  153         Delay5us();             //延时
        ; Setup parameters for call to function Delay5us
        LCALL   ??Delay5us?relay
//  154     }
        DEC     R7
        MOV     A,R7
        JNZ     ??BH1750_RecvByte_0
//  155     P1DIR |= (SCLBIT + SDABIT);
        ORL     0xfe,#0x88
//  156 
//  157     return dat;
        MOV     A,R6
        MOV     R1,A
        LJMP    ?Subroutine2 & 0xFFFF
        CFI EndBlock cfiBlock15
        REQUIRE P1DIR
        REQUIRE _A_P1
//  158 
//  159 }
//  160 
//  161 //*********************************
//  162 //_Pragma("optimize=none")

        RSEG BANKED_CODE:CODE:NOROOT(0)
//  163 void Single_Write_BH1750(uchar REG_Address)   
Single_Write_BH1750:
        CFI Block cfiBlock16 Using cfiCommon0
        CFI Function Single_Write_BH1750
        CODE
//  164 {
        FUNCALL Single_Write_BH1750, BH1750_Start
        LOCFRAME ISTACK, 0, STACK
        LOCFRAME PSTACK, 0, STACK
        LOCFRAME XSTACK, 9, STACK
        LOCFRAME IOVERLAY, 0, STATIC
        LOCFRAME DOVERLAY, 0, STATIC
        ARGFRAME ISTACK, 0, STACK
        ARGFRAME PSTACK, 0, STACK
        ARGFRAME XSTACK, 9, STACK
        ARGFRAME IOVERLAY, 0, STATIC
        ARGFRAME DOVERLAY, 0, STATIC
        FUNCALL Single_Write_BH1750, BH1750_SendByte
        LOCFRAME ISTACK, 0, STACK
        LOCFRAME PSTACK, 0, STACK
        LOCFRAME XSTACK, 9, STACK
        LOCFRAME IOVERLAY, 0, STATIC
        LOCFRAME DOVERLAY, 0, STATIC
        ARGFRAME ISTACK, 0, STACK
        ARGFRAME PSTACK, 0, STACK
        ARGFRAME XSTACK, 9, STACK
        ARGFRAME IOVERLAY, 0, STATIC
        ARGFRAME DOVERLAY, 0, STATIC
        FUNCALL Single_Write_BH1750, BH1750_SendByte
        LOCFRAME ISTACK, 0, STACK
        LOCFRAME PSTACK, 0, STACK
        LOCFRAME XSTACK, 9, STACK
        LOCFRAME IOVERLAY, 0, STATIC
        LOCFRAME DOVERLAY, 0, STATIC
        ARGFRAME ISTACK, 0, STACK
        ARGFRAME PSTACK, 0, STACK
        ARGFRAME XSTACK, 9, STACK
        ARGFRAME IOVERLAY, 0, STATIC
        ARGFRAME DOVERLAY, 0, STATIC
        FUNCALL Single_Write_BH1750, BH1750_Stop
        LOCFRAME ISTACK, 0, STACK
        LOCFRAME PSTACK, 0, STACK
        LOCFRAME XSTACK, 9, STACK
        LOCFRAME IOVERLAY, 0, STATIC
        LOCFRAME DOVERLAY, 0, STATIC
        ARGFRAME ISTACK, 0, STACK
        ARGFRAME PSTACK, 0, STACK
        ARGFRAME XSTACK, 9, STACK
        ARGFRAME IOVERLAY, 0, STATIC
        ARGFRAME DOVERLAY, 0, STATIC
        MOV     A,#-0x9
        LCALL   ?BANKED_ENTER_XDATA
        CFI DPH0 load(1, XDATA, add(CFA_XSP16, literal(-1)))
        CFI DPL0 load(1, XDATA, add(CFA_XSP16, literal(-2)))
        CFI ?BRET_EXT load(1, XDATA, add(CFA_XSP16, literal(-3)))
        CFI ?RET_HIGH load(1, XDATA, add(CFA_XSP16, literal(-4)))
        CFI ?RET_LOW load(1, XDATA, add(CFA_XSP16, literal(-5)))
        CFI R7 load(1, XDATA, add(CFA_XSP16, literal(-6)))
        CFI V0 load(1, XDATA, add(CFA_XSP16, literal(-7)))
        CFI VB load(1, XDATA, add(CFA_XSP16, literal(-8)))
        CFI R6 load(1, XDATA, add(CFA_XSP16, literal(-9)))
        CFI CFA_SP SP+0
        CFI CFA_XSP16 add(XSP16, 9)
        ; Saved register size: 9
        ; Auto size: 0
        MOV     A,R1
        MOV     R6,A
//  165     BH1750_Start();                  //起始信号
        ; Setup parameters for call to function BH1750_Start
        LCALL   ??BH1750_Start?relay
//  166     BH1750_SendByte(SlaveAddress);   //发送设备地址+写信号
        ; Setup parameters for call to function BH1750_SendByte
        MOV     R1,#0x46
        LCALL   ??BH1750_SendByte?relay
//  167     BH1750_SendByte(REG_Address);    //内部寄存器地址，
        ; Setup parameters for call to function BH1750_SendByte
        MOV     A,R6
        MOV     R1,A
        LCALL   ??BH1750_SendByte?relay
//  168   //  BH1750_SendByte(REG_data);       //内部寄存器数据，
//  169     BH1750_Stop();                   //发送停止信号
        ; Setup parameters for call to function BH1750_Stop
        LCALL   ??BH1750_Stop?relay
//  170 }
        LJMP    ?Subroutine2 & 0xFFFF
        CFI EndBlock cfiBlock16
//  171 
//  172 //********单字节读取***************
//  173 //_Pragma("optimize=none")
//  174 /*uchar Single_Read_BH1750(uchar REG_Address)
//  175 {  uchar REG_data;
//  176     BH1750_Start();                          //起始信号
//  177     BH1750_SendByte(SlaveAddress);           //发送设备地址+写信号
//  178     BH1750_SendByte(REG_Address);                   //发送存储单元地址，从0开始	
//  179     BH1750_Start();                          //起始信号
//  180     BH1750_SendByte(SlaveAddress+1);         //发送设备地址+读信号
//  181     REG_data=BH1750_RecvByte();              //读出寄存器数据
//  182 	BH1750_SendACK(1);
//  183 	BH1750_Stop();                           //停止信号
//  184     return REG_data;
//  185 }*/
//  186 
//  187 //*********************************************************
//  188 //
//  189 //连续读出BH1750内部数据
//  190 //
//  191 //*********************************************************
//  192 //_Pragma("optimize=none")

        RSEG BANKED_CODE:CODE:NOROOT(0)
//  193 void Multiple_Read()
Multiple_Read:
        CFI Block cfiBlock17 Using cfiCommon0
        CFI Function Multiple_Read
        CODE
//  194 {   uchar i;	
        FUNCALL Multiple_Read, BH1750_Start
        LOCFRAME ISTACK, 0, STACK
        LOCFRAME PSTACK, 0, STACK
        LOCFRAME XSTACK, 10, STACK
        LOCFRAME IOVERLAY, 0, STATIC
        LOCFRAME DOVERLAY, 0, STATIC
        ARGFRAME ISTACK, 0, STACK
        ARGFRAME PSTACK, 0, STACK
        ARGFRAME XSTACK, 10, STACK
        ARGFRAME IOVERLAY, 0, STATIC
        ARGFRAME DOVERLAY, 0, STATIC
        FUNCALL Multiple_Read, BH1750_SendByte
        LOCFRAME ISTACK, 0, STACK
        LOCFRAME PSTACK, 0, STACK
        LOCFRAME XSTACK, 10, STACK
        LOCFRAME IOVERLAY, 0, STATIC
        LOCFRAME DOVERLAY, 0, STATIC
        ARGFRAME ISTACK, 0, STACK
        ARGFRAME PSTACK, 0, STACK
        ARGFRAME XSTACK, 10, STACK
        ARGFRAME IOVERLAY, 0, STATIC
        ARGFRAME DOVERLAY, 0, STATIC
        FUNCALL Multiple_Read, BH1750_RecvByte
        LOCFRAME ISTACK, 0, STACK
        LOCFRAME PSTACK, 0, STACK
        LOCFRAME XSTACK, 10, STACK
        LOCFRAME IOVERLAY, 0, STATIC
        LOCFRAME DOVERLAY, 0, STATIC
        ARGFRAME ISTACK, 0, STACK
        ARGFRAME PSTACK, 0, STACK
        ARGFRAME XSTACK, 10, STACK
        ARGFRAME IOVERLAY, 0, STATIC
        ARGFRAME DOVERLAY, 0, STATIC
        FUNCALL Multiple_Read, Delay5us
        LOCFRAME ISTACK, 0, STACK
        LOCFRAME PSTACK, 0, STACK
        LOCFRAME XSTACK, 10, STACK
        LOCFRAME IOVERLAY, 0, STATIC
        LOCFRAME DOVERLAY, 0, STATIC
        ARGFRAME ISTACK, 0, STACK
        ARGFRAME PSTACK, 0, STACK
        ARGFRAME XSTACK, 10, STACK
        ARGFRAME IOVERLAY, 0, STATIC
        ARGFRAME DOVERLAY, 0, STATIC
        FUNCALL Multiple_Read, Delay5us
        LOCFRAME ISTACK, 0, STACK
        LOCFRAME PSTACK, 0, STACK
        LOCFRAME XSTACK, 10, STACK
        LOCFRAME IOVERLAY, 0, STATIC
        LOCFRAME DOVERLAY, 0, STATIC
        ARGFRAME ISTACK, 0, STACK
        ARGFRAME PSTACK, 0, STACK
        ARGFRAME XSTACK, 10, STACK
        ARGFRAME IOVERLAY, 0, STATIC
        ARGFRAME DOVERLAY, 0, STATIC
        FUNCALL Multiple_Read, BH1750_Stop
        LOCFRAME ISTACK, 0, STACK
        LOCFRAME PSTACK, 0, STACK
        LOCFRAME XSTACK, 10, STACK
        LOCFRAME IOVERLAY, 0, STATIC
        LOCFRAME DOVERLAY, 0, STATIC
        ARGFRAME ISTACK, 0, STACK
        ARGFRAME PSTACK, 0, STACK
        ARGFRAME XSTACK, 10, STACK
        ARGFRAME IOVERLAY, 0, STATIC
        ARGFRAME DOVERLAY, 0, STATIC
        FUNCALL Multiple_Read, Delay5ms
        LOCFRAME ISTACK, 0, STACK
        LOCFRAME PSTACK, 0, STACK
        LOCFRAME XSTACK, 10, STACK
        LOCFRAME IOVERLAY, 0, STATIC
        LOCFRAME DOVERLAY, 0, STATIC
        ARGFRAME ISTACK, 0, STACK
        ARGFRAME PSTACK, 0, STACK
        ARGFRAME XSTACK, 10, STACK
        ARGFRAME IOVERLAY, 0, STATIC
        ARGFRAME DOVERLAY, 0, STATIC
        MOV     A,#-0xa
        LCALL   ?BANKED_ENTER_XDATA
        CFI DPH0 load(1, XDATA, add(CFA_XSP16, literal(-1)))
        CFI DPL0 load(1, XDATA, add(CFA_XSP16, literal(-2)))
        CFI ?BRET_EXT load(1, XDATA, add(CFA_XSP16, literal(-3)))
        CFI ?RET_HIGH load(1, XDATA, add(CFA_XSP16, literal(-4)))
        CFI ?RET_LOW load(1, XDATA, add(CFA_XSP16, literal(-5)))
        CFI R7 load(1, XDATA, add(CFA_XSP16, literal(-6)))
        CFI V1 load(1, XDATA, add(CFA_XSP16, literal(-7)))
        CFI V0 load(1, XDATA, add(CFA_XSP16, literal(-8)))
        CFI VB load(1, XDATA, add(CFA_XSP16, literal(-9)))
        CFI R6 load(1, XDATA, add(CFA_XSP16, literal(-10)))
        CFI CFA_SP SP+0
        CFI CFA_XSP16 add(XSP16, 10)
        ; Saved register size: 10
        ; Auto size: 0
//  195     BH1750_Start();                          //起始信号
        ; Setup parameters for call to function BH1750_Start
        LCALL   ??BH1750_Start?relay
//  196     BH1750_SendByte(SlaveAddress+1);         //发送设备地址+读信号
        ; Setup parameters for call to function BH1750_SendByte
        MOV     R1,#0x47
        LCALL   ??BH1750_SendByte?relay
//  197 	
//  198    for (i=0; i<3; i++)                      //连续读取2个地址数据，存储中BUF
        MOV     R6,#0x0
//  199     {
//  200         BUF[i] = BH1750_RecvByte();          //BUF[0]存储0x32地址中的数据
??Multiple_Read_0:
        ; Setup parameters for call to function BH1750_RecvByte
        LCALL   ??BH1750_RecvByte?relay
        MOV     ?V0 + 0,R6
        MOV     A,#BUF & 0xff
        ADD     A,?V0 + 0
        MOV     DPL,A
        MOV     A,#(BUF >> 8) & 0xff
        ADDC    A,#0x0
        MOV     DPH,A
        MOV     A,R1
        MOVX    @DPTR,A
//  201         if (i == 3)
//  202         {
//  203            P1DIR |= (SCLBIT + SDABIT);
//  204            SDA = 1;                  //写应答信号
//  205            SCL = 1;                    //拉高时钟线
//  206            Delay5us();                 //延时
//  207            SCL = 0;                    //拉低时钟线
//  208            Delay5us();                 //延时
//  209         }
//  210         else
//  211         {		
//  212            P1DIR |= (SCLBIT + SDABIT);
        LCALL   ?Subroutine3 & 0xFFFF
//  213            SDA = 0;                  //写应答信号
//  214            SCL = 1;                    //拉高时钟线
//  215            Delay5us();                 //延时
//  216            SCL = 0;                    //拉低时钟线
??CrossCallReturnLabel_1:
        CLR     0x90.7
//  217            Delay5us();                 //延时
        ; Setup parameters for call to function Delay5us
        LCALL   ??Delay5us?relay
//  218        }
//  219    }
        INC     R6
        MOV     A,R6
        CLR     C
        SUBB    A,#0x3
        JC      ??Multiple_Read_0
//  220 
//  221     BH1750_Stop();                          //停止信号
        ; Setup parameters for call to function BH1750_Stop
        LCALL   ??BH1750_Stop?relay
//  222     Delay5ms();
        ; Setup parameters for call to function Delay5ms
        LCALL   ??Delay5ms?relay
//  223 }
        LJMP    ?Subroutine0 & 0xFFFF
        CFI EndBlock cfiBlock17
        REQUIRE P1DIR
        REQUIRE _A_P1

        RSEG BANKED_CODE:CODE:NOROOT(0)
?Subroutine3:
        CFI Block cfiCond18 Using cfiCommon0
        CFI NoFunction
        CFI Conditional ??CrossCallReturnLabel_0
        CFI DPL0 Frame(CFA_SP, 4)
        CFI DPH0 Frame(CFA_SP, 5)
        CFI CFA_SP SP+-5
        CFI Block cfiCond19 Using cfiCommon0
        CFI (cfiCond19) NoFunction
        CFI (cfiCond19) Conditional ??CrossCallReturnLabel_1
        CFI (cfiCond19) R6 load(1, XDATA, add(CFA_XSP16, literal(-10)))
        CFI (cfiCond19) VB load(1, XDATA, add(CFA_XSP16, literal(-9)))
        CFI (cfiCond19) V0 load(1, XDATA, add(CFA_XSP16, literal(-8)))
        CFI (cfiCond19) V1 load(1, XDATA, add(CFA_XSP16, literal(-7)))
        CFI (cfiCond19) R7 load(1, XDATA, add(CFA_XSP16, literal(-6)))
        CFI (cfiCond19) ?RET_LOW load(1, XDATA, add(CFA_XSP16, literal(-5)))
        CFI (cfiCond19) ?RET_HIGH load(1, XDATA, add(CFA_XSP16, literal(-4)))
        CFI (cfiCond19) ?BRET_EXT load(1, XDATA, add(CFA_XSP16, literal(-3)))
        CFI (cfiCond19) DPL0 load(1, XDATA, add(CFA_XSP16, literal(-2)))
        CFI (cfiCond19) DPH0 load(1, XDATA, add(CFA_XSP16, literal(-1)))
        CFI (cfiCond19) CFA_SP SP+0
        CFI (cfiCond19) CFA_XSP16 add(XSP16, 10)
        CFI Block cfiPicker20 Using cfiCommon1
        CFI (cfiPicker20) NoFunction
        CFI (cfiPicker20) Picker
        ORL     0xfe,#0x88
        CLR     0x90.3
        SETB    0x90.7
        ; Setup parameters for call to function Delay5us
        ; Setup parameters for call to function Delay5us
        LCALL   ??Delay5us?relay
        RET
        CFI EndBlock cfiCond18
        CFI EndBlock cfiCond19
        CFI EndBlock cfiPicker20
//  224 
//  225 
//  226 //_Pragma("optimize=none")

        RSEG BANKED_CODE:CODE:NOROOT(0)
//  227 void Init_BH1750()
Init_BH1750:
        CFI Block cfiBlock21 Using cfiCommon0
        CFI Function Init_BH1750
        CODE
//  228 {
        FUNCALL Init_BH1750, Single_Write_BH1750
        LOCFRAME ISTACK, 2, STACK
        LOCFRAME PSTACK, 0, STACK
        LOCFRAME XSTACK, 0, STACK
        LOCFRAME IOVERLAY, 0, STATIC
        LOCFRAME DOVERLAY, 0, STATIC
        ARGFRAME ISTACK, 2, STACK
        ARGFRAME PSTACK, 0, STACK
        ARGFRAME XSTACK, 0, STACK
        ARGFRAME IOVERLAY, 0, STATIC
        ARGFRAME DOVERLAY, 0, STATIC
        PUSH    DPL
        CFI DPL0 Frame(CFA_SP, 4)
        CFI CFA_SP SP+-4
        PUSH    DPH
        CFI DPH0 Frame(CFA_SP, 5)
        CFI CFA_SP SP+-5
        ; Saved register size: 2
        ; Auto size: 0
//  229    Single_Write_BH1750(0x08);
        ; Setup parameters for call to function Single_Write_BH1750
        MOV     R1,#0x8
        LCALL   ??Single_Write_BH1750?relay
//  230 }
        LJMP    ?Subroutine1 & 0xFFFF
        CFI EndBlock cfiBlock21

        RSEG BANK_RELAYS:CODE:REORDER:NOROOT(0)
??conversion?relay:
        LCALL   ?BDISPATCH
        DATA
        DC24    conversion

        RSEG BANK_RELAYS:CODE:REORDER:NOROOT(0)
??Delay5us?relay:
        LCALL   ?BDISPATCH
        DATA
        DC24    Delay5us

        RSEG BANK_RELAYS:CODE:REORDER:NOROOT(0)
??delay_nms?relay:
        LCALL   ?BDISPATCH
        DATA
        DC24    delay_nms

        RSEG BANK_RELAYS:CODE:REORDER:NOROOT(0)
??Delay5ms?relay:
        LCALL   ?BDISPATCH
        DATA
        DC24    Delay5ms

        RSEG BANK_RELAYS:CODE:REORDER:NOROOT(0)
??BH1750_Start?relay:
        LCALL   ?BDISPATCH
        DATA
        DC24    BH1750_Start

        RSEG BANK_RELAYS:CODE:REORDER:NOROOT(0)
??BH1750_Stop?relay:
        LCALL   ?BDISPATCH
        DATA
        DC24    BH1750_Stop

        RSEG BANK_RELAYS:CODE:REORDER:NOROOT(0)
??BH1750_SendByte?relay:
        LCALL   ?BDISPATCH
        DATA
        DC24    BH1750_SendByte

        RSEG BANK_RELAYS:CODE:REORDER:NOROOT(0)
??BH1750_RecvByte?relay:
        LCALL   ?BDISPATCH
        DATA
        DC24    BH1750_RecvByte

        RSEG BANK_RELAYS:CODE:REORDER:NOROOT(0)
??Single_Write_BH1750?relay:
        LCALL   ?BDISPATCH
        DATA
        DC24    Single_Write_BH1750

        RSEG BANK_RELAYS:CODE:REORDER:NOROOT(0)
??Multiple_Read?relay:
        LCALL   ?BDISPATCH
        DATA
        DC24    Multiple_Read

        RSEG BANK_RELAYS:CODE:REORDER:NOROOT(0)
??Init_BH1750?relay:
        LCALL   ?BDISPATCH
        DATA
        DC24    Init_BH1750

        END
//  231 
// 
// 508 bytes in segment BANKED_CODE
//  66 bytes in segment BANK_RELAYS
//   3 bytes in segment SFR_AN
//  15 bytes in segment XDATA_Z
// 
// 574 bytes of CODE  memory
//   0 bytes of DATA  memory (+ 3 bytes shared)
//  15 bytes of XDATA memory
//
//Errors: none
//Warnings: none
