###############################################################################
#                                                                             #
# IAR C/C++ Compiler V8.20.2.41139 for 8051             07/Dec/2016  15:59:31 #
# Copyright 2004-2013 IAR Systems AB.                                         #
#                                                                             #
#    Core               =  plain                                              #
#    Code model         =  banked                                             #
#    Data model         =  large                                              #
#    Calling convention =  xdata reentrant                                    #
#    Constant location  =  data_rom                                           #
#    Dptr setup         =  1,16                                               #
#                                                                             #
#    Source file        =  E:\Lib\micro-electromechanical\Ê±ÑÓ\ZStack-CC2530- #
#                          2.5.1a\Components\mt\MT_AF.c                       #
#    Command line       =  -f E:\Lib\micro-electromechanical\Ê±ÑÓ\ZStack-CC25 #
#                          30-2.5.1a\Projects\zstack\Samples\02¹âÕÕ\CC2530DB\ #
#                          ..\..\..\Tools\CC2530DB\f8wEndev.cfg (-DCPU32MHZ   #
#                          -DROOT=__near_func -DMAC_CFG_TX_DATA_MAX=3         #
#                          -DMAC_CFG_TX_MAX=6 -DMAC_CFG_RX_MAX=3) -f          #
#                          E:\Lib\micro-electromechanical\Ê±ÑÓ\ZStack-CC2530- #
#                          2.5.1a\Projects\zstack\Samples\02¹âÕÕ\CC2530DB\..\ #
#                          ..\..\Tools\CC2530DB\f8wConfig.cfg (-DZIGBEEPRO    #
#                          -DSECURE=0 -DZG_SECURE_DYNAMIC=0 -DREFLECTOR       #
#                          -DDEFAULT_CHANLIST=0x00100000                      #
#                          -DZDAPP_CONFIG_PAN_ID=0xFFFF                       #
#                          -DNWK_START_DELAY=100 -DEXTENDED_JOINING_RANDOM_MA #
#                          SK=0x007F -DBEACON_REQUEST_DELAY=100               #
#                          -DBEACON_REQ_DELAY_MASK=0x00FF                     #
#                          -DLINK_STATUS_JITTER_MASK=0x007F                   #
#                          -DROUTE_EXPIRY_TIME=30 -DAPSC_ACK_WAIT_DURATION_PO #
#                          LLED=3000 -DNWK_INDIRECT_MSG_TIMEOUT=7             #
#                          -DMAX_RREQ_ENTRIES=8 -DAPSC_MAX_FRAME_RETRIES=3    #
#                          -DNWK_MAX_DATA_RETRIES=2                           #
#                          -DMAX_POLL_FAILURE_RETRIES=2 -DMAX_BCAST=9         #
#                          -DAPS_MAX_GROUPS=16 -DMAX_RTG_ENTRIES=40           #
#                          -DNWK_MAX_BINDING_ENTRIES=4                        #
#                          -DMAX_BINDING_CLUSTER_IDS=4 "-DDEFAULT_KEY={0x01,  #
#                          0x03, 0x05, 0x07, 0x09, 0x0B, 0x0D, 0x0F, 0x00,    #
#                          0x02, 0x04, 0x06, 0x08, 0x0A, 0x0C, 0x0D}"         #
#                          -DMAC_MAX_FRAME_SIZE=116                           #
#                          -DZDNWKMGR_MIN_TRANSMISSIONS=20 "-DCONST=const     #
#                          __code" -DGENERIC=__generic                        #
#                          -DRFD_RCVC_ALWAYS_ON=FALSE -DPOLL_RATE=1000        #
#                          -DQUEUED_POLL_RATE=100 -DRESPONSE_POLL_RATE=100)   #
#                          -DREJOIN_POLL_RATE=440 E:\Lib\micro-electromechani #
#                          cal\Ê±ÑÓ\ZStack-CC2530-2.5.1a\Components\mt\MT_AF. #
#                          c -D NWK_AUTO_POLL -D ZTOOL_P1 -D MT_TASK -D       #
#                          MT_SYS_FUNC -D MT_ZDO_FUNC -D LCD_SUPPORTED=DEBUG  #
#                          -D xPOWER_SAVING -lC E:\Lib\micro-electromechanica #
#                          l\Ê±ÑÓ\ZStack-CC2530-2.5.1a\Projects\zstack\Sample #
#                          s\02¹âÕÕ\CC2530DB\EndDeviceEB\List\ -lA            #
#                          E:\Lib\micro-electromechanical\Ê±ÑÓ\ZStack-CC2530- #
#                          2.5.1a\Projects\zstack\Samples\02¹âÕÕ\CC2530DB\End #
#                          DeviceEB\List\ --diag_suppress Pe001,Pa010 -o      #
#                          E:\Lib\micro-electromechanical\Ê±ÑÓ\ZStack-CC2530- #
#                          2.5.1a\Projects\zstack\Samples\02¹âÕÕ\CC2530DB\End #
#                          DeviceEB\Obj\ -e --no_code_motion --debug          #
#                          --core=plain --dptr=16,1 --data_model=large        #
#                          --code_model=banked --calling_convention=xdata_ree #
#                          ntrant --place_constants=data_rom                  #
#                          --nr_virtual_regs 16 -I E:\Lib\micro-electromechan #
#                          ical\Ê±ÑÓ\ZStack-CC2530-2.5.1a\Projects\zstack\Sam #
#                          ples\02¹âÕÕ\CC2530DB\ -I                           #
#                          E:\Lib\micro-electromechanical\Ê±ÑÓ\ZStack-CC2530- #
#                          2.5.1a\Projects\zstack\Samples\02¹âÕÕ\CC2530DB\..\ #
#                          Source\ -I E:\Lib\micro-electromechanical\Ê±ÑÓ\ZSt #
#                          ack-CC2530-2.5.1a\Projects\zstack\Samples\02¹âÕÕ\C #
#                          C2530DB\..\..\..\ZMain\TI2530DB\ -I                #
#                          E:\Lib\micro-electromechanical\Ê±ÑÓ\ZStack-CC2530- #
#                          2.5.1a\Projects\zstack\Samples\02¹âÕÕ\CC2530DB\..\ #
#                          ..\..\..\..\Components\hal\include\ -I             #
#                          E:\Lib\micro-electromechanical\Ê±ÑÓ\ZStack-CC2530- #
#                          2.5.1a\Projects\zstack\Samples\02¹âÕÕ\CC2530DB\..\ #
#                          ..\..\..\..\Components\hal\target\CC2530EB\ -I     #
#                          E:\Lib\micro-electromechanical\Ê±ÑÓ\ZStack-CC2530- #
#                          2.5.1a\Projects\zstack\Samples\02¹âÕÕ\CC2530DB\..\ #
#                          ..\..\..\..\Components\mac\include\ -I             #
#                          E:\Lib\micro-electromechanical\Ê±ÑÓ\ZStack-CC2530- #
#                          2.5.1a\Projects\zstack\Samples\02¹âÕÕ\CC2530DB\..\ #
#                          ..\..\..\..\Components\mac\high_level\ -I          #
#                          E:\Lib\micro-electromechanical\Ê±ÑÓ\ZStack-CC2530- #
#                          2.5.1a\Projects\zstack\Samples\02¹âÕÕ\CC2530DB\..\ #
#                          ..\..\..\..\Components\mac\low_level\srf04\ -I     #
#                          E:\Lib\micro-electromechanical\Ê±ÑÓ\ZStack-CC2530- #
#                          2.5.1a\Projects\zstack\Samples\02¹âÕÕ\CC2530DB\..\ #
#                          ..\..\..\..\Components\mac\low_level\srf04\single_ #
#                          chip\ -I E:\Lib\micro-electromechanical\Ê±ÑÓ\ZStac #
#                          k-CC2530-2.5.1a\Projects\zstack\Samples\02¹âÕÕ\CC2 #
#                          530DB\..\..\..\..\..\Components\mt\ -I             #
#                          E:\Lib\micro-electromechanical\Ê±ÑÓ\ZStack-CC2530- #
#                          2.5.1a\Projects\zstack\Samples\02¹âÕÕ\CC2530DB\..\ #
#                          ..\..\..\..\Components\osal\include\ -I            #
#                          E:\Lib\micro-electromechanical\Ê±ÑÓ\ZStack-CC2530- #
#                          2.5.1a\Projects\zstack\Samples\02¹âÕÕ\CC2530DB\..\ #
#                          ..\..\..\..\Components\services\saddr\ -I          #
#                          E:\Lib\micro-electromechanical\Ê±ÑÓ\ZStack-CC2530- #
#                          2.5.1a\Projects\zstack\Samples\02¹âÕÕ\CC2530DB\..\ #
#                          ..\..\..\..\Components\services\sdata\ -I          #
#                          E:\Lib\micro-electromechanical\Ê±ÑÓ\ZStack-CC2530- #
#                          2.5.1a\Projects\zstack\Samples\02¹âÕÕ\CC2530DB\..\ #
#                          ..\..\..\..\Components\stack\af\ -I                #
#                          E:\Lib\micro-electromechanical\Ê±ÑÓ\ZStack-CC2530- #
#                          2.5.1a\Projects\zstack\Samples\02¹âÕÕ\CC2530DB\..\ #
#                          ..\..\..\..\Components\stack\nwk\ -I               #
#                          E:\Lib\micro-electromechanical\Ê±ÑÓ\ZStack-CC2530- #
#                          2.5.1a\Projects\zstack\Samples\02¹âÕÕ\CC2530DB\..\ #
#                          ..\..\..\..\Components\stack\sapi\ -I              #
#                          E:\Lib\micro-electromechanical\Ê±ÑÓ\ZStack-CC2530- #
#                          2.5.1a\Projects\zstack\Samples\02¹âÕÕ\CC2530DB\..\ #
#                          ..\..\..\..\Components\stack\sec\ -I               #
#                          E:\Lib\micro-electromechanical\Ê±ÑÓ\ZStack-CC2530- #
#                          2.5.1a\Projects\zstack\Samples\02¹âÕÕ\CC2530DB\..\ #
#                          ..\..\..\..\Components\stack\sys\ -I               #
#                          E:\Lib\micro-electromechanical\Ê±ÑÓ\ZStack-CC2530- #
#                          2.5.1a\Projects\zstack\Samples\02¹âÕÕ\CC2530DB\..\ #
#                          ..\..\..\..\Components\stack\zdo\ -I               #
#                          E:\Lib\micro-electromechanical\Ê±ÑÓ\ZStack-CC2530- #
#                          2.5.1a\Projects\zstack\Samples\02¹âÕÕ\CC2530DB\..\ #
#                          ..\..\..\..\Components\zmac\ -I                    #
#                          E:\Lib\micro-electromechanical\Ê±ÑÓ\ZStack-CC2530- #
#                          2.5.1a\Projects\zstack\Samples\02¹âÕÕ\CC2530DB\..\ #
#                          ..\..\..\..\Components\zmac\f8w\ -Ohz              #
#                          --require_prototypes                               #
#    List file          =  E:\Lib\micro-electromechanical\Ê±ÑÓ\ZStack-CC2530- #
#                          2.5.1a\Projects\zstack\Samples\02¹âÕÕ\CC2530DB\End #
#                          DeviceEB\List\MT_AF.lst                            #
#    Object file        =  E:\Lib\micro-electromechanical\Ê±ÑÓ\ZStack-CC2530- #
#                          2.5.1a\Projects\zstack\Samples\02¹âÕÕ\CC2530DB\End #
#                          DeviceEB\Obj\MT_AF.r51                             #
#                                                                             #
#                                                                             #
###############################################################################

E:\Lib\micro-electromechanical\Ê±ÑÓ\ZStack-CC2530-2.5.1a\Components\mt\MT_AF.c
      1          /**************************************************************************************************
      2            Filename:       MT_AF.c
      3            Revised:        $Date: 2011-05-27 16:00:27 -0700 (Fri, 27 May 2011) $
      4            Revision:       $Revision: 26145 $
      5          
      6          
      7            Description:    MonitorTest functions for the AF layer.
      8          
      9          
     10            Copyright 2007-2011 Texas Instruments Incorporated. All rights reserved.
     11          
     12            IMPORTANT: Your use of this Software is limited to those specific rights
     13            granted under the terms of a software license agreement between the user
     14            who downloaded the software, his/her employer (which must be your employer)
     15            and Texas Instruments Incorporated (the "License").  You may not use this
     16            Software unless you agree to abide by the terms of the License. The License
     17            limits your use, and you acknowledge, that the Software may not be modified,
     18            copied or distributed unless embedded on a Texas Instruments microcontroller
     19            or used solely and exclusively in conjunction with a Texas Instruments radio
     20            frequency transceiver, which is integrated into your product.  Other than for
     21            the foregoing purpose, you may not use, reproduce, copy, prepare derivative
     22            works of, modify, distribute, perform, display or sell this Software and/or
     23            its documentation for any purpose.
     24          
     25            YOU FURTHER ACKNOWLEDGE AND AGREE THAT THE SOFTWARE AND DOCUMENTATION ARE
     26            PROVIDED “AS IS” WITHOUT WARRANTY OF ANY KIND, EITHER EXPRESS OR IMPLIED,
     27            INCLUDING WITHOUT LIMITATION, ANY WARRANTY OF MERCHANTABILITY, TITLE,
     28            NON-INFRINGEMENT AND FITNESS FOR A PARTICULAR PURPOSE. IN NO EVENT SHALL
     29            TEXAS INSTRUMENTS OR ITS LICENSORS BE LIABLE OR OBLIGATED UNDER CONTRACT,
     30            NEGLIGENCE, STRICT LIABILITY, CONTRIBUTION, BREACH OF WARRANTY, OR OTHER
     31            LEGAL EQUITABLE THEORY ANY DIRECT OR INDIRECT DAMAGES OR EXPENSES
     32            INCLUDING BUT NOT LIMITED TO ANY INCIDENTAL, SPECIAL, INDIRECT, PUNITIVE
     33            OR CONSEQUENTIAL DAMAGES, LOST PROFITS OR LOST DATA, COST OF PROCUREMENT
     34            OF SUBSTITUTE GOODS, TECHNOLOGY, SERVICES, OR ANY CLAIMS BY THIRD PARTIES
     35            (INCLUDING BUT NOT LIMITED TO ANY DEFENSE THEREOF), OR OTHER SIMILAR COSTS.
     36          
     37            Should you have any questions regarding your right to use this Software,
     38            contact Texas Instruments Incorporated at www.TI.com.
     39          
     40          **************************************************************************************************/
     41          
     42          /* ------------------------------------------------------------------------------------------------
     43           *                                          Includes
     44           * ------------------------------------------------------------------------------------------------
     45           */
     46          #include "ZComDef.h"
     47          #include "OSAL.h"
     48          #include "MT.h"
     49          #include "MT_AF.h"
     50          #include "MT_ZDO.h"
     51          #include "nwk.h"
     52          #include "OnBoard.h"
     53          #include "MT_UART.h"
     54          
     55          #if defined INTER_PAN
     56          #include "stub_aps.h"
     57          #endif
     58          
     59          /* ------------------------------------------------------------------------------------------------
     60           *                                          Constants
     61           * ------------------------------------------------------------------------------------------------
     62           */
     63          
     64          #if !defined MT_AF_EXEC_CNT
     65          #define MT_AF_EXEC_CNT  15
     66          #endif
     67          
     68          #if !defined MT_AF_EXEC_DLY
     69          #define MT_AF_EXEC_DLY  1000
     70          #endif
     71          
     72          /* ------------------------------------------------------------------------------------------------
     73           *                                           Typedefs
     74           * ------------------------------------------------------------------------------------------------
     75           */
     76          
     77          typedef struct
     78          {
     79            uint8 *data;
     80            afAddrType_t dstAddr;
     81            endPointDesc_t *epDesc;
     82            uint16 cId;
     83            uint16 dataLen;
     84            uint8 transId;
     85            uint8 txOpts;
     86            uint8 radius;
     87            uint8 tick;
     88          } mtAfDataReq_t;
     89          
     90          typedef struct _mtAfInMsgList_t
     91          {
     92            struct _mtAfInMsgList_t *next;
     93            uint8 *data;
     94            uint32 timestamp;         // Receipt timestamp from MAC.
     95            uint8 tick;
     96          } mtAfInMsgList_t;
     97          
     98          /* ------------------------------------------------------------------------------------------------
     99           *                                        Local Variables
    100           * ------------------------------------------------------------------------------------------------
    101           */
    102          

   \                                 In  segment XDATA_Z, align 1, keep-with-next
    103          mtAfInMsgList_t *pMtAfInMsgList = NULL;
   \                     pMtAfInMsgList:
   \   000000                DS 2
   \   000002                REQUIRE __INIT_XDATA_Z

   \                                 In  segment XDATA_Z, align 1, keep-with-next
    104          mtAfDataReq_t *pMtAfDataReq = NULL;
   \                     pMtAfDataReq:
   \   000000                DS 2
   \   000002                REQUIRE __INIT_XDATA_Z
    105          
    106          /* ------------------------------------------------------------------------------------------------
    107           *                                        Global Variables
    108           * ------------------------------------------------------------------------------------------------
    109           */
    110          
    111          #if defined ( MT_AF_CB_FUNC )
    112          uint16 _afCallbackSub;
    113          #endif
    114          
    115          /* ------------------------------------------------------------------------------------------------
    116           *                                        Local Functions
    117           * ------------------------------------------------------------------------------------------------
    118           */
    119          
    120          void MT_AfRegister(uint8 *pBuf);
    121          void MT_AfDataRequest(uint8 *pBuf);
    122          
    123          #if defined ( ZIGBEE_SOURCE_ROUTING )
    124          void MT_AfDataRequestSrcRtg(uint8 *pBuf);
    125          #endif
    126          
    127          #if defined INTER_PAN
    128          static void MT_AfInterPanCtl(uint8 *pBuf);
    129          #endif
    130          
    131          static void MT_AfDataRetrieve(uint8 *pBuf);
    132          static void MT_AfDataStore(uint8 *pBuf);
    133          static void MT_AfAPSF_ConfigSet(uint8 *pBuf);
    134          
    135          /**************************************************************************************************
    136           * @fn          MT_AfExec
    137           *
    138           * @brief       This function is invoked by an MT timer event.
    139           *
    140           * input parameters
    141           *
    142           * None.
    143           *
    144           * output parameters
    145           *
    146           * None.
    147           *
    148           * @return      None.
    149           **************************************************************************************************
    150           */

   \                                 In  segment BANKED_CODE, align 1, keep-with-next
    151          void MT_AfExec(void)
   \                     MT_AfExec:
    152          {
   \   000000   74F7         MOV     A,#-0x9
   \   000002   12....       LCALL   ?BANKED_ENTER_XDATA
   \   000005                ; Saved register size: 9
   \   000005                ; Auto size: 0
    153            mtAfInMsgList_t *pPrev, *pItem = pMtAfInMsgList;
   \                     ??MT_AfExec_0:
   \   000005   90....       MOV     DPTR,#pMtAfInMsgList
   \   000008   8008         SJMP    ??MT_AfExec_1
    154          
    155            while (pItem != NULL)
    156            {
    157              if (--(pItem->tick) == 0)
    158              {
    159                if (pMtAfInMsgList == pItem)
    160                {
    161                  pMtAfInMsgList = pItem->next;
    162                  (void)osal_mem_free(pItem);
    163                  pItem = pMtAfInMsgList;
    164                }
    165                else
    166                {
    167                  pPrev->next = pItem->next;
    168                  (void)osal_mem_free(pItem);
    169                  pItem = pPrev->next;
    170                }
    171              }
    172              else
    173              {
    174                pPrev = pItem;
   \                     ??MT_AfExec_2:
   \   00000A   EA           MOV     A,R2
   \   00000B   FE           MOV     R6,A
   \   00000C   EB           MOV     A,R3
   \   00000D   FF           MOV     R7,A
    175                pItem = pItem->next;
   \   00000E   8A82         MOV     DPL,R2
   \   000010   8B83         MOV     DPH,R3
    176              }
   \                     ??MT_AfExec_1:
   \   000012   12....       LCALL   ??Subroutine47_0 & 0xFFFF
   \                     ??CrossCallReturnLabel_105:
   \   000015   EA           MOV     A,R2
   \   000016   4B           ORL     A,R3
   \   000017   6037         JZ      ??MT_AfExec_3
   \   000019   EA           MOV     A,R2
   \   00001A   2408         ADD     A,#0x8
   \   00001C   12....       LCALL   ?Subroutine24 & 0xFFFF
   \                     ??CrossCallReturnLabel_102:
   \   00001F   14           DEC     A
   \   000020   F0           MOVX    @DPTR,A
   \   000021   70E7         JNZ     ??MT_AfExec_2
   \   000023   12....       LCALL   ?Subroutine21 & 0xFFFF
   \                     ??CrossCallReturnLabel_125:
   \   000026   EA           MOV     A,R2
   \   000027   68           XRL     A,R0
   \   000028   7002         JNZ     ??MT_AfExec_4
   \   00002A   EB           MOV     A,R3
   \   00002B   69           XRL     A,R1
   \                     ??MT_AfExec_4:
   \   00002C   8A82         MOV     DPL,R2
   \   00002E   8B83         MOV     DPH,R3
   \   000030   700B         JNZ     ??MT_AfExec_5
   \   000032   12....       LCALL   ?Subroutine20 & 0xFFFF
   \                     ??CrossCallReturnLabel_38:
   \   000035   12....       LCALL   ?Subroutine31 & 0xFFFF
   \                     ??CrossCallReturnLabel_56:
   \   000038                ; Setup parameters for call to function osal_mem_free
   \   000038   12....       LCALL   ??osal_mem_free?relay
   \   00003B   80C8         SJMP    ??MT_AfExec_0
   \                     ??MT_AfExec_5:
   \   00003D   12....       LCALL   ??Subroutine50_0 & 0xFFFF
   \                     ??CrossCallReturnLabel_123:
   \   000040   8E82         MOV     DPL,R6
   \   000042   8F83         MOV     DPH,R7
   \   000044   12....       LCALL   ?Subroutine31 & 0xFFFF
   \                     ??CrossCallReturnLabel_57:
   \   000047                ; Setup parameters for call to function osal_mem_free
   \   000047   12....       LCALL   ??osal_mem_free?relay
   \   00004A   8E82         MOV     DPL,R6
   \   00004C   8F83         MOV     DPH,R7
   \   00004E   80C2         SJMP    ??MT_AfExec_1
    177            }
    178          
    179            if (pMtAfDataReq != NULL)
   \                     ??MT_AfExec_3:
   \   000050   12....       LCALL   ?Subroutine2 & 0xFFFF
   \                     ??CrossCallReturnLabel_93:
   \   000053   601E         JZ      ??MT_AfExec_6
    180            {
    181              if (--(pMtAfDataReq->tick) == 0)
   \   000055   E0           MOVX    A,@DPTR
   \   000056   C8           XCH     A,R0
   \   000057   2417         ADD     A,#0x17
   \   000059   F582         MOV     DPL,A
   \   00005B   E8           MOV     A,R0
   \   00005C   12....       LCALL   ??Subroutine46_0 & 0xFFFF
   \                     ??CrossCallReturnLabel_101:
   \   00005F   14           DEC     A
   \   000060   12....       LCALL   ?Subroutine7 & 0xFFFF
   \                     ??CrossCallReturnLabel_12:
   \   000063   E0           MOVX    A,@DPTR
   \   000064   700D         JNZ     ??MT_AfExec_6
    182              {
    183                (void)osal_mem_free(pMtAfDataReq);
   \   000066                ; Setup parameters for call to function osal_mem_free
   \   000066   12....       LCALL   ?Subroutine15 & 0xFFFF
   \                     ??CrossCallReturnLabel_107:
   \   000069   12....       LCALL   ??osal_mem_free?relay
    184                pMtAfDataReq = NULL;
   \   00006C   90....       MOV     DPTR,#pMtAfDataReq
   \   00006F   E4           CLR     A
   \   000070   F0           MOVX    @DPTR,A
   \   000071   A3           INC     DPTR
   \   000072   F0           MOVX    @DPTR,A
    185              }
    186            }
    187          
    188            if ((pMtAfInMsgList != NULL) || (pMtAfDataReq != NULL))
   \                     ??MT_AfExec_6:
   \   000073   90....       MOV     DPTR,#pMtAfInMsgList
   \   000076   12....       LCALL   ??Subroutine44_0 & 0xFFFF
   \                     ??CrossCallReturnLabel_92:
   \   000079   7005         JNZ     ??MT_AfExec_7
   \   00007B   12....       LCALL   ?Subroutine2 & 0xFFFF
   \                     ??CrossCallReturnLabel_94:
   \   00007E   601F         JZ      ??MT_AfExec_8
    189            {
    190              if (ZSuccess != osal_start_timerEx(MT_TaskID, MT_AF_EXEC_EVT, MT_AF_EXEC_DLY))
   \                     ??MT_AfExec_7:
   \   000080                ; Setup parameters for call to function osal_start_timerEx
   \   000080   7CE8         MOV     R4,#-0x18
   \   000082   7D03         MOV     R5,#0x3
   \   000084   7A08         MOV     R2,#0x8
   \   000086   7B00         MOV     R3,#0x0
   \   000088   90....       MOV     DPTR,#MT_TaskID
   \   00008B   E0           MOVX    A,@DPTR
   \   00008C   F9           MOV     R1,A
   \   00008D   12....       LCALL   ??osal_start_timerEx?relay
   \   000090   E9           MOV     A,R1
   \   000091   600C         JZ      ??MT_AfExec_8
    191              {
    192                osal_set_event(MT_TaskID, MT_AF_EXEC_EVT);
   \   000093                ; Setup parameters for call to function osal_set_event
   \   000093   7A08         MOV     R2,#0x8
   \   000095   7B00         MOV     R3,#0x0
   \   000097   90....       MOV     DPTR,#MT_TaskID
   \   00009A   E0           MOVX    A,@DPTR
   \   00009B   F9           MOV     R1,A
   \   00009C   12....       LCALL   ??osal_set_event?relay
    193              }
    194            }
    195          }
   \                     ??MT_AfExec_8:
   \   00009F                REQUIRE ?Subroutine0
   \   00009F                ; // Fall through to label ?Subroutine0

   \                                 In  segment BANKED_CODE, align 1, keep-with-next
   \                     ?Subroutine0:
   \   000000   7F01         MOV     R7,#0x1
   \   000002   02....       LJMP    ?BANKED_LEAVE_XDATA

   \                                 In  segment BANKED_CODE, align 1, keep-with-next
   \                     ?Subroutine7:
   \   000000   F0           MOVX    @DPTR,A
   \   000001   12....       LCALL   ?Subroutine39 & 0xFFFF
   \                     ??CrossCallReturnLabel_80:
   \   000004   2417         ADD     A,#0x17
   \   000006   12....       LCALL   ?Subroutine41 & 0xFFFF
   \                     ??CrossCallReturnLabel_134:
   \   000009   22           RET

   \                                 In  segment BANKED_CODE, align 1, keep-with-next
   \                     ?Subroutine2:
   \   000000   90....       MOV     DPTR,#pMtAfDataReq
   \   000003                REQUIRE ??Subroutine44_0
   \   000003                ; // Fall through to label ??Subroutine44_0

   \                                 In  segment BANKED_CODE, align 1, keep-with-next
   \                     ??Subroutine44_0:
   \   000000   E0           MOVX    A,@DPTR
   \   000001   F8           MOV     R0,A
   \   000002   A3           INC     DPTR
   \   000003   E0           MOVX    A,@DPTR
   \   000004   F9           MOV     R1,A
   \   000005   E8           MOV     A,R0
   \   000006   49           ORL     A,R1
   \   000007   22           RET

   \                                 In  segment BANKED_CODE, align 1, keep-with-next
   \                     ?Subroutine31:
   \   000000   E8           MOV     A,R0
   \   000001   F0           MOVX    @DPTR,A
   \   000002   A3           INC     DPTR
   \   000003   E9           MOV     A,R1
   \   000004   F0           MOVX    @DPTR,A
   \   000005   22           RET

   \                                 In  segment BANKED_CODE, align 1, keep-with-next
   \                     ?Subroutine24:
   \   000000   F582         MOV     DPL,A
   \   000002   EB           MOV     A,R3
   \   000003                REQUIRE ??Subroutine46_0
   \   000003                ; // Fall through to label ??Subroutine46_0

   \                                 In  segment BANKED_CODE, align 1, keep-with-next
   \                     ??Subroutine46_0:
   \   000000   12....       LCALL   ??Subroutine51_0 & 0xFFFF
   \                     ??CrossCallReturnLabel_140:
   \   000003   E0           MOVX    A,@DPTR
   \   000004   22           RET

   \                                 In  segment BANKED_CODE, align 1, keep-with-next
   \                     ?Subroutine15:
   \   000000   90....       MOV     DPTR,#pMtAfDataReq
   \   000003                REQUIRE ??Subroutine47_0
   \   000003                ; // Fall through to label ??Subroutine47_0

   \                                 In  segment BANKED_CODE, align 1, keep-with-next
   \                     ??Subroutine47_0:
   \   000000   E0           MOVX    A,@DPTR
   \   000001   FA           MOV     R2,A
   \   000002   A3           INC     DPTR
   \   000003   E0           MOVX    A,@DPTR
   \   000004   FB           MOV     R3,A
   \   000005   22           RET

   \                                 In  segment BANKED_CODE, align 1, keep-with-next
   \                     ?Subroutine21:
   \   000000   90....       MOV     DPTR,#pMtAfInMsgList
   \   000003                REQUIRE ??Subroutine50_0
   \   000003                ; // Fall through to label ??Subroutine50_0

   \                                 In  segment BANKED_CODE, align 1, keep-with-next
   \                     ??Subroutine50_0:
   \   000000   E0           MOVX    A,@DPTR
   \   000001   F8           MOV     R0,A
   \   000002   A3           INC     DPTR
   \   000003   E0           MOVX    A,@DPTR
   \   000004   F9           MOV     R1,A
   \   000005   22           RET

   \                                 In  segment BANKED_CODE, align 1, keep-with-next
   \                     ?Subroutine20:
   \   000000   E0           MOVX    A,@DPTR
   \   000001   F8           MOV     R0,A
   \   000002   A3           INC     DPTR
   \   000003   E0           MOVX    A,@DPTR
   \   000004   F9           MOV     R1,A
   \   000005   90....       MOV     DPTR,#pMtAfInMsgList
   \   000008   22           RET

   \                                 In  segment BANKED_CODE, align 1, keep-with-next
   \                     ?Subroutine39:
   \   000000   90....       MOV     DPTR,#pMtAfDataReq
   \   000003   E0           MOVX    A,@DPTR
   \   000004   F8           MOV     R0,A
   \   000005   A3           INC     DPTR
   \   000006   E0           MOVX    A,@DPTR
   \   000007   C8           XCH     A,R0
   \   000008   22           RET

   \                                 In  segment BANKED_CODE, align 1, keep-with-next
   \                     ?Subroutine41:
   \   000000   F582         MOV     DPL,A
   \   000002   E8           MOV     A,R0
   \   000003                REQUIRE ??Subroutine51_0
   \   000003                ; // Fall through to label ??Subroutine51_0

   \                                 In  segment BANKED_CODE, align 1, keep-with-next
   \                     ??Subroutine51_0:
   \   000000   3400         ADDC    A,#0x0
   \   000002   F583         MOV     DPH,A
   \   000004   22           RET
    196          
    197          /***************************************************************************************************
    198           * @fn      MT_AfCommandProcessing
    199           *
    200           * @brief   Process all the AF commands that are issued by test tool
    201           *
    202           * @param   pBuf - pointer to the received buffer
    203           *
    204           * @return  status
    205           ***************************************************************************************************/

   \                                 In  segment BANKED_CODE, align 1, keep-with-next
    206          uint8 MT_AfCommandProcessing(uint8 *pBuf)
   \                     MT_AfCommandProcessing:
    207          {
   \   000000   74F7         MOV     A,#-0x9
   \   000002   12....       LCALL   ?BANKED_ENTER_XDATA
   \   000005                ; Saved register size: 9
   \   000005                ; Auto size: 3
   \   000005   74FD         MOV     A,#-0x3
   \   000007   12....       LCALL   ?ALLOC_XSTACK8
   \   00000A   EA           MOV     A,R2
   \   00000B   F8           MOV     R0,A
   \   00000C   EB           MOV     A,R3
   \   00000D   F9           MOV     R1,A
    208            uint8 status = MT_RPC_SUCCESS;
   \   00000E   7E00         MOV     R6,#0x0
    209          
    210            switch (pBuf[MT_RPC_POS_CMD1])
   \   000010   8882         MOV     DPL,R0
   \   000012   8983         MOV     DPH,R1
   \   000014   A3           INC     DPTR
   \   000015   A3           INC     DPTR
   \   000016   E0           MOVX    A,@DPTR
   \   000017   6015         JZ      ??MT_AfCommandProcessing_0
   \   000019   14           DEC     A
   \   00001A   6017         JZ      ??MT_AfCommandProcessing_1
   \   00001C   14           DEC     A
   \   00001D   6014         JZ      ??MT_AfCommandProcessing_1
   \   00001F   14           DEC     A
   \   000020   6016         JZ      ??MT_AfCommandProcessing_2
   \   000022   24F2         ADD     A,#-0xe
   \   000024   601C         JZ      ??MT_AfCommandProcessing_3
   \   000026   14           DEC     A
   \   000027   6014         JZ      ??MT_AfCommandProcessing_4
   \   000029   14           DEC     A
   \   00002A   601B         JZ      ??MT_AfCommandProcessing_5
   \   00002C   806C         SJMP    ??MT_AfCommandProcessing_6
    211            {
    212              case MT_AF_REGISTER:
    213                MT_AfRegister(pBuf);
   \                     ??MT_AfCommandProcessing_0:
   \   00002E                ; Setup parameters for call to function MT_AfRegister
   \   00002E   12....       LCALL   ??MT_AfRegister?relay
    214                break;
   \   000031   8069         SJMP    ??MT_AfCommandProcessing_7
    215          
    216              case MT_AF_DATA_REQUEST:
    217              case MT_AF_DATA_REQUEST_EXT:
    218                MT_AfDataRequest(pBuf);
   \                     ??MT_AfCommandProcessing_1:
   \   000033                ; Setup parameters for call to function MT_AfDataRequest
   \   000033   12....       LCALL   ??MT_AfDataRequest?relay
    219                break;
   \   000036   8064         SJMP    ??MT_AfCommandProcessing_7
    220          
    221          #if defined ( ZIGBEE_SOURCE_ROUTING )
    222              case MT_AF_DATA_REQUEST_SRCRTG:
    223                MT_AfDataRequestSrcRtg(pBuf);
   \                     ??MT_AfCommandProcessing_2:
   \   000038                ; Setup parameters for call to function MT_AfDataRequestSrcRtg
   \   000038   12....       LCALL   ??MT_AfDataRequestSrcRtg?relay
    224                break;
   \   00003B   805F         SJMP    ??MT_AfCommandProcessing_7
    225          #endif
    226          
    227          #if defined INTER_PAN
    228              case MT_AF_INTER_PAN_CTL:
    229                MT_AfInterPanCtl(pBuf);
    230                break;
    231          #endif
    232          
    233              case MT_AF_DATA_RETRIEVE:
    234                MT_AfDataRetrieve(pBuf);
   \                     ??MT_AfCommandProcessing_4:
   \   00003D                ; Setup parameters for call to function MT_AfDataRetrieve
   \   00003D   12....       LCALL   ??MT_AfDataRetrieve?relay
    235                break;
   \   000040   805A         SJMP    ??MT_AfCommandProcessing_7
    236          
    237              case MT_AF_DATA_STORE:
    238                MT_AfDataStore(pBuf);
   \                     ??MT_AfCommandProcessing_3:
   \   000042                ; Setup parameters for call to function MT_AfDataStore
   \   000042   12....       LCALL   ??MT_AfDataStore?relay
    239                break;
   \   000045   8055         SJMP    ??MT_AfCommandProcessing_7
    240          
    241              case MT_AF_APSF_CONFIG_SET:
    242                MT_AfAPSF_ConfigSet(pBuf);
   \                     ??MT_AfCommandProcessing_5:
   \   000047   8882         MOV     DPL,R0
   \   000049   8983         MOV     DPH,R1
   \   00004B   A3           INC     DPTR
   \   00004C   A3           INC     DPTR
   \   00004D   A3           INC     DPTR
   \   00004E   A3           INC     DPTR
   \   00004F   E0           MOVX    A,@DPTR
   \   000050   C0E0         PUSH    A
   \   000052   7401         MOV     A,#0x1
   \   000054   12....       LCALL   ?XSTACK_DISP0_8
   \   000057   D0E0         POP     A
   \   000059   F0           MOVX    @DPTR,A
   \   00005A   8882         MOV     DPL,R0
   \   00005C   8983         MOV     DPH,R1
   \   00005E   A3           INC     DPTR
   \   00005F   A3           INC     DPTR
   \   000060   A3           INC     DPTR
   \   000061   A3           INC     DPTR
   \   000062   A3           INC     DPTR
   \   000063   E0           MOVX    A,@DPTR
   \   000064   C0E0         PUSH    A
   \   000066   7402         MOV     A,#0x2
   \   000068   12....       LCALL   ?XSTACK_DISP0_8
   \   00006B   D0E0         POP     A
   \   00006D   F0           MOVX    @DPTR,A
   \   00006E                ; Setup parameters for call to function afAPSF_ConfigSet
   \   00006E   7401         MOV     A,#0x1
   \   000070   12....       LCALL   ?XSTACK_DISP0_8
   \   000073   AA82         MOV     R2,DPL
   \   000075   AB83         MOV     R3,DPH
   \   000077   8882         MOV     DPL,R0
   \   000079   8983         MOV     DPH,R1
   \   00007B   A3           INC     DPTR
   \   00007C   A3           INC     DPTR
   \   00007D   A3           INC     DPTR
   \   00007E   E0           MOVX    A,@DPTR
   \   00007F   F9           MOV     R1,A
   \   000080   12....       LCALL   ??afAPSF_ConfigSet?relay
   \   000083   E9           MOV     A,R1
   \   000084   85..82       MOV     DPL,?XSP + 0
   \   000087   85..83       MOV     DPH,?XSP + 1
   \   00008A   F0           MOVX    @DPTR,A
   \   00008B                ; Setup parameters for call to function MT_BuildAndSendZToolResponse
   \   00008B   AC82         MOV     R4,DPL
   \   00008D   AD83         MOV     R5,DPH
   \   00008F   7B01         MOV     R3,#0x1
   \   000091   7A13         MOV     R2,#0x13
   \   000093   7964         MOV     R1,#0x64
   \   000095   12....       LCALL   ??MT_BuildAndSendZToolResponse?relay
    243                break;
   \   000098   8002         SJMP    ??MT_AfCommandProcessing_7
    244          
    245              default:
    246                status = MT_RPC_ERR_COMMAND_ID;
   \                     ??MT_AfCommandProcessing_6:
   \   00009A   0E           INC     R6
   \   00009B   0E           INC     R6
    247                break;
    248            }
    249          
    250            return status;
   \                     ??MT_AfCommandProcessing_7:
   \   00009C   EE           MOV     A,R6
   \   00009D   F9           MOV     R1,A
   \   00009E   7403         MOV     A,#0x3
   \   0000A0   12....       LCALL   ?DEALLOC_XSTACK8
   \   0000A3   02....       LJMP    ?Subroutine0 & 0xFFFF
    251          }
    252          
    253          /***************************************************************************************************
    254           * @fn      MT_AfRegister
    255           *
    256           * @brief   Process AF Register command
    257           *
    258           * @param   pBuf - pointer to the received buffer
    259           *
    260           * @return  none
    261           ***************************************************************************************************/

   \                                 In  segment BANKED_CODE, align 1, keep-with-next
    262          void MT_AfRegister(uint8 *pBuf)
   \                     MT_AfRegister:
    263          {
   \   000000   74F2         MOV     A,#-0xe
   \   000002   12....       LCALL   ?BANKED_ENTER_XDATA
   \   000005                ; Saved register size: 14
   \   000005                ; Auto size: 1
   \   000005   74FF         MOV     A,#-0x1
   \   000007   12....       LCALL   ?ALLOC_XSTACK8
   \   00000A   8A..         MOV     ?V0 + 0,R2
   \   00000C   8B..         MOV     ?V0 + 1,R3
    264            uint8 cmdId;
    265            uint8 retValue = ZMemError;
   \   00000E   85..82       MOV     DPL,?XSP + 0
   \   000011   85..83       MOV     DPH,?XSP + 1
   \   000014   7410         MOV     A,#0x10
   \   000016   12....       LCALL   ?Subroutine34 & 0xFFFF
    266            endPointDesc_t *epDesc;
    267          
    268            /* parse header */
    269            cmdId = pBuf[MT_RPC_POS_CMD1];
   \                     ??CrossCallReturnLabel_70:
   \   000019   F5..         MOV     ?V0 + 2,A
    270            pBuf += MT_RPC_FRAME_HDR_SZ;
    271          
    272            epDesc = (endPointDesc_t *)osal_mem_alloc(sizeof(endPointDesc_t));
   \   00001B                ; Setup parameters for call to function osal_mem_alloc
   \   00001B   7A06         MOV     R2,#0x6
   \   00001D   7B00         MOV     R3,#0x0
   \   00001F   12....       LCALL   ??osal_mem_alloc?relay
   \   000022   8A..         MOV     ?V0 + 4,R2
   \   000024   8B..         MOV     ?V0 + 5,R3
   \   000026   AE..         MOV     R6,?V0 + 4
   \   000028   AF..         MOV     R7,?V0 + 5
    273            if ( epDesc )
   \   00002A   EE           MOV     A,R6
   \   00002B   4F           ORL     A,R7
   \   00002C   6040         JZ      ??MT_AfRegister_0
    274            {
    275              epDesc->task_id = &MT_TaskID;
   \   00002E   8E82         MOV     DPL,R6
   \   000030   8F83         MOV     DPH,R7
   \   000032   A3           INC     DPTR
   \   000033   74..         MOV     A,#MT_TaskID & 0xff
   \   000035   F0           MOVX    @DPTR,A
   \   000036   A3           INC     DPTR
   \   000037   74..         MOV     A,#(MT_TaskID >> 8) & 0xff
   \   000039   F0           MOVX    @DPTR,A
    276              retValue = MT_BuildEndpointDesc( pBuf, epDesc );
   \   00003A                ; Setup parameters for call to function MT_BuildEndpointDesc
   \   00003A   EE           MOV     A,R6
   \   00003B   FC           MOV     R4,A
   \   00003C   EF           MOV     A,R7
   \   00003D   FD           MOV     R5,A
   \   00003E   E5..         MOV     A,?V0 + 0
   \   000040   2403         ADD     A,#0x3
   \   000042   FA           MOV     R2,A
   \   000043   E5..         MOV     A,?V0 + 1
   \   000045   3400         ADDC    A,#0x0
   \   000047   FB           MOV     R3,A
   \   000048   12....       LCALL   ??MT_BuildEndpointDesc?relay
   \   00004B   E9           MOV     A,R1
   \   00004C   85..82       MOV     DPL,?XSP + 0
   \   00004F   85..83       MOV     DPH,?XSP + 1
   \   000052   F0           MOVX    @DPTR,A
    277              if ( retValue == ZSuccess )
   \   000053   700F         JNZ     ??MT_AfRegister_1
    278              {
    279                retValue = afRegister( epDesc );
   \   000055                ; Setup parameters for call to function afRegister
   \   000055   EE           MOV     A,R6
   \   000056   FA           MOV     R2,A
   \   000057   EF           MOV     A,R7
   \   000058   FB           MOV     R3,A
   \   000059   12....       LCALL   ??afRegister?relay
   \   00005C   E9           MOV     A,R1
   \   00005D   85..82       MOV     DPL,?XSP + 0
   \   000060   85..83       MOV     DPH,?XSP + 1
   \   000063   F0           MOVX    @DPTR,A
    280              }
    281          
    282              if ( retValue != ZSuccess )
   \                     ??MT_AfRegister_1:
   \   000064   E0           MOVX    A,@DPTR
   \   000065   6007         JZ      ??MT_AfRegister_0
    283              {
    284                osal_mem_free( epDesc );
   \   000067                ; Setup parameters for call to function osal_mem_free
   \   000067   EE           MOV     A,R6
   \   000068   FA           MOV     R2,A
   \   000069   EF           MOV     A,R7
   \   00006A   FB           MOV     R3,A
   \   00006B   12....       LCALL   ??osal_mem_free?relay
    285              }
    286            }
    287          
    288            /* Build and send back the response */
    289            MT_BuildAndSendZToolResponse(((uint8)MT_RPC_CMD_SRSP | (uint8)MT_RPC_SYS_AF), cmdId, 1, &retValue);
   \                     ??MT_AfRegister_0:
   \   00006E                ; Setup parameters for call to function MT_BuildAndSendZToolResponse
   \   00006E   85..82       MOV     DPL,?XSP + 0
   \   000071   85..83       MOV     DPH,?XSP + 1
   \   000074   AC82         MOV     R4,DPL
   \   000076   AD83         MOV     R5,DPH
   \   000078   7B01         MOV     R3,#0x1
   \   00007A   AA..         MOV     R2,?V0 + 2
   \   00007C   7964         MOV     R1,#0x64
   \   00007E   12....       LCALL   ??MT_BuildAndSendZToolResponse?relay
    290          }
   \   000081   7401         MOV     A,#0x1
   \   000083   12....       LCALL   ?DEALLOC_XSTACK8
   \   000086   7F06         MOV     R7,#0x6
   \   000088   02....       LJMP    ?BANKED_LEAVE_XDATA

   \                                 In  segment BANKED_CODE, align 1, keep-with-next
   \                     ?Subroutine37:
   \   000000   F0           MOVX    @DPTR,A
   \   000001   8A82         MOV     DPL,R2
   \   000003   8B83         MOV     DPH,R3
   \   000005   A3           INC     DPTR
   \   000006   22           RET

   \                                 In  segment BANKED_CODE, align 1, keep-with-next
   \                     ?Subroutine34:
   \   000000   12....       LCALL   ?Subroutine37 & 0xFFFF
   \                     ??CrossCallReturnLabel_76:
   \   000003   A3           INC     DPTR
   \   000004   E0           MOVX    A,@DPTR
   \   000005   22           RET
    291          
    292          /***************************************************************************************************
    293           * @fn      MT_AfDataRequest
    294           *
    295           * @brief   Process AF Register command
    296           *
    297           * @param   pBuf - pointer to the received buffer
    298           *
    299           * @return  none
    300           ***************************************************************************************************/

   \                                 In  segment BANKED_CODE, align 1, keep-with-next
    301          void MT_AfDataRequest(uint8 *pBuf)
   \                     MT_AfDataRequest:
    302          {
   \   000000   74EA         MOV     A,#-0x16
   \   000002   12....       LCALL   ?BANKED_ENTER_XDATA
   \   000005                ; Saved register size: 22
   \   000005                ; Auto size: 14
   \   000005   74F2         MOV     A,#-0xe
   \   000007   12....       LCALL   ?ALLOC_XSTACK8
    303            #define MT_AF_REQ_MSG_LEN  10
    304            #define MT_AF_REQ_MSG_EXT  10
    305          
    306            endPointDesc_t *epDesc;
    307            afAddrType_t dstAddr;
    308            cId_t cId;
    309            uint8 transId, txOpts, radius;
    310            uint8 cmd0, cmd1;
    311            uint8 retValue = ZFailure;
   \   00000A   85..82       MOV     DPL,?XSP + 0
   \   00000D   85..83       MOV     DPH,?XSP + 1
   \   000010   7401         MOV     A,#0x1
   \   000012   12....       LCALL   ?Subroutine37 & 0xFFFF
    312            uint16 dataLen, tempLen;
    313          
    314            /* Parse header */
    315            cmd0 = pBuf[MT_RPC_POS_CMD0];
   \                     ??CrossCallReturnLabel_74:
   \   000015   E0           MOVX    A,@DPTR
   \   000016   F5..         MOV     ?V0 + 10,A
    316            cmd1 = pBuf[MT_RPC_POS_CMD1];
   \   000018   8A82         MOV     DPL,R2
   \   00001A   8B83         MOV     DPH,R3
   \   00001C   A3           INC     DPTR
   \   00001D   A3           INC     DPTR
   \   00001E   E0           MOVX    A,@DPTR
   \   00001F   F5..         MOV     ?V0 + 7,A
    317            pBuf += MT_RPC_FRAME_HDR_SZ;
   \   000021   EA           MOV     A,R2
   \   000022   2403         ADD     A,#0x3
   \   000024   F5..         MOV     ?V0 + 4,A
   \   000026   EB           MOV     A,R3
   \   000027   3400         ADDC    A,#0x0
   \   000029   F5..         MOV     ?V0 + 5,A
    318          
    319            if (cmd1 == MT_AF_DATA_REQUEST_EXT)
   \   00002B   7402         MOV     A,#0x2
   \   00002D   65..         XRL     A,?V0 + 7
   \   00002F   7068         JNZ     ??MT_AfDataRequest_0
    320            {
    321              dstAddr.addrMode = (afAddrMode_t)*pBuf++;
   \   000031   85..82       MOV     DPL,?V0 + 4
   \   000034   85..83       MOV     DPH,?V0 + 5
   \   000037   E0           MOVX    A,@DPTR
   \   000038   F8           MOV     R0,A
   \   000039   740A         MOV     A,#0xa
   \   00003B   12....       LCALL   ?XSTACK_DISP0_8
   \   00003E   E8           MOV     A,R0
   \   00003F   12....       LCALL   ?Subroutine28 & 0xFFFF
    322          
    323              if (dstAddr.addrMode == afAddr64Bit)
   \                     ??CrossCallReturnLabel_47:
   \   000042   7403         MOV     A,#0x3
   \   000044   68           XRL     A,R0
   \   000045   7025         JNZ     ??MT_AfDataRequest_1
    324              {
    325                (void)osal_memcpy(dstAddr.addr.extAddr, pBuf, Z_EXTADDR_LEN);
   \   000047                ; Setup parameters for call to function osal_memcpy
   \   000047   85....       MOV     ?V0 + 0,?V0 + 4
   \   00004A   85....       MOV     ?V0 + 1,?V0 + 5
   \   00004D   75..00       MOV     ?V0 + 2,#0x0
   \   000050   78..         MOV     R0,#?V0 + 0
   \   000052   12....       LCALL   ?PUSH_XSTACK_I_THREE
   \   000055   7C08         MOV     R4,#0x8
   \   000057   7D00         MOV     R5,#0x0
   \   000059   7405         MOV     A,#0x5
   \   00005B   12....       LCALL   ?XSTACK_DISP0_8
   \   00005E   AA82         MOV     R2,DPL
   \   000060   AB83         MOV     R3,DPH
   \   000062   12....       LCALL   ??osal_memcpy?relay
   \   000065   7403         MOV     A,#0x3
   \   000067   12....       LCALL   ?DEALLOC_XSTACK8
   \   00006A   8009         SJMP    ??CrossCallReturnLabel_58
    326              }
    327              else
    328              {
    329                dstAddr.addr.shortAddr = BUILD_UINT16(pBuf[0], pBuf[1]);
   \                     ??MT_AfDataRequest_1:
   \   00006C   12....       LCALL   ?Subroutine5 & 0xFFFF
    330              }
   \                     ??CrossCallReturnLabel_6:
   \   00006F   12....       LCALL   ?XSTACK_DISP0_8
   \   000072   12....       LCALL   ?Subroutine31 & 0xFFFF
    331              pBuf += Z_EXTADDR_LEN;
   \                     ??CrossCallReturnLabel_58:
   \   000075   E5..         MOV     A,?V0 + 4
   \   000077   2408         ADD     A,#0x8
   \   000079   12....       LCALL   ??Subroutine43_0 & 0xFFFF
    332          
    333              dstAddr.endPoint = *pBuf++;
   \                     ??CrossCallReturnLabel_91:
   \   00007C   C0E0         PUSH    A
   \   00007E   740B         MOV     A,#0xb
   \   000080   12....       LCALL   ?XSTACK_DISP0_8
   \   000083   D0E0         POP     A
   \   000085   12....       LCALL   ?Subroutine28 & 0xFFFF
    334              dstAddr.panId = BUILD_UINT16(pBuf[0], pBuf[1]);
   \                     ??CrossCallReturnLabel_48:
   \   000088   12....       LCALL   ?Subroutine40 & 0xFFFF
   \                     ??CrossCallReturnLabel_86:
   \   00008B   F8           MOV     R0,A
   \   00008C   740C         MOV     A,#0xc
   \   00008E   12....       LCALL   ?XSTACK_DISP0_8
   \   000091   12....       LCALL   ?Subroutine31 & 0xFFFF
    335              pBuf += 2;
   \                     ??CrossCallReturnLabel_59:
   \   000094   12....       LCALL   ?Subroutine35 & 0xFFFF
    336            }
   \                     ??CrossCallReturnLabel_72:
   \   000097   802F         SJMP    ??MT_AfDataRequest_2
    337            else
    338            {
    339              /* Destination address */
    340              dstAddr.addrMode = afAddr16Bit;
   \                     ??MT_AfDataRequest_0:
   \   000099   740A         MOV     A,#0xa
   \   00009B   12....       LCALL   ?XSTACK_DISP0_8
   \   00009E   7402         MOV     A,#0x2
   \   0000A0   F0           MOVX    @DPTR,A
    341              dstAddr.addr.shortAddr = BUILD_UINT16(pBuf[0], pBuf[1]);
   \   0000A1   85..82       MOV     DPL,?V0 + 4
   \   0000A4   85..83       MOV     DPH,?V0 + 5
   \   0000A7   12....       LCALL   ?Subroutine5 & 0xFFFF
   \                     ??CrossCallReturnLabel_7:
   \   0000AA   12....       LCALL   ?XSTACK_DISP0_8
   \   0000AD   12....       LCALL   ?Subroutine31 & 0xFFFF
    342              pBuf += 2;
   \                     ??CrossCallReturnLabel_60:
   \   0000B0   12....       LCALL   ?Subroutine22 & 0xFFFF
    343          
    344              /* Destination endpoint */
    345              dstAddr.endPoint = *pBuf++;
   \                     ??CrossCallReturnLabel_89:
   \   0000B3   C0E0         PUSH    A
   \   0000B5   740B         MOV     A,#0xb
   \   0000B7   12....       LCALL   ?XSTACK_DISP0_8
   \   0000BA   D0E0         POP     A
   \   0000BC   12....       LCALL   ?Subroutine28 & 0xFFFF
    346              dstAddr.panId = 0;
   \                     ??CrossCallReturnLabel_49:
   \   0000BF   740C         MOV     A,#0xc
   \   0000C1   12....       LCALL   ?XSTACK_DISP0_8
   \   0000C4   E4           CLR     A
   \   0000C5   F0           MOVX    @DPTR,A
   \   0000C6   A3           INC     DPTR
   \   0000C7   F0           MOVX    @DPTR,A
    347            }
    348          
    349            /* Source endpoint */
    350            epDesc = afFindEndPointDesc(*pBuf++);
   \                     ??MT_AfDataRequest_2:
   \   0000C8                ; Setup parameters for call to function afFindEndPointDesc
   \   0000C8   85..82       MOV     DPL,?V0 + 4
   \   0000CB   85..83       MOV     DPH,?V0 + 5
   \   0000CE   E0           MOVX    A,@DPTR
   \   0000CF   F9           MOV     R1,A
   \   0000D0   12....       LCALL   ??afFindEndPointDesc?relay
   \   0000D3   8A..         MOV     ?V0 + 8,R2
   \   0000D5   8B..         MOV     ?V0 + 9,R3
   \   0000D7   85..82       MOV     DPL,?V0 + 4
   \   0000DA   85..83       MOV     DPH,?V0 + 5
   \   0000DD   A3           INC     DPTR
   \   0000DE   8582..       MOV     ?V0 + 4,DPL
   \   0000E1   8583..       MOV     ?V0 + 5,DPH
    351          
    352            /* ClusterId */
    353            cId = BUILD_UINT16(pBuf[0], pBuf[1]);
   \   0000E4   12....       LCALL   ?Subroutine4 & 0xFFFF
   \                     ??CrossCallReturnLabel_2:
   \   0000E7   F5..         MOV     ?V0 + 0,A
   \   0000E9   E4           CLR     A
   \   0000EA   39           ADDC    A,R1
   \   0000EB   F5..         MOV     ?V0 + 1,A
    354            pBuf +=2;
   \   0000ED   12....       LCALL   ?Subroutine22 & 0xFFFF
    355          
    356            /* TransId */
    357            transId = *pBuf++;
   \                     ??CrossCallReturnLabel_90:
   \   0000F0   C0E0         PUSH    A
   \   0000F2   7401         MOV     A,#0x1
   \   0000F4   12....       LCALL   ?XSTACK_DISP0_8
   \   0000F7   D0E0         POP     A
   \   0000F9   12....       LCALL   ?Subroutine38 & 0xFFFF
    358          
    359            /* TxOption */
    360            txOpts = *pBuf++;
   \                     ??CrossCallReturnLabel_77:
   \   0000FC   12....       LCALL   ?Subroutine14 & 0xFFFF
    361          
    362            /* Radius */
    363            radius = *pBuf++;
   \                     ??CrossCallReturnLabel_26:
   \   0000FF   A3           INC     DPTR
   \   000100   8582..       MOV     ?V0 + 4,DPL
   \   000103   8583..       MOV     ?V0 + 5,DPH
    364          
    365            /* Length */
    366            if (cmd1 == MT_AF_DATA_REQUEST_EXT)
   \   000106   7402         MOV     A,#0x2
   \   000108   65..         XRL     A,?V0 + 7
   \   00010A   7014         JNZ     ??MT_AfDataRequest_3
    367            {
    368              dataLen = BUILD_UINT16(pBuf[0], pBuf[1]);
   \   00010C   12....       LCALL   ?Subroutine4 & 0xFFFF
   \                     ??CrossCallReturnLabel_3:
   \   00010F   FE           MOV     R6,A
   \   000110   E4           CLR     A
   \   000111   39           ADDC    A,R1
   \   000112   FF           MOV     R7,A
    369              tempLen = dataLen + MT_AF_REQ_MSG_LEN + MT_AF_REQ_MSG_EXT;
   \   000113   EE           MOV     A,R6
   \   000114   2414         ADD     A,#0x14
   \   000116   F8           MOV     R0,A
   \   000117   EF           MOV     A,R7
   \   000118   3400         ADDC    A,#0x0
   \   00011A   F9           MOV     R1,A
    370              pBuf += 2;
   \   00011B   12....       LCALL   ?Subroutine35 & 0xFFFF
    371            }
   \                     ??CrossCallReturnLabel_73:
   \   00011E   8012         SJMP    ??MT_AfDataRequest_4
    372            else
    373            {
    374              dataLen = *pBuf++;
   \                     ??MT_AfDataRequest_3:
   \   000120   E0           MOVX    A,@DPTR
   \   000121   FE           MOV     R6,A
   \   000122   7F00         MOV     R7,#0x0
   \   000124   A3           INC     DPTR
   \   000125   8582..       MOV     ?V0 + 4,DPL
   \   000128   8583..       MOV     ?V0 + 5,DPH
    375              tempLen = dataLen + MT_AF_REQ_MSG_LEN;
   \   00012B   240A         ADD     A,#0xa
   \   00012D   F8           MOV     R0,A
   \   00012E   E4           CLR     A
   \   00012F   3400         ADDC    A,#0x0
   \   000131   F9           MOV     R1,A
    376            }
    377          
    378            if ( epDesc == NULL )
   \                     ??MT_AfDataRequest_4:
   \   000132   E5..         MOV     A,?V0 + 8
   \   000134   45..         ORL     A,?V0 + 9
   \   000136   6011         JZ      ??MT_AfDataRequest_5
    379            {
    380              retValue = afStatus_INVALID_PARAMETER;
    381            }
    382            else if (tempLen > (uint16)MT_RPC_DATA_MAX)
   \   000138   C3           CLR     C
   \   000139   E8           MOV     A,R0
   \   00013A   94FB         SUBB    A,#-0x5
   \   00013C   E9           MOV     A,R1
   \   00013D   9400         SUBB    A,#0x0
   \   00013F   5003         JNC     $+5
   \   000141   02....       LJMP    ??MT_AfDataRequest_6 & 0xFFFF
    383            {
    384              if (pMtAfDataReq != NULL)
   \   000144   12....       LCALL   ?Subroutine2 & 0xFFFF
   \                     ??CrossCallReturnLabel_95:
   \   000147   600B         JZ      ??MT_AfDataRequest_7
    385              {
    386                retValue = afStatus_INVALID_PARAMETER;
   \                     ??MT_AfDataRequest_5:
   \   000149   85..82       MOV     DPL,?XSP + 0
   \   00014C   85..83       MOV     DPH,?XSP + 1
   \   00014F   7402         MOV     A,#0x2
   \   000151   02....       LJMP    ??MT_AfDataRequest_8 & 0xFFFF
    387              }
    388              else if ((pMtAfDataReq = osal_mem_alloc(sizeof(mtAfDataReq_t) + dataLen)) == NULL)
   \                     ??MT_AfDataRequest_7:
   \   000154                ; Setup parameters for call to function osal_mem_alloc
   \   000154   EE           MOV     A,R6
   \   000155   2418         ADD     A,#0x18
   \   000157   FA           MOV     R2,A
   \   000158   EF           MOV     A,R7
   \   000159   3400         ADDC    A,#0x0
   \   00015B   FB           MOV     R3,A
   \   00015C   12....       LCALL   ??osal_mem_alloc?relay
   \   00015F   90....       MOV     DPTR,#pMtAfDataReq
   \   000162   EA           MOV     A,R2
   \   000163   F0           MOVX    @DPTR,A
   \   000164   A3           INC     DPTR
   \   000165   EB           MOV     A,R3
   \   000166   F0           MOVX    @DPTR,A
   \   000167   12....       LCALL   ?Subroutine2 & 0xFFFF
   \                     ??CrossCallReturnLabel_96:
   \   00016A   85..82       MOV     DPL,?XSP + 0
   \   00016D   85..83       MOV     DPH,?XSP + 1
   \   000170   7005         JNZ     ??MT_AfDataRequest_9
    389              {
    390                retValue = afStatus_MEM_FAIL;
   \   000172   7410         MOV     A,#0x10
   \   000174   02....       LJMP    ??MT_AfDataRequest_8 & 0xFFFF
    391              }
    392              else
    393              {
    394                retValue = afStatus_SUCCESS;
   \                     ??MT_AfDataRequest_9:
   \   000177   E4           CLR     A
   \   000178   F0           MOVX    @DPTR,A
    395          
    396                pMtAfDataReq->data = (uint8 *)(pMtAfDataReq+1);
   \   000179   90....       MOV     DPTR,#pMtAfDataReq
   \   00017C   E0           MOVX    A,@DPTR
   \   00017D   2418         ADD     A,#0x18
   \   00017F   FA           MOV     R2,A
   \   000180   A3           INC     DPTR
   \   000181   E0           MOVX    A,@DPTR
   \   000182   3400         ADDC    A,#0x0
   \   000184   FB           MOV     R3,A
   \   000185   12....       LCALL   ?Subroutine13 & 0xFFFF
   \                     ??CrossCallReturnLabel_23:
   \   000188   EA           MOV     A,R2
   \   000189   F0           MOVX    @DPTR,A
   \   00018A   A3           INC     DPTR
   \   00018B   EB           MOV     A,R3
   \   00018C   F0           MOVX    @DPTR,A
    397                (void)osal_memcpy(&(pMtAfDataReq->dstAddr), &dstAddr, sizeof(afAddrType_t));
   \   00018D                ; Setup parameters for call to function osal_memcpy
   \   00018D   7402         MOV     A,#0x2
   \   00018F   12....       LCALL   ?XSTACK_DISP0_8
   \   000192   A982         MOV     R1,DPL
   \   000194   AA83         MOV     R2,DPH
   \   000196   89..         MOV     ?V0 + 4,R1
   \   000198   8A..         MOV     ?V0 + 5,R2
   \   00019A   75..00       MOV     ?V0 + 6,#0x0
   \   00019D   78..         MOV     R0,#?V0 + 4
   \   00019F   12....       LCALL   ?PUSH_XSTACK_I_THREE
   \   0001A2   7C0C         MOV     R4,#0xc
   \   0001A4   7D00         MOV     R5,#0x0
   \   0001A6   12....       LCALL   ?Subroutine16 & 0xFFFF
   \                     ??CrossCallReturnLabel_29:
   \   0001A9   12....       LCALL   ??osal_memcpy?relay
   \   0001AC   7403         MOV     A,#0x3
   \   0001AE   12....       LCALL   ?DEALLOC_XSTACK8
    398                pMtAfDataReq->epDesc = epDesc;
   \   0001B1   12....       LCALL   ?Subroutine8 & 0xFFFF
   \                     ??CrossCallReturnLabel_13:
   \   0001B4   E5..         MOV     A,?V0 + 8
   \   0001B6   F0           MOVX    @DPTR,A
   \   0001B7   A3           INC     DPTR
   \   0001B8   E5..         MOV     A,?V0 + 9
   \   0001BA   F0           MOVX    @DPTR,A
    399                pMtAfDataReq->cId = cId;
   \   0001BB   12....       LCALL   ?Subroutine9 & 0xFFFF
   \                     ??CrossCallReturnLabel_15:
   \   0001BE   E5..         MOV     A,?V0 + 0
   \   0001C0   F0           MOVX    @DPTR,A
   \   0001C1   A3           INC     DPTR
   \   0001C2   E5..         MOV     A,?V0 + 1
   \   0001C4   F0           MOVX    @DPTR,A
    400                pMtAfDataReq->dataLen = dataLen;
   \   0001C5   12....       LCALL   ?Subroutine10 & 0xFFFF
   \                     ??CrossCallReturnLabel_17:
   \   0001C8   EE           MOV     A,R6
   \   0001C9   F0           MOVX    @DPTR,A
   \   0001CA   A3           INC     DPTR
   \   0001CB   EF           MOV     A,R7
   \   0001CC   F0           MOVX    @DPTR,A
    401                pMtAfDataReq->transId = transId;
   \   0001CD   7401         MOV     A,#0x1
   \   0001CF   12....       LCALL   ?XSTACK_DISP0_8
   \   0001D2   E0           MOVX    A,@DPTR
   \   0001D3   C0E0         PUSH    A
   \   0001D5   12....       LCALL   ?Subroutine39 & 0xFFFF
   \                     ??CrossCallReturnLabel_79:
   \   0001D8   2414         ADD     A,#0x14
   \   0001DA   12....       LCALL   ?Subroutine41 & 0xFFFF
   \                     ??CrossCallReturnLabel_133:
   \   0001DD   D0E0         POP     A
   \   0001DF   F0           MOVX    @DPTR,A
    402                pMtAfDataReq->txOpts = txOpts;
   \   0001E0   12....       LCALL   ?Subroutine11 & 0xFFFF
   \                     ??CrossCallReturnLabel_19:
   \   0001E3   E5..         MOV     A,?V0 + 2
   \   0001E5   F0           MOVX    @DPTR,A
    403                pMtAfDataReq->radius = radius;
   \   0001E6   12....       LCALL   ?Subroutine12 & 0xFFFF
   \                     ??CrossCallReturnLabel_21:
   \   0001E9   E5..         MOV     A,?V0 + 3
   \   0001EB   12....       LCALL   ?Subroutine7 & 0xFFFF
    404          
    405                // Setup to time-out the huge outgoing item if host does not MT_AF_DATA_STORE it.
    406                pMtAfDataReq->tick = MT_AF_EXEC_CNT;
   \                     ??CrossCallReturnLabel_11:
   \   0001EE   12....       LCALL   ?Subroutine30 & 0xFFFF
    407                if (ZSuccess != osal_start_timerEx(MT_TaskID, MT_AF_EXEC_EVT, MT_AF_EXEC_DLY))
   \                     ??CrossCallReturnLabel_54:
   \   0001F1   12....       LCALL   ??osal_start_timerEx?relay
   \   0001F4   E9           MOV     A,R1
   \   0001F5   6055         JZ      ??MT_AfDataRequest_10
    408                {
    409                  (void)osal_set_event(MT_TaskID, MT_AF_EXEC_EVT);
   \   0001F7                ; Setup parameters for call to function osal_set_event
   \   0001F7   7A08         MOV     R2,#0x8
   \   0001F9   7B00         MOV     R3,#0x0
   \   0001FB   90....       MOV     DPTR,#MT_TaskID
   \   0001FE   E0           MOVX    A,@DPTR
   \   0001FF   F9           MOV     R1,A
   \   000200   12....       LCALL   ??osal_set_event?relay
   \   000203   8047         SJMP    ??MT_AfDataRequest_10
    410                }
    411              }
    412            }
    413            else
    414            {
    415              retValue = AF_DataRequest(&dstAddr, epDesc, cId, dataLen, pBuf, &transId, txOpts, radius);
   \                     ??MT_AfDataRequest_6:
   \   000205                ; Setup parameters for call to function AF_DataRequest
   \   000205   78..         MOV     R0,#?V0 + 3
   \   000207   12....       LCALL   ?PUSH_XSTACK_I_ONE
   \   00020A   7402         MOV     A,#0x2
   \   00020C   12....       LCALL   ?XSTACK_DISP0_8
   \   00020F   8582..       MOV     ?V0 + 12,DPL
   \   000212   8583..       MOV     ?V0 + 13,DPH
   \   000215   78..         MOV     R0,#?V0 + 12
   \   000217   12....       LCALL   ?PUSH_XSTACK_I_TWO
   \   00021A   78..         MOV     R0,#?V0 + 4
   \   00021C   12....       LCALL   ?PUSH_XSTACK_I_TWO
   \   00021F   8E..         MOV     ?V0 + 4,R6
   \   000221   8F..         MOV     ?V0 + 5,R7
   \   000223   78..         MOV     R0,#?V0 + 4
   \   000225   12....       LCALL   ?PUSH_XSTACK_I_TWO
   \   000228   78..         MOV     R0,#?V0 + 0
   \   00022A   12....       LCALL   ?PUSH_XSTACK_I_TWO
   \   00022D   A9..         MOV     R1,?V0 + 2
   \   00022F   AC..         MOV     R4,?V0 + 8
   \   000231   AD..         MOV     R5,?V0 + 9
   \   000233   740B         MOV     A,#0xb
   \   000235   12....       LCALL   ?XSTACK_DISP0_8
   \   000238   AA82         MOV     R2,DPL
   \   00023A   AB83         MOV     R3,DPH
   \   00023C   12....       LCALL   ??AF_DataRequest?relay
   \   00023F   7409         MOV     A,#0x9
   \   000241   12....       LCALL   ?DEALLOC_XSTACK8
   \   000244   E9           MOV     A,R1
   \   000245   85..82       MOV     DPL,?XSP + 0
   \   000248   85..83       MOV     DPH,?XSP + 1
   \                     ??MT_AfDataRequest_8:
   \   00024B   F0           MOVX    @DPTR,A
    416            }
    417          
    418            if (MT_RPC_CMD_SREQ == (cmd0 & MT_RPC_CMD_TYPE_MASK))
   \                     ??MT_AfDataRequest_10:
   \   00024C   74E0         MOV     A,#-0x20
   \   00024E   55..         ANL     A,?V0 + 10
   \   000250   6420         XRL     A,#0x20
   \   000252   7013         JNZ     ??MT_AfDataRequest_11
    419            {
    420              MT_BuildAndSendZToolResponse(((uint8)MT_RPC_CMD_SRSP|(uint8)MT_RPC_SYS_AF), cmd1, 1, &retValue);
   \   000254                ; Setup parameters for call to function MT_BuildAndSendZToolResponse
   \   000254   85..82       MOV     DPL,?XSP + 0
   \   000257   85..83       MOV     DPH,?XSP + 1
   \   00025A   AC82         MOV     R4,DPL
   \   00025C   AD83         MOV     R5,DPH
   \   00025E   7B01         MOV     R3,#0x1
   \   000260   AA..         MOV     R2,?V0 + 7
   \   000262   7964         MOV     R1,#0x64
   \   000264   12....       LCALL   ??MT_BuildAndSendZToolResponse?relay
    421            }
    422          }
   \                     ??MT_AfDataRequest_11:
   \   000267   740E         MOV     A,#0xe
   \   000269   12....       LCALL   ?DEALLOC_XSTACK8
   \   00026C   7F0E         MOV     R7,#0xe
   \   00026E   02....       LJMP    ?BANKED_LEAVE_XDATA

   \                                 In  segment BANKED_CODE, align 1, keep-with-next
   \                     ?Subroutine35:
   \   000000   E5..         MOV     A,?V0 + 4
   \   000002   2402         ADD     A,#0x2
   \   000004   F5..         MOV     ?V0 + 4,A
   \   000006   E5..         MOV     A,?V0 + 5
   \   000008   3400         ADDC    A,#0x0
   \   00000A   F5..         MOV     ?V0 + 5,A
   \   00000C   22           RET

   \                                 In  segment BANKED_CODE, align 1, keep-with-next
   \                     ?Subroutine28:
   \   000000   12....       LCALL   ?Subroutine38 & 0xFFFF
   \                     ??CrossCallReturnLabel_78:
   \   000003   8582..       MOV     ?V0 + 4,DPL
   \   000006   8583..       MOV     ?V0 + 5,DPH
   \   000009   22           RET

   \                                 In  segment BANKED_CODE, align 1, keep-with-next
   \                     ?Subroutine38:
   \   000000   F0           MOVX    @DPTR,A
   \   000001   85..82       MOV     DPL,?V0 + 4
   \   000004   85..83       MOV     DPH,?V0 + 5
   \   000007   A3           INC     DPTR
   \   000008   22           RET

   \                                 In  segment BANKED_CODE, align 1, keep-with-next
   \                     ?Subroutine22:
   \   000000   E5..         MOV     A,?V0 + 4
   \   000002   2402         ADD     A,#0x2
   \   000004                REQUIRE ??Subroutine43_0
   \   000004                ; // Fall through to label ??Subroutine43_0

   \                                 In  segment BANKED_CODE, align 1, keep-with-next
   \                     ??Subroutine43_0:
   \   000000   F5..         MOV     ?V0 + 4,A
   \   000002   E5..         MOV     A,?V0 + 5
   \   000004   3400         ADDC    A,#0x0
   \   000006   F5..         MOV     ?V0 + 5,A
   \   000008   85..82       MOV     DPL,?V0 + 4
   \   00000B   F583         MOV     DPH,A
   \   00000D   E0           MOVX    A,@DPTR
   \   00000E   22           RET

   \                                 In  segment BANKED_CODE, align 1, keep-with-next
   \                     ?Subroutine5:
   \   000000   12....       LCALL   ?Subroutine40 & 0xFFFF
   \                     ??CrossCallReturnLabel_88:
   \   000003   F8           MOV     R0,A
   \   000004   7402         MOV     A,#0x2
   \   000006   22           RET

   \                                 In  segment BANKED_CODE, align 1, keep-with-next
   \                     ?Subroutine40:
   \   000000   E0           MOVX    A,@DPTR
   \   000001   FA           MOV     R2,A
   \   000002   A3           INC     DPTR
   \   000003   E0           MOVX    A,@DPTR
   \   000004   F9           MOV     R1,A
   \   000005   EA           MOV     A,R2
   \   000006   22           RET

   \                                 In  segment BANKED_CODE, align 1, keep-with-next
   \                     ?Subroutine4:
   \   000000   12....       LCALL   ?Subroutine40 & 0xFFFF
   \                     ??CrossCallReturnLabel_87:
   \   000003   2400         ADD     A,#0x0
   \   000005   22           RET

   \                                 In  segment BANKED_CODE, align 1, keep-with-next
   \                     ?Subroutine30:
   \   000000   740F         MOV     A,#0xf
   \   000002   F0           MOVX    @DPTR,A
   \   000003                ; Setup parameters for call to function osal_start_timerEx
   \   000003                ; Setup parameters for call to function osal_start_timerEx
   \   000003   7CE8         MOV     R4,#-0x18
   \   000005   7D03         MOV     R5,#0x3
   \   000007   7A08         MOV     R2,#0x8
   \   000009   7B00         MOV     R3,#0x0
   \   00000B   90....       MOV     DPTR,#MT_TaskID
   \   00000E   E0           MOVX    A,@DPTR
   \   00000F   F9           MOV     R1,A
   \   000010   22           RET

   \                                 In  segment BANKED_CODE, align 1, keep-with-next
   \                     ?Subroutine14:
   \   000000   E0           MOVX    A,@DPTR
   \   000001   F5..         MOV     ?V0 + 2,A
   \   000003   A3           INC     DPTR
   \   000004   E0           MOVX    A,@DPTR
   \   000005   F5..         MOV     ?V0 + 3,A
   \   000007   22           RET

   \                                 In  segment BANKED_CODE, align 1, keep-with-next
   \                     ?Subroutine16:
   \   000000   90....       MOV     DPTR,#pMtAfDataReq
   \   000003   E0           MOVX    A,@DPTR
   \   000004   2402         ADD     A,#0x2
   \   000006   FA           MOV     R2,A
   \   000007   A3           INC     DPTR
   \   000008   E0           MOVX    A,@DPTR
   \   000009   3400         ADDC    A,#0x0
   \   00000B   FB           MOV     R3,A
   \   00000C   22           RET

   \                                 In  segment BANKED_CODE, align 1, keep-with-next
   \                     ?Subroutine13:
   \   000000   90....       MOV     DPTR,#pMtAfDataReq
   \   000003   E0           MOVX    A,@DPTR
   \   000004   F8           MOV     R0,A
   \   000005   A3           INC     DPTR
   \   000006   E0           MOVX    A,@DPTR
   \   000007   F583         MOV     DPH,A
   \   000009   8882         MOV     DPL,R0
   \   00000B   22           RET

   \                                 In  segment BANKED_CODE, align 1, keep-with-next
   \                     ?Subroutine12:
   \   000000   12....       LCALL   ?Subroutine39 & 0xFFFF
   \                     ??CrossCallReturnLabel_85:
   \   000003   2416         ADD     A,#0x16
   \   000005   12....       LCALL   ?Subroutine41 & 0xFFFF
   \                     ??CrossCallReturnLabel_139:
   \   000008   22           RET

   \                                 In  segment BANKED_CODE, align 1, keep-with-next
   \                     ?Subroutine11:
   \   000000   12....       LCALL   ?Subroutine39 & 0xFFFF
   \                     ??CrossCallReturnLabel_84:
   \   000003   2415         ADD     A,#0x15
   \   000005   12....       LCALL   ?Subroutine41 & 0xFFFF
   \                     ??CrossCallReturnLabel_138:
   \   000008   22           RET

   \                                 In  segment BANKED_CODE, align 1, keep-with-next
   \                     ?Subroutine10:
   \   000000   12....       LCALL   ?Subroutine39 & 0xFFFF
   \                     ??CrossCallReturnLabel_83:
   \   000003   2412         ADD     A,#0x12
   \   000005   12....       LCALL   ?Subroutine41 & 0xFFFF
   \                     ??CrossCallReturnLabel_137:
   \   000008   22           RET

   \                                 In  segment BANKED_CODE, align 1, keep-with-next
   \                     ?Subroutine9:
   \   000000   12....       LCALL   ?Subroutine39 & 0xFFFF
   \                     ??CrossCallReturnLabel_82:
   \   000003   2410         ADD     A,#0x10
   \   000005   12....       LCALL   ?Subroutine41 & 0xFFFF
   \                     ??CrossCallReturnLabel_136:
   \   000008   22           RET

   \                                 In  segment BANKED_CODE, align 1, keep-with-next
   \                     ?Subroutine8:
   \   000000   12....       LCALL   ?Subroutine39 & 0xFFFF
   \                     ??CrossCallReturnLabel_81:
   \   000003   240E         ADD     A,#0xe
   \   000005   12....       LCALL   ?Subroutine41 & 0xFFFF
   \                     ??CrossCallReturnLabel_135:
   \   000008   22           RET
    423          
    424          #if defined ( ZIGBEE_SOURCE_ROUTING )
    425          
    426          /***************************************************************************************************
    427           * @fn      MT_AfDataRequestSrcRtg
    428           *
    429           * @brief   Process AF Register command
    430           *
    431           * @param   pBuf - pointer to the received buffer
    432           *
    433           * @return  none
    434           ***************************************************************************************************/

   \                                 In  segment BANKED_CODE, align 1, keep-with-next
    435          void MT_AfDataRequestSrcRtg(uint8 *pBuf)
   \                     MT_AfDataRequestSrcRtg:
    436          {
   \   000000   74EC         MOV     A,#-0x14
   \   000002   12....       LCALL   ?BANKED_ENTER_XDATA
   \   000005                ; Saved register size: 20
   \   000005                ; Auto size: 14
   \   000005   74F2         MOV     A,#-0xe
   \   000007   12....       LCALL   ?ALLOC_XSTACK8
   \   00000A   EA           MOV     A,R2
   \   00000B   FE           MOV     R6,A
   \   00000C   EB           MOV     A,R3
   \   00000D   FF           MOV     R7,A
    437            uint8 cmdId, dataLen = 0;
    438            uint8 retValue = ZFailure;
   \   00000E   85..82       MOV     DPL,?XSP + 0
   \   000011   85..83       MOV     DPH,?XSP + 1
   \   000014   7401         MOV     A,#0x1
   \   000016   12....       LCALL   ?Subroutine33 & 0xFFFF
    439            endPointDesc_t *epDesc;
    440            byte transId;
    441            afAddrType_t dstAddr;
    442            cId_t cId;
    443            byte txOpts, radius, srcEP, relayCnt;
    444            uint16 *pRelayList;
    445            uint8 i;
    446          
    447            /* parse header */
    448            cmdId = pBuf[MT_RPC_POS_CMD1];
   \                     ??CrossCallReturnLabel_67:
   \   000019   A3           INC     DPTR
   \   00001A   E0           MOVX    A,@DPTR
   \   00001B   F5..         MOV     ?V0 + 4,A
    449            pBuf += MT_RPC_FRAME_HDR_SZ;
   \   00001D   EE           MOV     A,R6
   \   00001E   2403         ADD     A,#0x3
   \   000020   FE           MOV     R6,A
   \   000021   EF           MOV     A,R7
   \   000022   3400         ADDC    A,#0x0
   \   000024   FF           MOV     R7,A
    450          
    451            /* Destination address */
    452            /* Initialize the panID field to zero to avoid inter-pan */
    453            osal_memset( &dstAddr, 0, sizeof(afAddrType_t) );
   \   000025                ; Setup parameters for call to function osal_memset
   \   000025   7C0C         MOV     R4,#0xc
   \   000027   7D00         MOV     R5,#0x0
   \   000029   7900         MOV     R1,#0x0
   \   00002B   7402         MOV     A,#0x2
   \   00002D   12....       LCALL   ?XSTACK_DISP0_8
   \   000030   AA82         MOV     R2,DPL
   \   000032   AB83         MOV     R3,DPH
   \   000034   12....       LCALL   ??osal_memset?relay
    454            dstAddr.addrMode = afAddr16Bit;
   \   000037   740A         MOV     A,#0xa
   \   000039   12....       LCALL   ?XSTACK_DISP0_8
   \   00003C   7402         MOV     A,#0x2
   \   00003E   F0           MOVX    @DPTR,A
    455            dstAddr.addr.shortAddr = BUILD_UINT16(pBuf[0], pBuf[1]);
   \   00003F   8E82         MOV     DPL,R6
   \   000041   8F83         MOV     DPH,R7
   \   000043   12....       LCALL   ?Subroutine5 & 0xFFFF
   \                     ??CrossCallReturnLabel_8:
   \   000046   12....       LCALL   ?XSTACK_DISP0_8
   \   000049   12....       LCALL   ?Subroutine31 & 0xFFFF
    456            pBuf += 2;
   \                     ??CrossCallReturnLabel_61:
   \   00004C   12....       LCALL   ?Subroutine26 & 0xFFFF
    457          
    458            /* Destination endpoint */
    459            dstAddr.endPoint = *pBuf++;
   \                     ??CrossCallReturnLabel_45:
   \   00004F   C0E0         PUSH    A
   \   000051   740B         MOV     A,#0xb
   \   000053   12....       LCALL   ?XSTACK_DISP0_8
   \   000056   D0E0         POP     A
   \   000058   12....       LCALL   ?Subroutine33 & 0xFFFF
    460          
    461            /* Source endpoint */
    462            srcEP = *pBuf++;
   \                     ??CrossCallReturnLabel_68:
   \   00005B   E0           MOVX    A,@DPTR
   \   00005C   F9           MOV     R1,A
   \   00005D   A3           INC     DPTR
   \   00005E   AE82         MOV     R6,DPL
   \   000060   AF83         MOV     R7,DPH
    463            epDesc = afFindEndPointDesc( srcEP );
   \   000062                ; Setup parameters for call to function afFindEndPointDesc
   \   000062   12....       LCALL   ??afFindEndPointDesc?relay
   \   000065   8A..         MOV     ?V0 + 2,R2
   \   000067   8B..         MOV     ?V0 + 3,R3
    464          
    465            /* ClusterId */
    466            cId = BUILD_UINT16(pBuf[0], pBuf[1]);
   \   000069   8E82         MOV     DPL,R6
   \   00006B   8F83         MOV     DPH,R7
   \   00006D   12....       LCALL   ?Subroutine4 & 0xFFFF
   \                     ??CrossCallReturnLabel_4:
   \   000070   F5..         MOV     ?V0 + 6,A
   \   000072   E4           CLR     A
   \   000073   39           ADDC    A,R1
   \   000074   F5..         MOV     ?V0 + 7,A
    467            pBuf +=2;
   \   000076   12....       LCALL   ?Subroutine26 & 0xFFFF
    468          
    469            /* TransId */
    470            transId = *pBuf++;
   \                     ??CrossCallReturnLabel_46:
   \   000079   C0E0         PUSH    A
   \   00007B   7401         MOV     A,#0x1
   \   00007D   12....       LCALL   ?XSTACK_DISP0_8
   \   000080   D0E0         POP     A
   \   000082   12....       LCALL   ?Subroutine33 & 0xFFFF
    471          
    472            /* TxOption */
    473            txOpts = *pBuf++;
   \                     ??CrossCallReturnLabel_69:
   \   000085   E0           MOVX    A,@DPTR
   \   000086   F5..         MOV     ?V0 + 5,A
   \   000088   A3           INC     DPTR
    474          
    475            /* Radius */
    476            radius = *pBuf++;
   \   000089   E0           MOVX    A,@DPTR
   \   00008A   F5..         MOV     ?V0 + 10,A
   \   00008C   A3           INC     DPTR
    477          
    478            /* Source route relay count */
    479            relayCnt = *pBuf++;
   \   00008D   E0           MOVX    A,@DPTR
   \   00008E   F5..         MOV     ?V0 + 11,A
   \   000090   A3           INC     DPTR
   \   000091   AE82         MOV     R6,DPL
   \   000093   AF83         MOV     R7,DPH
    480          
    481            /* Convert the source route relay list */
    482            if( (pRelayList = osal_mem_alloc( relayCnt * sizeof( uint16 ))) != NULL )
   \   000095                ; Setup parameters for call to function osal_mem_alloc
   \   000095   C3           CLR     C
   \   000096   33           RLC     A
   \   000097   FA           MOV     R2,A
   \   000098   E4           CLR     A
   \   000099   33           RLC     A
   \   00009A   FB           MOV     R3,A
   \   00009B   12....       LCALL   ??osal_mem_alloc?relay
   \   00009E   8A..         MOV     ?V0 + 0,R2
   \   0000A0   8B..         MOV     ?V0 + 1,R3
   \   0000A2   EA           MOV     A,R2
   \   0000A3   45..         ORL     A,?V0 + 1
   \   0000A5   7003         JNZ     $+5
   \   0000A7   02....       LJMP    ??MT_AfDataRequestSrcRtg_0 & 0xFFFF
    483            {
    484              for( i = 0; i < relayCnt; i++ )
   \   0000AA   7C00         MOV     R4,#0x0
   \   0000AC   8028         SJMP    ??MT_AfDataRequestSrcRtg_1
    485              {
    486                pRelayList[i]  = BUILD_UINT16( pBuf[0], pBuf[1] );
   \                     ??MT_AfDataRequestSrcRtg_2:
   \   0000AE   FA           MOV     R2,A
   \   0000AF   A3           INC     DPTR
   \   0000B0   E0           MOVX    A,@DPTR
   \   0000B1   F9           MOV     R1,A
   \   0000B2   EA           MOV     A,R2
   \   0000B3   2400         ADD     A,#0x0
   \   0000B5   E4           CLR     A
   \   0000B6   39           ADDC    A,R1
   \   0000B7   FB           MOV     R3,A
   \   0000B8   EC           MOV     A,R4
   \   0000B9   33           RLC     A
   \   0000BA   F8           MOV     R0,A
   \   0000BB   E4           CLR     A
   \   0000BC   33           RLC     A
   \   0000BD   F9           MOV     R1,A
   \   0000BE   E5..         MOV     A,?V0 + 0
   \   0000C0   28           ADD     A,R0
   \   0000C1   F582         MOV     DPL,A
   \   0000C3   E5..         MOV     A,?V0 + 1
   \   0000C5   39           ADDC    A,R1
   \   0000C6   F583         MOV     DPH,A
   \   0000C8   EA           MOV     A,R2
   \   0000C9   F0           MOVX    @DPTR,A
   \   0000CA   A3           INC     DPTR
   \   0000CB   EB           MOV     A,R3
   \   0000CC   F0           MOVX    @DPTR,A
    487                pBuf += 2;
   \   0000CD   EE           MOV     A,R6
   \   0000CE   2402         ADD     A,#0x2
   \   0000D0   FE           MOV     R6,A
   \   0000D1   EF           MOV     A,R7
   \   0000D2   3400         ADDC    A,#0x0
   \   0000D4   FF           MOV     R7,A
    488              }
   \   0000D5   0C           INC     R4
   \                     ??MT_AfDataRequestSrcRtg_1:
   \   0000D6   EC           MOV     A,R4
   \   0000D7   C3           CLR     C
   \   0000D8   95..         SUBB    A,?V0 + 11
   \   0000DA   8E82         MOV     DPL,R6
   \   0000DC   8F83         MOV     DPH,R7
   \   0000DE   E0           MOVX    A,@DPTR
   \   0000DF   40CD         JC      ??MT_AfDataRequestSrcRtg_2
    489          
    490              /* Data payload Length */
    491              dataLen = *pBuf++;
   \   0000E1   F9           MOV     R1,A
   \   0000E2   A3           INC     DPTR
   \   0000E3   AE82         MOV     R6,DPL
   \   0000E5   AF83         MOV     R7,DPH
    492          
    493              if ( epDesc == NULL )
   \   0000E7   E5..         MOV     A,?V0 + 2
   \   0000E9   45..         ORL     A,?V0 + 3
   \   0000EB   700A         JNZ     ??MT_AfDataRequestSrcRtg_3
    494              {
    495                retValue = afStatus_INVALID_PARAMETER;
   \   0000ED   85..82       MOV     DPL,?XSP + 0
   \   0000F0   85..83       MOV     DPH,?XSP + 1
   \   0000F3   7402         MOV     A,#0x2
   \   0000F5   805D         SJMP    ??MT_AfDataRequestSrcRtg_4
    496              }
    497              else
    498              {
    499                retValue = AF_DataRequestSrcRtg( &dstAddr, epDesc, cId, dataLen, pBuf,
    500                                               &transId, txOpts, radius, relayCnt, pRelayList );
   \                     ??MT_AfDataRequestSrcRtg_3:
   \   0000F7                ; Setup parameters for call to function AF_DataRequestSrcRtg
   \   0000F7   78..         MOV     R0,#?V0 + 0
   \   0000F9   12....       LCALL   ?PUSH_XSTACK_I_TWO
   \   0000FC   E5..         MOV     A,?V0 + 11
   \   0000FE   F5..         MOV     ?V0 + 8,A
   \   000100   78..         MOV     R0,#?V0 + 8
   \   000102   12....       LCALL   ?PUSH_XSTACK_I_ONE
   \   000105   E5..         MOV     A,?V0 + 10
   \   000107   F5..         MOV     ?V0 + 8,A
   \   000109   78..         MOV     R0,#?V0 + 8
   \   00010B   12....       LCALL   ?PUSH_XSTACK_I_ONE
   \   00010E   7405         MOV     A,#0x5
   \   000110   12....       LCALL   ?XSTACK_DISP0_8
   \   000113   8582..       MOV     ?V0 + 8,DPL
   \   000116   8583..       MOV     ?V0 + 9,DPH
   \   000119   78..         MOV     R0,#?V0 + 8
   \   00011B   12....       LCALL   ?PUSH_XSTACK_I_TWO
   \   00011E   8E..         MOV     ?V0 + 8,R6
   \   000120   8F..         MOV     ?V0 + 9,R7
   \   000122   78..         MOV     R0,#?V0 + 8
   \   000124   12....       LCALL   ?PUSH_XSTACK_I_TWO
   \   000127   89..         MOV     ?V0 + 8,R1
   \   000129   75..00       MOV     ?V0 + 9,#0x0
   \   00012C   78..         MOV     R0,#?V0 + 8
   \   00012E   12....       LCALL   ?PUSH_XSTACK_I_TWO
   \   000131   78..         MOV     R0,#?V0 + 6
   \   000133   12....       LCALL   ?PUSH_XSTACK_I_TWO
   \   000136   A9..         MOV     R1,?V0 + 5
   \   000138   AC..         MOV     R4,?V0 + 2
   \   00013A   AD..         MOV     R5,?V0 + 3
   \   00013C   740E         MOV     A,#0xe
   \   00013E   12....       LCALL   ?XSTACK_DISP0_8
   \   000141   AA82         MOV     R2,DPL
   \   000143   AB83         MOV     R3,DPH
   \   000145   12....       LCALL   ??AF_DataRequestSrcRtg?relay
   \   000148   740C         MOV     A,#0xc
   \   00014A   12....       LCALL   ?DEALLOC_XSTACK8
   \   00014D   E9           MOV     A,R1
   \   00014E   85..82       MOV     DPL,?XSP + 0
   \   000151   85..83       MOV     DPH,?XSP + 1
   \                     ??MT_AfDataRequestSrcRtg_4:
   \   000154   F0           MOVX    @DPTR,A
    501              }
    502          
    503              /* Free the memory allocated */
    504              osal_mem_free( pRelayList );
   \   000155                ; Setup parameters for call to function osal_mem_free
   \   000155   AA..         MOV     R2,?V0 + 0
   \   000157   AB..         MOV     R3,?V0 + 1
   \   000159   12....       LCALL   ??osal_mem_free?relay
   \   00015C   8009         SJMP    ??MT_AfDataRequestSrcRtg_5
    505            }
    506            else
    507            {
    508              retValue = afStatus_MEM_FAIL;
   \                     ??MT_AfDataRequestSrcRtg_0:
   \   00015E   85..82       MOV     DPL,?XSP + 0
   \   000161   85..83       MOV     DPH,?XSP + 1
   \   000164   7410         MOV     A,#0x10
   \   000166   F0           MOVX    @DPTR,A
    509            }
    510          
    511          
    512            /* Build and send back the response */
    513            MT_BuildAndSendZToolResponse(((uint8)MT_RPC_CMD_SRSP | (uint8)MT_RPC_SYS_AF), cmdId, 1, &retValue);
   \                     ??MT_AfDataRequestSrcRtg_5:
   \   000167                ; Setup parameters for call to function MT_BuildAndSendZToolResponse
   \   000167   85..82       MOV     DPL,?XSP + 0
   \   00016A   85..83       MOV     DPH,?XSP + 1
   \   00016D   AC82         MOV     R4,DPL
   \   00016F   AD83         MOV     R5,DPH
   \   000171   7B01         MOV     R3,#0x1
   \   000173   AA..         MOV     R2,?V0 + 4
   \   000175   7964         MOV     R1,#0x64
   \   000177   12....       LCALL   ??MT_BuildAndSendZToolResponse?relay
    514          }
   \   00017A   740E         MOV     A,#0xe
   \   00017C   12....       LCALL   ?DEALLOC_XSTACK8
   \   00017F   7F0C         MOV     R7,#0xc
   \   000181   02....       LJMP    ?BANKED_LEAVE_XDATA

   \                                 In  segment BANKED_CODE, align 1, keep-with-next
   \                     ?Subroutine33:
   \   000000   F0           MOVX    @DPTR,A
   \   000001   8E82         MOV     DPL,R6
   \   000003   8F83         MOV     DPH,R7
   \   000005   A3           INC     DPTR
   \   000006   22           RET

   \                                 In  segment BANKED_CODE, align 1, keep-with-next
   \                     ?Subroutine26:
   \   000000   EE           MOV     A,R6
   \   000001   2402         ADD     A,#0x2
   \   000003   FE           MOV     R6,A
   \   000004   EF           MOV     A,R7
   \   000005   3400         ADDC    A,#0x0
   \   000007   FF           MOV     R7,A
   \   000008   8E82         MOV     DPL,R6
   \   00000A   8F83         MOV     DPH,R7
   \   00000C   E0           MOVX    A,@DPTR
   \   00000D   22           RET
    515          #endif
    516          
    517          #if defined INTER_PAN
    518          /***************************************************************************************************
    519           * @fn      MT_AfInterPanCtl
    520           *
    521           * @brief   Process the AF Inter Pan control command.
    522           *
    523           * @param   pBuf - pointer to the received buffer
    524           *
    525           * @return  none
    526           ***************************************************************************************************/
    527          static void MT_AfInterPanCtl(uint8 *pBuf)
    528          {
    529            uint8 cmd, rtrn;
    530            uint16 panId;
    531            endPointDesc_t *pEP;
    532          
    533            cmd = pBuf[MT_RPC_POS_CMD1];
    534            pBuf += MT_RPC_FRAME_HDR_SZ;
    535          
    536            switch (*pBuf++)  // Inter-pan request parameter.
    537            {
    538            case InterPanClr:
    539              rtrn = StubAPS_SetIntraPanChannel();           // Switch channel back to the NIB channel.
    540              break;
    541          
    542            case InterPanSet:
    543              rtrn = StubAPS_SetInterPanChannel(*pBuf);      // Set channel for inter-pan communication.
    544              break;
    545          
    546            case InterPanReg:
    547              if ((pEP = afFindEndPointDesc(*pBuf)))
    548              {
    549                StubAPS_RegisterApp(pEP);
    550                rtrn = SUCCESS;
    551              }
    552              else
    553              {
    554                rtrn = FAILURE;
    555              }
    556              break;
    557          
    558            case InterPanChk:
    559              panId = BUILD_UINT16(pBuf[0], pBuf[1]);
    560              rtrn = (StubAPS_InterPan(panId, pBuf[2])) ? ZSuccess : ZFailure;
    561              break;
    562          
    563            default:
    564              rtrn = afStatus_INVALID_PARAMETER;
    565              break;
    566            }
    567          
    568            MT_BuildAndSendZToolResponse(((uint8)MT_RPC_CMD_SRSP | (uint8)MT_RPC_SYS_AF), cmd, 1, &rtrn);
    569          }
    570          #endif
    571          
    572          /***************************************************************************************************
    573           * @fn      MT_AfDataConfirm
    574           *
    575           * @brief   Process
    576           *
    577           * @param   pBuf - pointer to the received buffer
    578           *
    579           * @return  none
    580           ***************************************************************************************************/

   \                                 In  segment BANKED_CODE, align 1, keep-with-next
    581          void MT_AfDataConfirm(afDataConfirm_t *pMsg)
   \                     MT_AfDataConfirm:
    582          {
   \   000000   C082         PUSH    DPL
   \   000002   C083         PUSH    DPH
   \   000004                ; Saved register size: 2
   \   000004                ; Auto size: 3
   \   000004   74FD         MOV     A,#-0x3
   \   000006   12....       LCALL   ?ALLOC_XSTACK8
    583            uint8 retArray[3];
    584          
    585            retArray[0] = pMsg->hdr.status;
   \   000009   8A82         MOV     DPL,R2
   \   00000B   8B83         MOV     DPH,R3
   \   00000D   A3           INC     DPTR
   \   00000E   E0           MOVX    A,@DPTR
   \   00000F   85..82       MOV     DPL,?XSP + 0
   \   000012   85..83       MOV     DPH,?XSP + 1
   \   000015   12....       LCALL   ?Subroutine34 & 0xFFFF
    586            retArray[1] = pMsg->endpoint;
   \                     ??CrossCallReturnLabel_71:
   \   000018   C0E0         PUSH    A
   \   00001A   7401         MOV     A,#0x1
   \   00001C   12....       LCALL   ?XSTACK_DISP0_8
   \   00001F   D0E0         POP     A
   \   000021   12....       LCALL   ?Subroutine37 & 0xFFFF
    587            retArray[2] = pMsg->transID;
   \                     ??CrossCallReturnLabel_75:
   \   000024   A3           INC     DPTR
   \   000025   A3           INC     DPTR
   \   000026   E0           MOVX    A,@DPTR
   \   000027   C0E0         PUSH    A
   \   000029   7402         MOV     A,#0x2
   \   00002B   12....       LCALL   ?XSTACK_DISP0_8
   \   00002E   D0E0         POP     A
   \   000030   12....       LCALL   ?Subroutine32 & 0xFFFF
    588          
    589            /* Build and send back the response */
    590            MT_BuildAndSendZToolResponse(((uint8)MT_RPC_CMD_AREQ | (uint8)MT_RPC_SYS_AF), MT_AF_DATA_CONFIRM, 3, retArray);
   \                     ??CrossCallReturnLabel_65:
   \   000033   7B03         MOV     R3,#0x3
   \   000035   7A80         MOV     R2,#-0x80
   \   000037   7944         MOV     R1,#0x44
   \   000039   12....       LCALL   ??MT_BuildAndSendZToolResponse?relay
    591          }
   \   00003C   7403         MOV     A,#0x3
   \   00003E   12....       LCALL   ?DEALLOC_XSTACK8
   \   000041   D083         POP     DPH
   \   000043   D082         POP     DPL
   \   000045   02....       LJMP    ?BRET

   \                                 In  segment BANKED_CODE, align 1, keep-with-next
   \                     ?Subroutine32:
   \   000000   F0           MOVX    @DPTR,A
   \   000001                ; Setup parameters for call to function MT_BuildAndSendZToolResponse
   \   000001                ; Setup parameters for call to function MT_BuildAndSendZToolResponse
   \   000001   85..82       MOV     DPL,?XSP + 0
   \   000004   85..83       MOV     DPH,?XSP + 1
   \   000007   AC82         MOV     R4,DPL
   \   000009   AD83         MOV     R5,DPH
   \   00000B   22           RET
    592          
    593          /***************************************************************************************************
    594           * @fn          MT_AfIncomingMsg
    595           *
    596           * @brief       Process the callback subscription for AF Incoming data.
    597           *
    598           * @param       pkt - Incoming AF data.
    599           *
    600           * @return      none
    601           ***************************************************************************************************/

   \                                 In  segment BANKED_CODE, align 1, keep-with-next
    602          void MT_AfIncomingMsg(afIncomingMSGPacket_t *pMsg)
   \                     MT_AfIncomingMsg:
    603          {
   \   000000   74E9         MOV     A,#-0x17
   \   000002   12....       LCALL   ?BANKED_ENTER_XDATA
   \   000005                ; Saved register size: 23
   \   000005                ; Auto size: 0
   \   000005   8A..         MOV     ?V0 + 8,R2
   \   000007   8B..         MOV     ?V0 + 9,R3
    604            #define MT_AF_INC_MSG_LEN  17
    605            #define MT_AF_INC_MSG_EXT  10
    606          
    607            uint16 dataLen = pMsg->cmd.DataLength;  // Length of the data section in the response packet.
   \   000009   EA           MOV     A,R2
   \   00000A   2420         ADD     A,#0x20
   \   00000C   12....       LCALL   ?Subroutine24 & 0xFFFF
   \                     ??CrossCallReturnLabel_103:
   \   00000F   FE           MOV     R6,A
   \   000010   A3           INC     DPTR
   \   000011   E0           MOVX    A,@DPTR
   \   000012   FF           MOV     R7,A
    608            uint16 respLen = MT_AF_INC_MSG_LEN + dataLen;
   \   000013   EE           MOV     A,R6
   \   000014   2411         ADD     A,#0x11
   \   000016   F5..         MOV     ?V0 + 0,A
   \   000018   EF           MOV     A,R7
   \   000019   3400         ADDC    A,#0x0
   \   00001B   F5..         MOV     ?V0 + 1,A
    609            uint8 cmd = MT_AF_INCOMING_MSG;
   \   00001D   75..81       MOV     ?V0 + 14,#-0x7f
    610            uint8 *pRsp, *pTmp;
    611            mtAfInMsgList_t *pItem = NULL;
   \   000020   75..00       MOV     ?V0 + 10,#0x0
   \   000023   75..00       MOV     ?V0 + 11,#0x0
    612          
    613          #if defined INTER_PAN
    614            if (StubAPS_InterPan(pMsg->srcAddr.panId, pMsg->srcAddr.endPoint))
    615            {
    616              cmd = MT_AF_INCOMING_MSG_EXT;
    617            }
    618            else
    619          #endif
    620            if ((pMsg->srcAddr.addrMode == afAddr64Bit) ||
    621                (respLen > (uint16)(MT_RPC_DATA_MAX - MT_AF_INC_MSG_EXT)))
   \   000026   EA           MOV     A,R2
   \   000027   240E         ADD     A,#0xe
   \   000029   12....       LCALL   ?Subroutine24 & 0xFFFF
   \                     ??CrossCallReturnLabel_104:
   \   00002C   6403         XRL     A,#0x3
   \   00002E   600B         JZ      ??MT_AfIncomingMsg_0
   \   000030   C3           CLR     C
   \   000031   E5..         MOV     A,?V0 + 0
   \   000033   94F1         SUBB    A,#-0xf
   \   000035   E5..         MOV     A,?V0 + 1
   \   000037   9400         SUBB    A,#0x0
   \   000039   400F         JC      ??MT_AfIncomingMsg_1
    622            {
    623              cmd = MT_AF_INCOMING_MSG_EXT;
   \                     ??MT_AfIncomingMsg_0:
   \   00003B   75..82       MOV     ?V0 + 14,#-0x7e
    624            }
    625          
    626            if (cmd == MT_AF_INCOMING_MSG_EXT)
    627            {
    628              respLen += MT_AF_INC_MSG_EXT;
   \   00003E   E5..         MOV     A,?V0 + 0
   \   000040   240A         ADD     A,#0xa
   \   000042   F5..         MOV     ?V0 + 0,A
   \   000044   E5..         MOV     A,?V0 + 1
   \   000046   3400         ADDC    A,#0x0
   \   000048   F5..         MOV     ?V0 + 1,A
    629            }
    630          
    631            if (respLen > (uint16)MT_RPC_DATA_MAX)
   \                     ??MT_AfIncomingMsg_1:
   \   00004A   C3           CLR     C
   \   00004B   E5..         MOV     A,?V0 + 0
   \   00004D   94FB         SUBB    A,#-0x5
   \   00004F   E5..         MOV     A,?V0 + 1
   \   000051   9400         SUBB    A,#0x0
   \   000053   4033         JC      ??MT_AfIncomingMsg_2
    632            {
    633              if ((pItem = (mtAfInMsgList_t *)osal_mem_alloc(sizeof(mtAfInMsgList_t) + dataLen)) == NULL)
   \   000055                ; Setup parameters for call to function osal_mem_alloc
   \   000055   EE           MOV     A,R6
   \   000056   2409         ADD     A,#0x9
   \   000058   FA           MOV     R2,A
   \   000059   EF           MOV     A,R7
   \   00005A   3400         ADDC    A,#0x0
   \   00005C   FB           MOV     R3,A
   \   00005D   12....       LCALL   ??osal_mem_alloc?relay
   \   000060   8A..         MOV     ?V0 + 10,R2
   \   000062   8B..         MOV     ?V0 + 11,R3
   \   000064   EA           MOV     A,R2
   \   000065   45..         ORL     A,?V0 + 11
   \   000067   7003         JNZ     $+5
   \   000069   02....       LJMP    ??MT_AfIncomingMsg_3 & 0xFFFF
    634              {
    635                return;  // If cannot hold a huge message, cannot give indication at all.
    636              }
    637          
    638              pItem->data = (uint8 *)(pItem+1);
   \   00006C   EA           MOV     A,R2
   \   00006D   2409         ADD     A,#0x9
   \   00006F   F8           MOV     R0,A
   \   000070   EB           MOV     A,R3
   \   000071   3400         ADDC    A,#0x0
   \   000073   F9           MOV     R1,A
   \   000074   8A82         MOV     DPL,R2
   \   000076   8B83         MOV     DPH,R3
   \   000078   A3           INC     DPTR
   \   000079   A3           INC     DPTR
   \   00007A   12....       LCALL   ?Subroutine31 & 0xFFFF
    639              respLen -= dataLen;  // Zero data bytes are sent with an over-sized incoming indication.
   \                     ??CrossCallReturnLabel_62:
   \   00007D   C3           CLR     C
   \   00007E   E5..         MOV     A,?V0 + 0
   \   000080   9E           SUBB    A,R6
   \   000081   F5..         MOV     ?V0 + 0,A
   \   000083   E5..         MOV     A,?V0 + 1
   \   000085   9F           SUBB    A,R7
   \   000086   F5..         MOV     ?V0 + 1,A
    640            }
    641          
    642            // Attempt to allocate memory for the response packet.
    643            if ((pRsp = osal_mem_alloc(respLen)) == NULL)
   \                     ??MT_AfIncomingMsg_2:
   \   000088                ; Setup parameters for call to function osal_mem_alloc
   \   000088   AA..         MOV     R2,?V0 + 0
   \   00008A   AB..         MOV     R3,?V0 + 1
   \   00008C   12....       LCALL   ??osal_mem_alloc?relay
   \   00008F   8A..         MOV     ?V0 + 12,R2
   \   000091   8B..         MOV     ?V0 + 13,R3
   \   000093   EA           MOV     A,R2
   \   000094   45..         ORL     A,?V0 + 13
   \   000096   7010         JNZ     ??MT_AfIncomingMsg_4
    644            {
    645              if (pItem != NULL)
   \   000098   E5..         MOV     A,?V0 + 10
   \   00009A   45..         ORL     A,?V0 + 11
   \   00009C   7003         JNZ     $+5
   \   00009E   02....       LJMP    ??MT_AfIncomingMsg_3 & 0xFFFF
    646              {
    647                (void)osal_mem_free(pItem);
   \   0000A1                ; Setup parameters for call to function osal_mem_free
   \   0000A1   AA..         MOV     R2,?V0 + 10
   \   0000A3   AB..         MOV     R3,?V0 + 11
   \   0000A5   02....       LJMP    ??MT_AfIncomingMsg_5 & 0xFFFF
    648              }
    649              return;
    650            }
    651            pTmp = pRsp;
    652          
    653            /* Group ID */
    654            *pTmp++ = LO_UINT16(pMsg->groupId);
   \                     ??MT_AfIncomingMsg_4:
   \   0000A8   E5..         MOV     A,?V0 + 8
   \   0000AA   2402         ADD     A,#0x2
   \   0000AC   12....       LCALL   ?Subroutine23 & 0xFFFF
   \                     ??CrossCallReturnLabel_40:
   \   0000AF   E0           MOVX    A,@DPTR
   \   0000B0   8A82         MOV     DPL,R2
   \   0000B2   8B83         MOV     DPH,R3
   \   0000B4   12....       LCALL   ?Subroutine29 & 0xFFFF
    655            *pTmp++ = HI_UINT16(pMsg->groupId);
   \                     ??CrossCallReturnLabel_50:
   \   0000B7   8882         MOV     DPL,R0
   \   0000B9   8983         MOV     DPH,R1
   \   0000BB   A3           INC     DPTR
   \   0000BC   12....       LCALL   ??Subroutine49_0 & 0xFFFF
    656          
    657            /* Cluster ID */
    658            *pTmp++ = LO_UINT16(pMsg->clusterId);
   \                     ??CrossCallReturnLabel_113:
   \   0000BF   2404         ADD     A,#0x4
   \   0000C1   12....       LCALL   ?Subroutine3 & 0xFFFF
    659            *pTmp++ = HI_UINT16(pMsg->clusterId);
   \                     ??CrossCallReturnLabel_0:
   \   0000C4   12....       LCALL   ?Subroutine6 & 0xFFFF
    660          
    661            if (cmd == MT_AF_INCOMING_MSG_EXT)
   \                     ??CrossCallReturnLabel_9:
   \   0000C7   7482         MOV     A,#-0x7e
   \   0000C9   65..         XRL     A,?V0 + 14
   \   0000CB   7066         JNZ     ??MT_AfIncomingMsg_6
    662            {
    663              *pTmp++ = pMsg->srcAddr.addrMode;
   \   0000CD   E5..         MOV     A,?V0 + 8
   \   0000CF   240E         ADD     A,#0xe
   \   0000D1   12....       LCALL   ?Subroutine23 & 0xFFFF
   \                     ??CrossCallReturnLabel_41:
   \   0000D4   12....       LCALL   ?Subroutine6 & 0xFFFF
    664          
    665              if (pMsg->srcAddr.addrMode == afAddr64Bit)
   \                     ??CrossCallReturnLabel_10:
   \   0000D7   8882         MOV     DPL,R0
   \   0000D9   8983         MOV     DPH,R1
   \   0000DB   E0           MOVX    A,@DPTR
   \   0000DC   6403         XRL     A,#0x3
   \   0000DE   7026         JNZ     ??MT_AfIncomingMsg_7
    666              {
    667                (void)osal_memcpy(pTmp, pMsg->srcAddr.addr.extAddr, Z_EXTADDR_LEN);
   \   0000E0                ; Setup parameters for call to function osal_memcpy
   \   0000E0   E5..         MOV     A,?V0 + 8
   \   0000E2   2406         ADD     A,#0x6
   \   0000E4   F5..         MOV     ?V0 + 4,A
   \   0000E6   E5..         MOV     A,?V0 + 9
   \   0000E8   3400         ADDC    A,#0x0
   \   0000EA   F5..         MOV     ?V0 + 5,A
   \   0000EC   75..00       MOV     ?V0 + 6,#0x0
   \   0000EF   78..         MOV     R0,#?V0 + 4
   \   0000F1   12....       LCALL   ?PUSH_XSTACK_I_THREE
   \   0000F4   7C08         MOV     R4,#0x8
   \   0000F6   7D00         MOV     R5,#0x0
   \   0000F8   AA..         MOV     R2,?V0 + 2
   \   0000FA   AB..         MOV     R3,?V0 + 3
   \   0000FC   12....       LCALL   ??osal_memcpy?relay
   \   0000FF   7403         MOV     A,#0x3
   \   000101   12....       LCALL   ?DEALLOC_XSTACK8
   \   000104   8015         SJMP    ??MT_AfIncomingMsg_8
    668              }
    669              else
    670              {
    671                pTmp[0] = LO_UINT16(pMsg->srcAddr.addr.shortAddr);
   \                     ??MT_AfIncomingMsg_7:
   \   000106   E5..         MOV     A,?V0 + 8
   \   000108   2406         ADD     A,#0x6
   \   00010A   12....       LCALL   ?Subroutine23 & 0xFFFF
   \                     ??CrossCallReturnLabel_42:
   \   00010D   12....       LCALL   ?Subroutine19 & 0xFFFF
   \                     ??CrossCallReturnLabel_35:
   \   000110   F0           MOVX    @DPTR,A
    672                pTmp[1] = HI_UINT16(pMsg->srcAddr.addr.shortAddr);
   \   000111   8882         MOV     DPL,R0
   \   000113   8983         MOV     DPH,R1
   \   000115   A3           INC     DPTR
   \   000116   12....       LCALL   ?Subroutine19 & 0xFFFF
    673              }
   \                     ??CrossCallReturnLabel_36:
   \   000119   A3           INC     DPTR
   \   00011A   F0           MOVX    @DPTR,A
    674              pTmp += Z_EXTADDR_LEN;
   \                     ??MT_AfIncomingMsg_8:
   \   00011B   E5..         MOV     A,?V0 + 2
   \   00011D   2408         ADD     A,#0x8
   \   00011F   F5..         MOV     ?V0 + 2,A
   \   000121   E5..         MOV     A,?V0 + 3
   \   000123   3400         ADDC    A,#0x0
   \   000125   F5..         MOV     ?V0 + 3,A
    675          
    676              *pTmp++ = pMsg->srcAddr.endPoint;
   \   000127   E5..         MOV     A,?V0 + 8
   \   000129   240F         ADD     A,#0xf
   \   00012B   12....       LCALL   ?Subroutine18 & 0xFFFF
    677          #if defined INTER_PAN
    678              *pTmp++ = LO_UINT16(pMsg->srcAddr.panId);
    679              *pTmp++ = HI_UINT16(pMsg->srcAddr.panId);
    680          #else
    681              *pTmp++ = 0;
   \                     ??CrossCallReturnLabel_33:
   \   00012E   E4           CLR     A
   \   00012F   F0           MOVX    @DPTR,A
   \   000130   A3           INC     DPTR
    682              *pTmp++ = 0;
   \   000131   8016         SJMP    ??CrossCallReturnLabel_37
    683          #endif
    684            }
    685            else
    686            {
    687              /* Source Address */
    688              *pTmp++ = LO_UINT16(pMsg->srcAddr.addr.shortAddr);
   \                     ??MT_AfIncomingMsg_6:
   \   000133   E5..         MOV     A,?V0 + 8
   \   000135   2406         ADD     A,#0x6
   \   000137   12....       LCALL   ?Subroutine3 & 0xFFFF
    689              *pTmp++ = HI_UINT16(pMsg->srcAddr.addr.shortAddr);
    690          
    691              /* Source EP */
    692              *pTmp++ = pMsg->srcAddr.endPoint;
    693            }
   \                     ??CrossCallReturnLabel_1:
   \   00013A   12....       LCALL   ??Subroutine49_0 & 0xFFFF
   \                     ??CrossCallReturnLabel_114:
   \   00013D   240F         ADD     A,#0xf
   \   00013F   F582         MOV     DPL,A
   \   000141   E5..         MOV     A,?V0 + 9
   \   000143   12....       LCALL   ??Subroutine51_0 & 0xFFFF
   \                     ??CrossCallReturnLabel_128:
   \   000146   12....       LCALL   ?Subroutine19 & 0xFFFF
   \                     ??CrossCallReturnLabel_37:
   \   000149   12....       LCALL   ?Subroutine29 & 0xFFFF
    694          
    695            /* Destination EP */
    696            *pTmp++ = pMsg->endPoint;
   \                     ??CrossCallReturnLabel_51:
   \   00014C   E5..         MOV     A,?V0 + 8
   \   00014E   2414         ADD     A,#0x14
   \   000150   12....       LCALL   ?Subroutine1 & 0xFFFF
    697          
    698            /* WasBroadCast */
    699            *pTmp++ = pMsg->wasBroadcast;
   \                     ??CrossCallReturnLabel_109:
   \   000153   2415         ADD     A,#0x15
   \   000155   12....       LCALL   ?Subroutine1 & 0xFFFF
    700          
    701            /* LinkQuality */
    702            *pTmp++ = pMsg->LinkQuality;
   \                     ??CrossCallReturnLabel_110:
   \   000158   2416         ADD     A,#0x16
   \   00015A   12....       LCALL   ?Subroutine1 & 0xFFFF
    703          
    704            /* SecurityUse */
    705            *pTmp++ = pMsg->SecurityUse;
   \                     ??CrossCallReturnLabel_111:
   \   00015D   2419         ADD     A,#0x19
   \   00015F   12....       LCALL   ?Subroutine1 & 0xFFFF
    706          
    707            /* Timestamp */
    708            *pTmp++ = BREAK_UINT32(pMsg->timestamp, 0);
   \                     ??CrossCallReturnLabel_112:
   \   000162   241A         ADD     A,#0x1a
   \   000164   FA           MOV     R2,A
   \   000165   E5..         MOV     A,?V0 + 9
   \   000167   3400         ADDC    A,#0x0
   \   000169   FB           MOV     R3,A
   \   00016A   8A82         MOV     DPL,R2
   \   00016C   8B83         MOV     DPH,R3
   \   00016E   78..         MOV     R0,#?V0 + 4
   \   000170   12....       LCALL   ?L_MOV_X
   \   000173   12....       LCALL   ?Subroutine27 & 0xFFFF
    709            *pTmp++ = BREAK_UINT32(pMsg->timestamp, 1);
   \                     ??CrossCallReturnLabel_98:
   \   000176   12....       LCALL   ?L_MOV_X
   \   000179   E5..         MOV     A,?V0 + 5
   \   00017B   85..82       MOV     DPL,?V0 + 2
   \   00017E   85..83       MOV     DPH,?V0 + 3
   \   000181   12....       LCALL   ??Subroutine45_0 & 0xFFFF
    710            *pTmp++ = BREAK_UINT32(pMsg->timestamp, 2);
   \                     ??CrossCallReturnLabel_100:
   \   000184   12....       LCALL   ?L_MOV_X
   \   000187   7410         MOV     A,#0x10
   \   000189   78..         MOV     R0,#?V0 + 4
   \   00018B   12....       LCALL   ?UL_SHR
   \   00018E   12....       LCALL   ?Subroutine27 & 0xFFFF
    711            *pTmp++ = BREAK_UINT32(pMsg->timestamp, 3);
   \                     ??CrossCallReturnLabel_99:
   \   000191   12....       LCALL   ?L_MOV_X
   \   000194   7418         MOV     A,#0x18
   \   000196   78..         MOV     R0,#?V0 + 4
   \   000198   12....       LCALL   ?UL_SHR
   \   00019B   85..82       MOV     DPL,?V0 + 2
   \   00019E   85..83       MOV     DPH,?V0 + 3
   \   0001A1   E5..         MOV     A,?V0 + 4
   \   0001A3   12....       LCALL   ?Subroutine29 & 0xFFFF
    712          
    713          
    714            /* Data Length */
    715            if (cmd == MT_AF_INCOMING_MSG_EXT)
   \                     ??CrossCallReturnLabel_52:
   \   0001A6   7482         MOV     A,#-0x7e
   \   0001A8   65..         XRL     A,?V0 + 14
   \   0001AA   7009         JNZ     ??MT_AfIncomingMsg_9
    716            {
    717              /* Z-Tool apparently takes the last Byte before the data buffer as the dynamic length and
    718               * ignores the bigger UInt16 length of an EXT incoming message. But no data bytes will be sent
    719               * with a huge message, so it's necessary to work-around and fake-out Z-Tool with a zero here.
    720               */
    721              *pTmp++ = 0;  // TODO - workaround Z-Tool shortcoming; should be: = pMsg->cmd.TransSeqNumber;
   \   0001AC   E4           CLR     A
   \   0001AD   F0           MOVX    @DPTR,A
   \   0001AE   A3           INC     DPTR
    722              *pTmp++ = LO_UINT16(dataLen);
   \   0001AF   EE           MOV     A,R6
   \   0001B0   F0           MOVX    @DPTR,A
   \   0001B1   A3           INC     DPTR
    723              *pTmp++ = HI_UINT16(dataLen);
   \   0001B2   EF           MOV     A,R7
   \   0001B3   8008         SJMP    ??MT_AfIncomingMsg_10
    724            }
    725            else
    726            {
    727              *pTmp++ = pMsg->cmd.TransSeqNumber;
   \                     ??MT_AfIncomingMsg_9:
   \   0001B5   E5..         MOV     A,?V0 + 8
   \   0001B7   241F         ADD     A,#0x1f
   \   0001B9   12....       LCALL   ?Subroutine18 & 0xFFFF
    728              *pTmp++ = dataLen;
   \                     ??CrossCallReturnLabel_34:
   \   0001BC   EE           MOV     A,R6
    729            }
   \                     ??MT_AfIncomingMsg_10:
   \   0001BD   12....       LCALL   ?Subroutine29 & 0xFFFF
    730          
    731            /* Data */
    732            if (pItem != NULL)
   \                     ??CrossCallReturnLabel_53:
   \   0001C0   E5..         MOV     A,?V0 + 10
   \   0001C2   45..         ORL     A,?V0 + 11
   \   0001C4   606A         JZ      ??MT_AfIncomingMsg_11
    733            {
    734              // Enqueue the new huge incoming item.
    735              pItem->next = pMtAfInMsgList;
   \   0001C6   12....       LCALL   ?Subroutine21 & 0xFFFF
   \                     ??CrossCallReturnLabel_126:
   \   0001C9   85..82       MOV     DPL,?V0 + 10
   \   0001CC   85..83       MOV     DPH,?V0 + 11
   \   0001CF   12....       LCALL   ?Subroutine31 & 0xFFFF
    736              pMtAfInMsgList = pItem;
   \                     ??CrossCallReturnLabel_63:
   \   0001D2   90....       MOV     DPTR,#pMtAfInMsgList
   \   0001D5   E5..         MOV     A,?V0 + 10
   \   0001D7   F0           MOVX    @DPTR,A
   \   0001D8   A3           INC     DPTR
   \   0001D9   E5..         MOV     A,?V0 + 11
   \   0001DB   F0           MOVX    @DPTR,A
    737          
    738              // Setup to time-out the huge incoming item if host does not MT_AF_DATA_RETRIEVE it.
    739              pItem->tick = MT_AF_EXEC_CNT;
   \   0001DC   85..82       MOV     DPL,?V0 + 10
   \   0001DF   F583         MOV     DPH,A
   \   0001E1   A3           INC     DPTR
   \   0001E2   A3           INC     DPTR
   \   0001E3   A3           INC     DPTR
   \   0001E4   A3           INC     DPTR
   \   0001E5   A3           INC     DPTR
   \   0001E6   A3           INC     DPTR
   \   0001E7   A3           INC     DPTR
   \   0001E8   A3           INC     DPTR
   \   0001E9   12....       LCALL   ?Subroutine30 & 0xFFFF
    740              if (ZSuccess != osal_start_timerEx(MT_TaskID, MT_AF_EXEC_EVT, MT_AF_EXEC_DLY))
   \                     ??CrossCallReturnLabel_55:
   \   0001EC   12....       LCALL   ??osal_start_timerEx?relay
   \   0001EF   E9           MOV     A,R1
   \   0001F0   600C         JZ      ??MT_AfIncomingMsg_12
    741              {
    742                (void)osal_set_event(MT_TaskID, MT_AF_EXEC_EVT);
   \   0001F2                ; Setup parameters for call to function osal_set_event
   \   0001F2   7A08         MOV     R2,#0x8
   \   0001F4   7B00         MOV     R3,#0x0
   \   0001F6   90....       MOV     DPTR,#MT_TaskID
   \   0001F9   E0           MOVX    A,@DPTR
   \   0001FA   F9           MOV     R1,A
   \   0001FB   12....       LCALL   ??osal_set_event?relay
    743              }
    744          
    745              pItem->timestamp = pMsg->timestamp;
   \                     ??MT_AfIncomingMsg_12:
   \   0001FE   E5..         MOV     A,?V0 + 8
   \   000200   241A         ADD     A,#0x1a
   \   000202   F582         MOV     DPL,A
   \   000204   E5..         MOV     A,?V0 + 9
   \   000206   12....       LCALL   ??Subroutine51_0 & 0xFFFF
   \                     ??CrossCallReturnLabel_129:
   \   000209   12....       LCALL   ?XLOAD_R2345
   \   00020C   85..82       MOV     DPL,?V0 + 10
   \   00020F   85..83       MOV     DPH,?V0 + 11
   \   000212   A3           INC     DPTR
   \   000213   A3           INC     DPTR
   \   000214   A3           INC     DPTR
   \   000215   A3           INC     DPTR
   \   000216   12....       LCALL   ?XSTORE_R2345
    746              (void)osal_memcpy(pItem->data, pMsg->cmd.Data, dataLen);
   \   000219                ; Setup parameters for call to function osal_memcpy
   \   000219   12....       LCALL   ?Subroutine17 & 0xFFFF
    747            }
   \                     ??CrossCallReturnLabel_31:
   \   00021C   12....       LCALL   ?PUSH_XSTACK_I_THREE
   \   00021F   EE           MOV     A,R6
   \   000220   FC           MOV     R4,A
   \   000221   EF           MOV     A,R7
   \   000222   FD           MOV     R5,A
   \   000223   85..82       MOV     DPL,?V0 + 10
   \   000226   85..83       MOV     DPH,?V0 + 11
   \   000229   A3           INC     DPTR
   \   00022A   A3           INC     DPTR
   \   00022B   12....       LCALL   ??Subroutine47_0 & 0xFFFF
   \                     ??CrossCallReturnLabel_106:
   \   00022E   800E         SJMP    ??MT_AfIncomingMsg_13
    748            else
    749            {
    750              (void)osal_memcpy(pTmp, pMsg->cmd.Data, dataLen);
   \                     ??MT_AfIncomingMsg_11:
   \   000230                ; Setup parameters for call to function osal_memcpy
   \   000230   12....       LCALL   ?Subroutine17 & 0xFFFF
    751            }
   \                     ??CrossCallReturnLabel_32:
   \   000233   12....       LCALL   ?PUSH_XSTACK_I_THREE
   \   000236   EE           MOV     A,R6
   \   000237   FC           MOV     R4,A
   \   000238   EF           MOV     A,R7
   \   000239   FD           MOV     R5,A
   \   00023A   AA..         MOV     R2,?V0 + 2
   \   00023C   AB..         MOV     R3,?V0 + 3
   \                     ??MT_AfIncomingMsg_13:
   \   00023E   12....       LCALL   ??osal_memcpy?relay
   \   000241   7403         MOV     A,#0x3
   \   000243   12....       LCALL   ?DEALLOC_XSTACK8
    752          
    753            /* Build and send back the response */
    754            MT_BuildAndSendZToolResponse(((uint8)MT_RPC_CMD_AREQ|(uint8)MT_RPC_SYS_AF), cmd, respLen, pRsp);
   \   000246                ; Setup parameters for call to function MT_BuildAndSendZToolResponse
   \   000246   AC..         MOV     R4,?V0 + 12
   \   000248   AD..         MOV     R5,?V0 + 13
   \   00024A   AB..         MOV     R3,?V0 + 0
   \   00024C   AA..         MOV     R2,?V0 + 14
   \   00024E   7944         MOV     R1,#0x44
   \   000250   12....       LCALL   ??MT_BuildAndSendZToolResponse?relay
    755          
    756            (void)osal_mem_free(pRsp);
   \   000253                ; Setup parameters for call to function osal_mem_free
   \   000253   AA..         MOV     R2,?V0 + 12
   \   000255   AB..         MOV     R3,?V0 + 13
   \                     ??MT_AfIncomingMsg_5:
   \   000257   12....       LCALL   ??osal_mem_free?relay
    757          }
   \                     ??MT_AfIncomingMsg_3:
   \   00025A   7F0F         MOV     R7,#0xf
   \   00025C   02....       LJMP    ?BANKED_LEAVE_XDATA

   \                                 In  segment BANKED_CODE, align 1, keep-with-next
   \                     ?Subroutine29:
   \   000000   12....       LCALL   ??Subroutine48_0 & 0xFFFF
   \                     ??CrossCallReturnLabel_118:
   \   000003   22           RET

   \                                 In  segment BANKED_CODE, align 1, keep-with-next
   \                     ?Subroutine27:
   \   000000   85..82       MOV     DPL,?V0 + 2
   \   000003   85..83       MOV     DPH,?V0 + 3
   \   000006   E5..         MOV     A,?V0 + 4
   \   000008                REQUIRE ??Subroutine45_0
   \   000008                ; // Fall through to label ??Subroutine45_0

   \                                 In  segment BANKED_CODE, align 1, keep-with-next
   \                     ??Subroutine45_0:
   \   000000   12....       LCALL   ??Subroutine48_0 & 0xFFFF
   \                     ??CrossCallReturnLabel_119:
   \   000003   8A82         MOV     DPL,R2
   \   000005   8B83         MOV     DPH,R3
   \   000007   78..         MOV     R0,#?V0 + 4
   \   000009   22           RET

   \                                 In  segment BANKED_CODE, align 1, keep-with-next
   \                     ?Subroutine23:
   \   000000   F8           MOV     R0,A
   \   000001   E5..         MOV     A,?V0 + 9
   \   000003   3400         ADDC    A,#0x0
   \   000005   F9           MOV     R1,A
   \   000006   8882         MOV     DPL,R0
   \   000008   8983         MOV     DPH,R1
   \   00000A   22           RET

   \                                 In  segment BANKED_CODE, align 1, keep-with-next
   \                     ?Subroutine19:
   \   000000   12....       LCALL   ?Subroutine42 & 0xFFFF
   \                     ??CrossCallReturnLabel_116:
   \   000003   22           RET

   \                                 In  segment BANKED_CODE, align 1, keep-with-next
   \                     ?Subroutine42:
   \   000000   E0           MOVX    A,@DPTR
   \   000001   85..82       MOV     DPL,?V0 + 2
   \   000004   85..83       MOV     DPH,?V0 + 3
   \   000007   22           RET

   \                                 In  segment BANKED_CODE, align 1, keep-with-next
   \                     ?Subroutine18:
   \   000000   F582         MOV     DPL,A
   \   000002   E5..         MOV     A,?V0 + 9
   \   000004   12....       LCALL   ??Subroutine51_0 & 0xFFFF
   \                     ??CrossCallReturnLabel_132:
   \   000007   12....       LCALL   ?Subroutine42 & 0xFFFF
   \                     ??CrossCallReturnLabel_115:
   \   00000A   F0           MOVX    @DPTR,A
   \   00000B   A3           INC     DPTR
   \   00000C   22           RET

   \                                 In  segment BANKED_CODE, align 1, keep-with-next
   \                     ?Subroutine17:
   \   000000   E5..         MOV     A,?V0 + 8
   \   000002   2422         ADD     A,#0x22
   \   000004   F582         MOV     DPL,A
   \   000006   E5..         MOV     A,?V0 + 9
   \   000008   12....       LCALL   ??Subroutine51_0 & 0xFFFF
   \                     ??CrossCallReturnLabel_131:
   \   00000B   E0           MOVX    A,@DPTR
   \   00000C   F5..         MOV     ?V0 + 4,A
   \   00000E   A3           INC     DPTR
   \   00000F   E0           MOVX    A,@DPTR
   \   000010   F5..         MOV     ?V0 + 5,A
   \   000012   78..         MOV     R0,#?V0 + 4
   \   000014   22           RET

   \                                 In  segment BANKED_CODE, align 1, keep-with-next
   \                     ?Subroutine6:
   \   000000   12....       LCALL   ?Subroutine36 & 0xFFFF
   \                     ??CrossCallReturnLabel_121:
   \   000003   22           RET

   \                                 In  segment BANKED_CODE, align 1, keep-with-next
   \                     ?Subroutine36:
   \   000000   12....       LCALL   ?Subroutine42 & 0xFFFF
   \                     ??CrossCallReturnLabel_117:
   \   000003                REQUIRE ??Subroutine48_0
   \   000003                ; // Fall through to label ??Subroutine48_0

   \                                 In  segment BANKED_CODE, align 1, keep-with-next
   \                     ??Subroutine48_0:
   \   000000   F0           MOVX    @DPTR,A
   \   000001   A3           INC     DPTR
   \   000002   8582..       MOV     ?V0 + 2,DPL
   \   000005   8583..       MOV     ?V0 + 3,DPH
   \   000008   22           RET

   \                                 In  segment BANKED_CODE, align 1, keep-with-next
   \                     ?Subroutine3:
   \   000000   F8           MOV     R0,A
   \   000001   E5..         MOV     A,?V0 + 9
   \   000003   3400         ADDC    A,#0x0
   \   000005   F9           MOV     R1,A
   \   000006   8882         MOV     DPL,R0
   \   000008   8983         MOV     DPH,R1
   \   00000A   12....       LCALL   ?Subroutine36 & 0xFFFF
   \                     ??CrossCallReturnLabel_120:
   \   00000D   8882         MOV     DPL,R0
   \   00000F   8983         MOV     DPH,R1
   \   000011   A3           INC     DPTR
   \   000012   22           RET

   \                                 In  segment BANKED_CODE, align 1, keep-with-next
   \                     ?Subroutine1:
   \   000000   F582         MOV     DPL,A
   \   000002   E5..         MOV     A,?V0 + 9
   \   000004   12....       LCALL   ??Subroutine51_0 & 0xFFFF
   \                     ??CrossCallReturnLabel_130:
   \   000007                REQUIRE ??Subroutine49_0
   \   000007                ; // Fall through to label ??Subroutine49_0

   \                                 In  segment BANKED_CODE, align 1, keep-with-next
   \                     ??Subroutine49_0:
   \   000000   12....       LCALL   ?Subroutine36 & 0xFFFF
   \                     ??CrossCallReturnLabel_122:
   \   000003   E5..         MOV     A,?V0 + 8
   \   000005   22           RET
    758          
    759          /**************************************************************************************************
    760           * @fn          MT_AfDataRetrieve
    761           *
    762           * @brief   Process AF Data Retrieve command to incrementally read out a very large
    763           *          incoming AF message.
    764           *
    765           * input parameters
    766           *
    767           * @param pBuf - pointer to the received buffer
    768           *
    769           * output parameters
    770           *
    771           * @param rtrn - AF-Status of the operation.
    772           *
    773           * @return      None.
    774           **************************************************************************************************
    775           */

   \                                 In  segment BANKED_CODE, align 1, keep-with-next
    776          void MT_AfDataRetrieve(uint8 *pBuf)
   \                     MT_AfDataRetrieve:
    777          {
   \   000000   74EB         MOV     A,#-0x15
   \   000002   12....       LCALL   ?BANKED_ENTER_XDATA
   \   000005                ; Saved register size: 21
   \   000005                ; Auto size: 0
   \   000005   8A..         MOV     ?V0 + 0,R2
    778            #define MT_AF_RTV_HDR_SZ  2
    779          
    780            uint32 timestamp;
    781            mtAfInMsgList_t *pPrev, *pItem = pMtAfInMsgList;
   \   000007   90....       MOV     DPTR,#pMtAfInMsgList
   \   00000A   12....       LCALL   ?Subroutine14 & 0xFFFF
    782            uint8 rtrn = afStatus_FAILED;
   \                     ??CrossCallReturnLabel_27:
   \   00000D   7A01         MOV     R2,#0x1
    783            uint8 len = 0;
   \   00000F   75..00       MOV     ?V0 + 12,#0x0
    784          
    785            pBuf += MT_RPC_FRAME_HDR_SZ;
   \   000012   E5..         MOV     A,?V0 + 0
   \   000014   2403         ADD     A,#0x3
   \   000016   F5..         MOV     ?V0 + 0,A
   \   000018   EB           MOV     A,R3
   \   000019   12....       LCALL   ?Subroutine25 & 0xFFFF
    786            timestamp = BUILD_UINT32(pBuf[0], pBuf[1], pBuf[2], pBuf[3]);
   \                     ??CrossCallReturnLabel_43:
   \   00001C   E0           MOVX    A,@DPTR
   \   00001D   F5..         MOV     ?V0 + 4,A
   \   00001F   E4           CLR     A
   \   000020   F5..         MOV     ?V0 + 5,A
   \   000022   F5..         MOV     ?V0 + 6,A
   \   000024   F5..         MOV     ?V0 + 7,A
   \   000026   A3           INC     DPTR
   \   000027   E0           MOVX    A,@DPTR
   \   000028   F5..         MOV     ?V0 + 8,A
   \   00002A   E4           CLR     A
   \   00002B   F5..         MOV     ?V0 + 9,A
   \   00002D   F5..         MOV     ?V0 + 10,A
   \   00002F   F5..         MOV     ?V0 + 11,A
   \   000031   7408         MOV     A,#0x8
   \   000033   78..         MOV     R0,#?V0 + 8
   \   000035   12....       LCALL   ?L_SHL
   \   000038   78..         MOV     R0,#?V0 + 4
   \   00003A   79..         MOV     R1,#?V0 + 8
   \   00003C   12....       LCALL   ?L_ADD
   \   00003F   85..82       MOV     DPL,?V0 + 0
   \   000042   85..83       MOV     DPH,?V0 + 1
   \   000045   A3           INC     DPTR
   \   000046   A3           INC     DPTR
   \   000047   E0           MOVX    A,@DPTR
   \   000048   F5..         MOV     ?V0 + 8,A
   \   00004A   E4           CLR     A
   \   00004B   F5..         MOV     ?V0 + 9,A
   \   00004D   7410         MOV     A,#0x10
   \   00004F   78..         MOV     R0,#?V0 + 8
   \   000051   12....       LCALL   ?L_SHL
   \   000054   78..         MOV     R0,#?V0 + 4
   \   000056   79..         MOV     R1,#?V0 + 8
   \   000058   12....       LCALL   ?L_ADD
   \   00005B   85..82       MOV     DPL,?V0 + 0
   \   00005E   85..83       MOV     DPH,?V0 + 1
   \   000061   A3           INC     DPTR
   \   000062   A3           INC     DPTR
   \   000063   A3           INC     DPTR
   \   000064   E0           MOVX    A,@DPTR
   \   000065   F5..         MOV     ?V0 + 8,A
   \   000067   E4           CLR     A
   \   000068   F5..         MOV     ?V0 + 10,A
   \   00006A   7418         MOV     A,#0x18
   \   00006C   78..         MOV     R0,#?V0 + 8
   \   00006E   12....       LCALL   ?L_SHL
   \   000071   78..         MOV     R0,#?V0 + 4
   \   000073   79..         MOV     R1,#?V0 + 8
   \   000075   12....       LCALL   ?L_ADD
   \   000078   8007         SJMP    ??CrossCallReturnLabel_28
    787          
    788            while (pItem != NULL)
    789            {
    790              pPrev = pItem;
    791              if (pItem->timestamp == timestamp)
    792              {
    793                break;
    794              }
    795              pItem = pItem->next;
   \                     ??MT_AfDataRetrieve_0:
   \   00007A   8C82         MOV     DPL,R4
   \   00007C   8D83         MOV     DPH,R5
   \   00007E   12....       LCALL   ?Subroutine14 & 0xFFFF
   \                     ??CrossCallReturnLabel_28:
   \   000081   E5..         MOV     A,?V0 + 2
   \   000083   45..         ORL     A,?V0 + 3
   \   000085   605B         JZ      ??MT_AfDataRetrieve_1
   \   000087   AC..         MOV     R4,?V0 + 2
   \   000089   AD..         MOV     R5,?V0 + 3
   \   00008B   8C82         MOV     DPL,R4
   \   00008D   8D83         MOV     DPH,R5
   \   00008F   A3           INC     DPTR
   \   000090   A3           INC     DPTR
   \   000091   A3           INC     DPTR
   \   000092   A3           INC     DPTR
   \   000093   78..         MOV     R0,#?V0 + 4
   \   000095   12....       LCALL   ?L_EQ_X
   \   000098   70E0         JNZ     ??MT_AfDataRetrieve_0
    796            }
    797          
    798            if (pItem != NULL)
    799            {
    800              uint16 idx;
    801              uint8 *pRsp;
    802          
    803              pBuf += 4;
   \   00009A   E5..         MOV     A,?V0 + 0
   \   00009C   2404         ADD     A,#0x4
   \   00009E   F5..         MOV     ?V0 + 0,A
   \   0000A0   E5..         MOV     A,?V0 + 1
   \   0000A2   12....       LCALL   ?Subroutine25 & 0xFFFF
    804              idx = BUILD_UINT16(pBuf[0], pBuf[1]);
   \                     ??CrossCallReturnLabel_44:
   \   0000A5   12....       LCALL   ?Subroutine4 & 0xFFFF
   \                     ??CrossCallReturnLabel_5:
   \   0000A8   F5..         MOV     ?V0 + 4,A
   \   0000AA   E4           CLR     A
   \   0000AB   39           ADDC    A,R1
   \   0000AC   F5..         MOV     ?V0 + 5,A
    805              len = pBuf[2];
   \   0000AE   85..82       MOV     DPL,?V0 + 0
   \   0000B1   85..83       MOV     DPH,?V0 + 1
   \   0000B4   A3           INC     DPTR
   \   0000B5   A3           INC     DPTR
   \   0000B6   E0           MOVX    A,@DPTR
   \   0000B7   F5..         MOV     ?V0 + 12,A
    806          
    807              if (len == 0)  // Indication to delete the afIncomingMSGPacket.
   \   0000B9   7045         JNZ     ??MT_AfDataRetrieve_2
    808              {
    809                if (pMtAfInMsgList == pItem)
   \   0000BB   12....       LCALL   ?Subroutine21 & 0xFFFF
   \                     ??CrossCallReturnLabel_127:
   \   0000BE   EC           MOV     A,R4
   \   0000BF   68           XRL     A,R0
   \   0000C0   7002         JNZ     ??MT_AfDataRetrieve_3
   \   0000C2   ED           MOV     A,R5
   \   0000C3   69           XRL     A,R1
   \                     ??MT_AfDataRetrieve_3:
   \   0000C4   8C82         MOV     DPL,R4
   \   0000C6   8D83         MOV     DPH,R5
   \   0000C8   7005         JNZ     ??MT_AfDataRetrieve_4
    810                {
    811                  pMtAfInMsgList = pItem->next;
   \   0000CA   12....       LCALL   ?Subroutine20 & 0xFFFF
    812                }
   \                     ??CrossCallReturnLabel_39:
   \   0000CD   8007         SJMP    ??MT_AfDataRetrieve_5
    813                else
    814                {
    815                  pPrev->next = pItem->next;
   \                     ??MT_AfDataRetrieve_4:
   \   0000CF   12....       LCALL   ??Subroutine50_0 & 0xFFFF
    816                }
   \                     ??CrossCallReturnLabel_124:
   \   0000D2   8C82         MOV     DPL,R4
   \   0000D4   8D83         MOV     DPH,R5
   \                     ??MT_AfDataRetrieve_5:
   \   0000D6   12....       LCALL   ?Subroutine31 & 0xFFFF
    817                (void)osal_mem_free(pItem);
   \                     ??CrossCallReturnLabel_64:
   \   0000D9                ; Setup parameters for call to function osal_mem_free
   \   0000D9   AA..         MOV     R2,?V0 + 2
   \   0000DB   AB..         MOV     R3,?V0 + 3
   \   0000DD   12....       LCALL   ??osal_mem_free?relay
    818                rtrn = afStatus_SUCCESS;
   \   0000E0   7A00         MOV     R2,#0x0
    819              }
    820              else if ((pRsp = osal_mem_alloc(len + MT_AF_RTV_HDR_SZ)) == NULL)
    821              {
    822                rtrn = afStatus_MEM_FAIL;
    823                len = 0;
    824              }
    825              else
    826              {
    827                pRsp[0] = ZSuccess;
    828                pRsp[1] = len;
    829                (void)osal_memcpy(pRsp + MT_AF_RTV_HDR_SZ, pItem->data+idx, len);
    830                MT_BuildAndSendZToolResponse(((uint8)MT_RPC_CMD_SRSP | (uint8)MT_RPC_SYS_AF),
    831                                                     MT_AF_DATA_RETRIEVE, len + MT_AF_RTV_HDR_SZ, pRsp);
    832                (void)osal_mem_free(pRsp);
    833                return;
    834              }
    835            }
    836          
    837            pBuf[0] = rtrn;
   \                     ??MT_AfDataRetrieve_1:
   \   0000E2   EA           MOV     A,R2
   \   0000E3   85..82       MOV     DPL,?V0 + 0
   \   0000E6   85..83       MOV     DPH,?V0 + 1
   \   0000E9   F0           MOVX    @DPTR,A
    838            pBuf[1] = len;
   \   0000EA   A3           INC     DPTR
   \   0000EB   E5..         MOV     A,?V0 + 12
   \   0000ED   F0           MOVX    @DPTR,A
    839            MT_BuildAndSendZToolResponse(((uint8)MT_RPC_CMD_SRSP | (uint8)MT_RPC_SYS_AF),
    840                                                 MT_AF_DATA_RETRIEVE, MT_AF_RTV_HDR_SZ, pBuf);
   \   0000EE                ; Setup parameters for call to function MT_BuildAndSendZToolResponse
   \   0000EE   AC..         MOV     R4,?V0 + 0
   \   0000F0   AD..         MOV     R5,?V0 + 1
   \   0000F2   7B02         MOV     R3,#0x2
   \   0000F4   7A12         MOV     R2,#0x12
   \   0000F6   7964         MOV     R1,#0x64
   \   0000F8   12....       LCALL   ??MT_BuildAndSendZToolResponse?relay
    841          }
   \                     ??MT_AfDataRetrieve_6:
   \   0000FB   7F0D         MOV     R7,#0xd
   \   0000FD   02....       LJMP    ?BANKED_LEAVE_XDATA
   \                     ??MT_AfDataRetrieve_2:
   \   000100                ; Setup parameters for call to function osal_mem_alloc
   \   000100   2402         ADD     A,#0x2
   \   000102   FA           MOV     R2,A
   \   000103   E4           CLR     A
   \   000104   3400         ADDC    A,#0x0
   \   000106   FB           MOV     R3,A
   \   000107   12....       LCALL   ??osal_mem_alloc?relay
   \   00010A   8A..         MOV     ?V0 + 6,R2
   \   00010C   8B..         MOV     ?V0 + 7,R3
   \   00010E   AE..         MOV     R6,?V0 + 6
   \   000110   AF..         MOV     R7,?V0 + 7
   \   000112   EE           MOV     A,R6
   \   000113   4F           ORL     A,R7
   \   000114   7007         JNZ     ??MT_AfDataRetrieve_7
   \   000116   7A10         MOV     R2,#0x10
   \   000118   75..00       MOV     ?V0 + 12,#0x0
   \   00011B   80C5         SJMP    ??MT_AfDataRetrieve_1
   \                     ??MT_AfDataRetrieve_7:
   \   00011D   8E82         MOV     DPL,R6
   \   00011F   8F83         MOV     DPH,R7
   \   000121   E4           CLR     A
   \   000122   F0           MOVX    @DPTR,A
   \   000123   A3           INC     DPTR
   \   000124   E5..         MOV     A,?V0 + 12
   \   000126   F0           MOVX    @DPTR,A
   \   000127                ; Setup parameters for call to function osal_memcpy
   \   000127   85..82       MOV     DPL,?V0 + 2
   \   00012A   85..83       MOV     DPH,?V0 + 3
   \   00012D   A3           INC     DPTR
   \   00012E   A3           INC     DPTR
   \   00012F   E0           MOVX    A,@DPTR
   \   000130   25..         ADD     A,?V0 + 4
   \   000132   F5..         MOV     ?V0 + 0,A
   \   000134   A3           INC     DPTR
   \   000135   E0           MOVX    A,@DPTR
   \   000136   35..         ADDC    A,?V0 + 5
   \   000138   F5..         MOV     ?V0 + 1,A
   \   00013A   75..00       MOV     ?V0 + 2,#0x0
   \   00013D   78..         MOV     R0,#?V0 + 0
   \   00013F   12....       LCALL   ?PUSH_XSTACK_I_THREE
   \   000142   85....       MOV     ?V0 + 0,?V0 + 12
   \   000145   AC..         MOV     R4,?V0 + 0
   \   000147   7D00         MOV     R5,#0x0
   \   000149   EE           MOV     A,R6
   \   00014A   2402         ADD     A,#0x2
   \   00014C   FA           MOV     R2,A
   \   00014D   EF           MOV     A,R7
   \   00014E   3400         ADDC    A,#0x0
   \   000150   FB           MOV     R3,A
   \   000151   12....       LCALL   ??osal_memcpy?relay
   \   000154   7403         MOV     A,#0x3
   \   000156   12....       LCALL   ?DEALLOC_XSTACK8
   \   000159                ; Setup parameters for call to function MT_BuildAndSendZToolResponse
   \   000159   EE           MOV     A,R6
   \   00015A   FC           MOV     R4,A
   \   00015B   EF           MOV     A,R7
   \   00015C   FD           MOV     R5,A
   \   00015D   7402         MOV     A,#0x2
   \   00015F   25..         ADD     A,?V0 + 12
   \   000161   FB           MOV     R3,A
   \   000162   7A12         MOV     R2,#0x12
   \   000164   7964         MOV     R1,#0x64
   \   000166   12....       LCALL   ??MT_BuildAndSendZToolResponse?relay
   \   000169                ; Setup parameters for call to function osal_mem_free
   \   000169   EE           MOV     A,R6
   \   00016A   FA           MOV     R2,A
   \   00016B   EF           MOV     A,R7
   \   00016C   FB           MOV     R3,A
   \   00016D   12....       LCALL   ??osal_mem_free?relay
   \   000170   8089         SJMP    ??MT_AfDataRetrieve_6

   \                                 In  segment BANKED_CODE, align 1, keep-with-next
   \                     ?Subroutine25:
   \   000000   3400         ADDC    A,#0x0
   \   000002   F5..         MOV     ?V0 + 1,A
   \   000004   85..82       MOV     DPL,?V0 + 0
   \   000007   F583         MOV     DPH,A
   \   000009   22           RET
    842          
    843          /**************************************************************************************************
    844           * @fn          MT_AfDataStore
    845           *
    846           * @brief   Process AF Data Store command to incrementally store the data buffer for very large
    847           *          outgoing AF message.
    848           *
    849           * input parameters
    850           *
    851           * @param pBuf - pointer to the received buffer
    852           *
    853           * output parameters
    854           *
    855           * @param rtrn - AF-Status of the operation.
    856           *
    857           * @return      None.
    858           **************************************************************************************************
    859           */

   \                                 In  segment BANKED_CODE, align 1, keep-with-next
    860          void MT_AfDataStore(uint8 *pBuf)
   \                     MT_AfDataStore:
    861          {
   \   000000   74F5         MOV     A,#-0xb
   \   000002   12....       LCALL   ?BANKED_ENTER_XDATA
   \   000005                ; Saved register size: 11
   \   000005                ; Auto size: 1
   \   000005   74FF         MOV     A,#-0x1
   \   000007   12....       LCALL   ?ALLOC_XSTACK8
    862            uint16 idx;
    863            uint8 len, rtrn = afStatus_FAILED;
   \   00000A   85..82       MOV     DPL,?XSP + 0
   \   00000D   85..83       MOV     DPH,?XSP + 1
   \   000010   7401         MOV     A,#0x1
   \   000012   F0           MOVX    @DPTR,A
    864          
    865            pBuf += MT_RPC_FRAME_HDR_SZ;
   \   000013   EA           MOV     A,R2
   \   000014   2403         ADD     A,#0x3
   \   000016   FA           MOV     R2,A
   \   000017   EB           MOV     A,R3
   \   000018   3400         ADDC    A,#0x0
   \   00001A   FB           MOV     R3,A
    866            idx = BUILD_UINT16(pBuf[0], pBuf[1]);
   \   00001B   8A82         MOV     DPL,R2
   \   00001D   8B83         MOV     DPH,R3
   \   00001F   E0           MOVX    A,@DPTR
   \   000020   FC           MOV     R4,A
   \   000021   A3           INC     DPTR
   \   000022   E0           MOVX    A,@DPTR
   \   000023   F9           MOV     R1,A
   \   000024   EC           MOV     A,R4
   \   000025   2400         ADD     A,#0x0
   \   000027   FE           MOV     R6,A
   \   000028   E4           CLR     A
   \   000029   39           ADDC    A,R1
   \   00002A   FF           MOV     R7,A
    867            len = pBuf[2];
   \   00002B   8A82         MOV     DPL,R2
   \   00002D   8B83         MOV     DPH,R3
   \   00002F   A3           INC     DPTR
   \   000030   A3           INC     DPTR
   \   000031   E0           MOVX    A,@DPTR
   \   000032   FC           MOV     R4,A
    868            pBuf += 3;
   \   000033   EA           MOV     A,R2
   \   000034   2403         ADD     A,#0x3
   \   000036   FA           MOV     R2,A
   \   000037   EB           MOV     A,R3
   \   000038   3400         ADDC    A,#0x0
   \   00003A   FB           MOV     R3,A
    869          
    870            if (pMtAfDataReq == NULL)
   \   00003B   12....       LCALL   ?Subroutine2 & 0xFFFF
   \                     ??CrossCallReturnLabel_97:
   \   00003E   700B         JNZ     ??MT_AfDataStore_0
    871            {
    872              rtrn = afStatus_MEM_FAIL;
   \   000040   85..82       MOV     DPL,?XSP + 0
   \   000043   85..83       MOV     DPH,?XSP + 1
   \   000046   7410         MOV     A,#0x10
   \   000048   02....       LJMP    ??MT_AfDataStore_1 & 0xFFFF
    873            }
    874            else if (len == 0)  // Indication to send the message.
   \                     ??MT_AfDataStore_0:
   \   00004B   EC           MOV     A,R4
   \   00004C   705E         JNZ     ??MT_AfDataStore_2
    875            {
    876              rtrn = AF_DataRequest(&(pMtAfDataReq->dstAddr), pMtAfDataReq->epDesc, pMtAfDataReq->cId,
    877                                      pMtAfDataReq->dataLen,  pMtAfDataReq->data,
    878                                    &(pMtAfDataReq->transId), pMtAfDataReq->txOpts, pMtAfDataReq->radius);
   \   00004E                ; Setup parameters for call to function AF_DataRequest
   \   00004E   12....       LCALL   ?Subroutine12 & 0xFFFF
   \                     ??CrossCallReturnLabel_22:
   \   000051   E0           MOVX    A,@DPTR
   \   000052   F5..         MOV     ?V0 + 0,A
   \   000054   78..         MOV     R0,#?V0 + 0
   \   000056   12....       LCALL   ?PUSH_XSTACK_I_ONE
   \   000059   90....       MOV     DPTR,#pMtAfDataReq
   \   00005C   E0           MOVX    A,@DPTR
   \   00005D   2414         ADD     A,#0x14
   \   00005F   F5..         MOV     ?V0 + 0,A
   \   000061   A3           INC     DPTR
   \   000062   E0           MOVX    A,@DPTR
   \   000063   3400         ADDC    A,#0x0
   \   000065   F5..         MOV     ?V0 + 1,A
   \   000067   78..         MOV     R0,#?V0 + 0
   \   000069   12....       LCALL   ?PUSH_XSTACK_I_TWO
   \   00006C   12....       LCALL   ?Subroutine13 & 0xFFFF
   \                     ??CrossCallReturnLabel_24:
   \   00006F   12....       LCALL   ?PUSH_XSTACK8_X_TWO
   \   000072   12....       LCALL   ?Subroutine10 & 0xFFFF
   \                     ??CrossCallReturnLabel_18:
   \   000075   12....       LCALL   ?PUSH_XSTACK8_X_TWO
   \   000078   12....       LCALL   ?Subroutine9 & 0xFFFF
   \                     ??CrossCallReturnLabel_16:
   \   00007B   12....       LCALL   ?PUSH_XSTACK8_X_TWO
   \   00007E   12....       LCALL   ?Subroutine11 & 0xFFFF
   \                     ??CrossCallReturnLabel_20:
   \   000081   E0           MOVX    A,@DPTR
   \   000082   F9           MOV     R1,A
   \   000083   12....       LCALL   ?Subroutine8 & 0xFFFF
   \                     ??CrossCallReturnLabel_14:
   \   000086   E0           MOVX    A,@DPTR
   \   000087   FC           MOV     R4,A
   \   000088   A3           INC     DPTR
   \   000089   E0           MOVX    A,@DPTR
   \   00008A   FD           MOV     R5,A
   \   00008B   12....       LCALL   ?Subroutine16 & 0xFFFF
   \                     ??CrossCallReturnLabel_30:
   \   00008E   12....       LCALL   ??AF_DataRequest?relay
   \   000091   7409         MOV     A,#0x9
   \   000093   12....       LCALL   ?DEALLOC_XSTACK8
   \   000096   E9           MOV     A,R1
   \   000097   85..82       MOV     DPL,?XSP + 0
   \   00009A   85..83       MOV     DPH,?XSP + 1
   \   00009D   F0           MOVX    @DPTR,A
    879              (void)osal_mem_free(pMtAfDataReq);
   \   00009E                ; Setup parameters for call to function osal_mem_free
   \   00009E   12....       LCALL   ?Subroutine15 & 0xFFFF
   \                     ??CrossCallReturnLabel_108:
   \   0000A1   12....       LCALL   ??osal_mem_free?relay
    880              pMtAfDataReq = NULL;
   \   0000A4   90....       MOV     DPTR,#pMtAfDataReq
   \   0000A7   E4           CLR     A
   \   0000A8   F0           MOVX    @DPTR,A
   \   0000A9   A3           INC     DPTR
   \   0000AA   8027         SJMP    ??MT_AfDataStore_1
    881            }
    882            else
    883            {
    884              (void)osal_memcpy(pMtAfDataReq->data+idx, pBuf, len);
   \                     ??MT_AfDataStore_2:
   \   0000AC                ; Setup parameters for call to function osal_memcpy
   \   0000AC   8A..         MOV     ?V0 + 0,R2
   \   0000AE   8B..         MOV     ?V0 + 1,R3
   \   0000B0   75..00       MOV     ?V0 + 2,#0x0
   \   0000B3   78..         MOV     R0,#?V0 + 0
   \   0000B5   12....       LCALL   ?PUSH_XSTACK_I_THREE
   \   0000B8   7D00         MOV     R5,#0x0
   \   0000BA   12....       LCALL   ?Subroutine13 & 0xFFFF
   \                     ??CrossCallReturnLabel_25:
   \   0000BD   E0           MOVX    A,@DPTR
   \   0000BE   2E           ADD     A,R6
   \   0000BF   FA           MOV     R2,A
   \   0000C0   A3           INC     DPTR
   \   0000C1   E0           MOVX    A,@DPTR
   \   0000C2   3F           ADDC    A,R7
   \   0000C3   FB           MOV     R3,A
   \   0000C4   12....       LCALL   ??osal_memcpy?relay
   \   0000C7   7403         MOV     A,#0x3
   \   0000C9   12....       LCALL   ?DEALLOC_XSTACK8
    885              rtrn = afStatus_SUCCESS;
   \   0000CC   85..82       MOV     DPL,?XSP + 0
   \   0000CF   85..83       MOV     DPH,?XSP + 1
   \   0000D2   E4           CLR     A
    886            }
   \                     ??MT_AfDataStore_1:
   \   0000D3   12....       LCALL   ?Subroutine32 & 0xFFFF
    887          
    888            MT_BuildAndSendZToolResponse(((uint8)MT_RPC_CMD_SRSP | (uint8)MT_RPC_SYS_AF),
    889                                                                          MT_AF_DATA_STORE, 1, &rtrn);
   \                     ??CrossCallReturnLabel_66:
   \   0000D6   7B01         MOV     R3,#0x1
   \   0000D8   7A11         MOV     R2,#0x11
   \   0000DA   7964         MOV     R1,#0x64
   \   0000DC   12....       LCALL   ??MT_BuildAndSendZToolResponse?relay
    890          }
   \   0000DF   7401         MOV     A,#0x1
   \   0000E1   12....       LCALL   ?DEALLOC_XSTACK8
   \   0000E4   7F03         MOV     R7,#0x3
   \   0000E6   02....       LJMP    ?BANKED_LEAVE_XDATA

   \                                 In  segment BANK_RELAYS, align 1
   \                     ??MT_AfExec?relay:
   \   000000   12....       LCALL   ?BDISPATCH
   \   000003   ......       DC24    MT_AfExec

   \                                 In  segment BANK_RELAYS, align 1
   \                     ??MT_AfCommandProcessing?relay:
   \   000000   12....       LCALL   ?BDISPATCH
   \   000003   ......       DC24    MT_AfCommandProcessing

   \                                 In  segment BANK_RELAYS, align 1
   \                     ??MT_AfRegister?relay:
   \   000000   12....       LCALL   ?BDISPATCH
   \   000003   ......       DC24    MT_AfRegister

   \                                 In  segment BANK_RELAYS, align 1
   \                     ??MT_AfDataRequest?relay:
   \   000000   12....       LCALL   ?BDISPATCH
   \   000003   ......       DC24    MT_AfDataRequest

   \                                 In  segment BANK_RELAYS, align 1
   \                     ??MT_AfDataRequestSrcRtg?relay:
   \   000000   12....       LCALL   ?BDISPATCH
   \   000003   ......       DC24    MT_AfDataRequestSrcRtg

   \                                 In  segment BANK_RELAYS, align 1
   \                     ??MT_AfDataConfirm?relay:
   \   000000   12....       LCALL   ?BDISPATCH
   \   000003   ......       DC24    MT_AfDataConfirm

   \                                 In  segment BANK_RELAYS, align 1
   \                     ??MT_AfIncomingMsg?relay:
   \   000000   12....       LCALL   ?BDISPATCH
   \   000003   ......       DC24    MT_AfIncomingMsg

   \                                 In  segment BANK_RELAYS, align 1
   \                     ??MT_AfDataRetrieve?relay:
   \   000000   12....       LCALL   ?BDISPATCH
   \   000003   ......       DC24    MT_AfDataRetrieve

   \                                 In  segment BANK_RELAYS, align 1
   \                     ??MT_AfDataStore?relay:
   \   000000   12....       LCALL   ?BDISPATCH
   \   000003   ......       DC24    MT_AfDataStore
    891          
    892          /**************************************************************************************************
    893           * @fn          MT_AfAPSF_ConfigSet
    894           *
    895           * @brief       This function is the MT proxy for afAPSF_ConfigSet().
    896           *
    897           * input parameters
    898           *
    899           * @param       pBuf - Pointer to the received buffer.
    900           *
    901           * output parameters
    902           *
    903           * None.
    904           *
    905           * @return      None.
    906           */
    907          static void MT_AfAPSF_ConfigSet(uint8 *pBuf)
    908          {
    909            afAPSF_Config_t cfg = { pBuf[MT_RPC_POS_DAT0+1], pBuf[MT_RPC_POS_DAT0+2] };
    910            afStatus_t rtrn = afAPSF_ConfigSet(pBuf[MT_RPC_POS_DAT0], &cfg);
    911          
    912            MT_BuildAndSendZToolResponse(((uint8)MT_RPC_CMD_SRSP | (uint8)MT_RPC_SYS_AF),
    913                                                 MT_AF_APSF_CONFIG_SET, 1, (uint8 *)&rtrn);
    914          }
    915          
    916          /***************************************************************************************************
    917          ***************************************************************************************************/

   Maximum stack usage in bytes:

   ISTACK PSTACK XSTACK Function
   ------ ------ ------ --------
       1      0     12  MT_AfCommandProcessing
                          0 0 12 -> MT_AfDataRequest
                          0 0 12 -> MT_AfDataRequestSrcRtg
                          0 0 12 -> MT_AfDataRetrieve
                          0 0 12 -> MT_AfDataStore
                          0 0 12 -> MT_AfRegister
                          0 0 12 -> MT_BuildAndSendZToolResponse
                          0 0 12 -> afAPSF_ConfigSet
       3      0      3  MT_AfDataConfirm
                          2 0  3 -> MT_BuildAndSendZToolResponse
       1      0     57  MT_AfDataRequest
                          0 0 45 -> AF_DataRequest
                          0 0 36 -> MT_BuildAndSendZToolResponse
                          0 0 36 -> afFindEndPointDesc
                          0 0 36 -> osal_mem_alloc
                          0 0 39 -> osal_memcpy
                          0 0 36 -> osal_set_event
                          0 0 36 -> osal_start_timerEx
       1      0     58  MT_AfDataRequestSrcRtg
                          0 0 46 -> AF_DataRequestSrcRtg
                          0 0 34 -> MT_BuildAndSendZToolResponse
                          0 0 34 -> afFindEndPointDesc
                          0 0 34 -> osal_mem_alloc
                          0 0 34 -> osal_mem_free
                          0 0 34 -> osal_memset
       1      0     36  MT_AfDataRetrieve
                          0 0 21 -> MT_BuildAndSendZToolResponse
                          0 0 21 -> osal_mem_alloc
                          0 0 21 -> osal_mem_free
                          0 0 24 -> osal_memcpy
       1      0     33  MT_AfDataStore
                          0 0 21 -> AF_DataRequest
                          0 0 12 -> MT_BuildAndSendZToolResponse
                          0 0 12 -> osal_mem_free
                          0 0 15 -> osal_memcpy
       0      0      9  MT_AfExec
                          0 0  9 -> osal_mem_free
                          0 0  9 -> osal_set_event
                          0 0  9 -> osal_start_timerEx
       1      0     26  MT_AfIncomingMsg
                          0 0 23 -> MT_BuildAndSendZToolResponse
                          0 0 23 -> osal_mem_alloc
                          0 0 23 -> osal_mem_free
                          0 0 26 -> osal_memcpy
                          0 0 23 -> osal_set_event
                          0 0 23 -> osal_start_timerEx
       1      0     27  MT_AfRegister
                          0 0 15 -> MT_BuildAndSendZToolResponse
                          0 0 15 -> MT_BuildEndpointDesc
                          0 0 15 -> afRegister
                          0 0 15 -> osal_mem_alloc
                          0 0 15 -> osal_mem_free


   Segment part sizes:

   Bytes  Function/Label
   -----  --------------
       6  ??MT_AfCommandProcessing?relay
       6  ??MT_AfDataConfirm?relay
       6  ??MT_AfDataRequest?relay
       6  ??MT_AfDataRequestSrcRtg?relay
       6  ??MT_AfDataRetrieve?relay
       6  ??MT_AfDataStore?relay
       6  ??MT_AfExec?relay
       6  ??MT_AfIncomingMsg?relay
       6  ??MT_AfRegister?relay
      15  ??Subroutine43_0
       8  ??Subroutine44_0
      10  ??Subroutine45_0
       5  ??Subroutine46_0
       6  ??Subroutine47_0
       9  ??Subroutine48_0
       6  ??Subroutine49_0
       6  ??Subroutine50_0
       5  ??Subroutine51_0
       5  ?Subroutine0
       7  ?Subroutine1
       9  ?Subroutine10
       9  ?Subroutine11
       9  ?Subroutine12
      12  ?Subroutine13
       8  ?Subroutine14
       3  ?Subroutine15
      13  ?Subroutine16
      21  ?Subroutine17
      13  ?Subroutine18
       4  ?Subroutine19
       3  ?Subroutine2
       9  ?Subroutine20
       3  ?Subroutine21
       4  ?Subroutine22
      11  ?Subroutine23
       3  ?Subroutine24
      10  ?Subroutine25
      14  ?Subroutine26
       8  ?Subroutine27
      10  ?Subroutine28
       4  ?Subroutine29
      19  ?Subroutine3
      17  ?Subroutine30
       6  ?Subroutine31
      12  ?Subroutine32
       7  ?Subroutine33
       6  ?Subroutine34
      13  ?Subroutine35
       3  ?Subroutine36
       7  ?Subroutine37
       9  ?Subroutine38
       9  ?Subroutine39
       6  ?Subroutine4
       7  ?Subroutine40
       3  ?Subroutine41
       8  ?Subroutine42
       7  ?Subroutine5
       4  ?Subroutine6
      10  ?Subroutine7
       9  ?Subroutine8
       9  ?Subroutine9
     166  MT_AfCommandProcessing
      72  MT_AfDataConfirm
     625  MT_AfDataRequest
     388  MT_AfDataRequestSrcRtg
     370  MT_AfDataRetrieve
     233  MT_AfDataStore
     159  MT_AfExec
     607  MT_AfIncomingMsg
     139  MT_AfRegister
       2  pMtAfDataReq
       2  pMtAfInMsgList

 
 3 192 bytes in segment BANKED_CODE
    54 bytes in segment BANK_RELAYS
     4 bytes in segment XDATA_Z
 
 3 246 bytes of CODE  memory
     4 bytes of XDATA memory

Errors: none
Warnings: none
