///////////////////////////////////////////////////////////////////////////////
//                                                                            /
// IAR C/C++ Compiler V8.10.3.10338/W32 for 8051        25/Jul/2015  11:21:18 /
// Copyright 2004-2011 IAR Systems AB.                                        /
//                                                                            /
//    Core               =  plain                                             /
//    Code model         =  banked                                            /
//    Data model         =  large                                             /
//    Calling convention =  xdata reentrant                                   /
//    Constant location  =  data_rom                                          /
//    Dptr setup         =  1,16                                              /
//    Source file        =  C:\ZStack-CC2530-2.5.1a\Projects\zstack\Samples\0 /
//                          6GPS\Source\GPS.c                                 /
//    Command line       =  -f C:\ZStack-CC2530-2.5.1a\Projects\zstack\Sample /
//                          s\06GPS\CC2530DB\..\..\..\Tools\CC2530DB\f8wEndev /
//                          .cfg (-DCPU32MHZ -DROOT=__near_func               /
//                          -DMAC_CFG_TX_DATA_MAX=3 -DMAC_CFG_TX_MAX=6        /
//                          -DMAC_CFG_RX_MAX=3) -f C:\ZStack-CC2530-2.5.1a\Pr /
//                          ojects\zstack\Samples\06GPS\CC2530DB\..\..\..\Too /
//                          ls\CC2530DB\f8wConfig.cfg (-DZIGBEEPRO            /
//                          -DSECURE=0 -DZG_SECURE_DYNAMIC=0 -DREFLECTOR      /
//                          -DDEFAULT_CHANLIST=0x00100000                     /
//                          -DZDAPP_CONFIG_PAN_ID=0xFFFF                      /
//                          -DNWK_START_DELAY=100 -DEXTENDED_JOINING_RANDOM_M /
//                          ASK=0x007F -DBEACON_REQUEST_DELAY=100             /
//                          -DBEACON_REQ_DELAY_MASK=0x00FF                    /
//                          -DLINK_STATUS_JITTER_MASK=0x007F                  /
//                          -DROUTE_EXPIRY_TIME=30 -DAPSC_ACK_WAIT_DURATION_P /
//                          OLLED=3000 -DNWK_INDIRECT_MSG_TIMEOUT=7           /
//                          -DMAX_RREQ_ENTRIES=8 -DAPSC_MAX_FRAME_RETRIES=3   /
//                          -DNWK_MAX_DATA_RETRIES=2                          /
//                          -DMAX_POLL_FAILURE_RETRIES=2 -DMAX_BCAST=9        /
//                          -DAPS_MAX_GROUPS=16 -DMAX_RTG_ENTRIES=40          /
//                          -DNWK_MAX_BINDING_ENTRIES=4                       /
//                          -DMAX_BINDING_CLUSTER_IDS=4                       /
//                          "-DDEFAULT_KEY={0x01, 0x03, 0x05, 0x07, 0x09,     /
//                          0x0B, 0x0D, 0x0F, 0x00, 0x02, 0x04, 0x06, 0x08,   /
//                          0x0A, 0x0C, 0x0D}" -DMAC_MAX_FRAME_SIZE=116       /
//                          -DZDNWKMGR_MIN_TRANSMISSIONS=20 "-DCONST=const    /
//                          __code" -DGENERIC=__generic                       /
//                          -DRFD_RCVC_ALWAYS_ON=FALSE -DPOLL_RATE=1000       /
//                          -DQUEUED_POLL_RATE=100 -DRESPONSE_POLL_RATE=100)  /
//                          -DREJOIN_POLL_RATE=440 C:\ZStack-CC2530-2.5.1a\Pr /
//                          ojects\zstack\Samples\06GPS\Source\GPS.c -D       /
//                          NWK_AUTO_POLL -D ZTOOL_P1 -D MT_TASK -D           /
//                          MT_SYS_FUNC -D MT_ZDO_FUNC -D                     /
//                          LCD_SUPPORTED=DEBUG -D xPOWER_SAVING -lC          /
//                          C:\ZStack-CC2530-2.5.1a\Projects\zstack\Samples\0 /
//                          6GPS\CC2530DB\EndDeviceEB\List\ -lA               /
//                          C:\ZStack-CC2530-2.5.1a\Projects\zstack\Samples\0 /
//                          6GPS\CC2530DB\EndDeviceEB\List\ --diag_suppress   /
//                          Pe001,Pa010 -o C:\ZStack-CC2530-2.5.1a\Projects\z /
//                          stack\Samples\06GPS\CC2530DB\EndDeviceEB\Obj\ -e  /
//                          --no_code_motion --debug --core=plain             /
//                          --dptr=16,1 --data_model=large                    /
//                          --code_model=banked --calling_convention=xdata_re /
//                          entrant --place_constants=data_rom                /
//                          --nr_virtual_regs 16 -I                           /
//                          C:\ZStack-CC2530-2.5.1a\Projects\zstack\Samples\0 /
//                          6GPS\CC2530DB\ -I C:\ZStack-CC2530-2.5.1a\Project /
//                          s\zstack\Samples\06GPS\CC2530DB\..\Source\ -I     /
//                          C:\ZStack-CC2530-2.5.1a\Projects\zstack\Samples\0 /
//                          6GPS\CC2530DB\..\..\..\ZMain\TI2530DB\ -I         /
//                          C:\ZStack-CC2530-2.5.1a\Projects\zstack\Samples\0 /
//                          6GPS\CC2530DB\..\..\..\..\..\Components\hal\inclu /
//                          de\ -I C:\ZStack-CC2530-2.5.1a\Projects\zstack\Sa /
//                          mples\06GPS\CC2530DB\..\..\..\..\..\Components\ha /
//                          l\target\CC2530EB\ -I C:\ZStack-CC2530-2.5.1a\Pro /
//                          jects\zstack\Samples\06GPS\CC2530DB\..\..\..\..\. /
//                          .\Components\mac\include\ -I                      /
//                          C:\ZStack-CC2530-2.5.1a\Projects\zstack\Samples\0 /
//                          6GPS\CC2530DB\..\..\..\..\..\Components\mac\high_ /
//                          level\ -I C:\ZStack-CC2530-2.5.1a\Projects\zstack /
//                          \Samples\06GPS\CC2530DB\..\..\..\..\..\Components /
//                          \mac\low_level\srf04\ -I                          /
//                          C:\ZStack-CC2530-2.5.1a\Projects\zstack\Samples\0 /
//                          6GPS\CC2530DB\..\..\..\..\..\Components\mac\low_l /
//                          evel\srf04\single_chip\ -I                        /
//                          C:\ZStack-CC2530-2.5.1a\Projects\zstack\Samples\0 /
//                          6GPS\CC2530DB\..\..\..\..\..\Components\mt\ -I    /
//                          C:\ZStack-CC2530-2.5.1a\Projects\zstack\Samples\0 /
//                          6GPS\CC2530DB\..\..\..\..\..\Components\osal\incl /
//                          ude\ -I C:\ZStack-CC2530-2.5.1a\Projects\zstack\S /
//                          amples\06GPS\CC2530DB\..\..\..\..\..\Components\s /
//                          ervices\saddr\ -I C:\ZStack-CC2530-2.5.1a\Project /
//                          s\zstack\Samples\06GPS\CC2530DB\..\..\..\..\..\Co /
//                          mponents\services\sdata\ -I                       /
//                          C:\ZStack-CC2530-2.5.1a\Projects\zstack\Samples\0 /
//                          6GPS\CC2530DB\..\..\..\..\..\Components\stack\af\ /
//                           -I C:\ZStack-CC2530-2.5.1a\Projects\zstack\Sampl /
//                          es\06GPS\CC2530DB\..\..\..\..\..\Components\stack /
//                          \nwk\ -I C:\ZStack-CC2530-2.5.1a\Projects\zstack\ /
//                          Samples\06GPS\CC2530DB\..\..\..\..\..\Components\ /
//                          stack\sapi\ -I C:\ZStack-CC2530-2.5.1a\Projects\z /
//                          stack\Samples\06GPS\CC2530DB\..\..\..\..\..\Compo /
//                          nents\stack\sec\ -I C:\ZStack-CC2530-2.5.1a\Proje /
//                          cts\zstack\Samples\06GPS\CC2530DB\..\..\..\..\..\ /
//                          Components\stack\sys\ -I                          /
//                          C:\ZStack-CC2530-2.5.1a\Projects\zstack\Samples\0 /
//                          6GPS\CC2530DB\..\..\..\..\..\Components\stack\zdo /
//                          \ -I C:\ZStack-CC2530-2.5.1a\Projects\zstack\Samp /
//                          les\06GPS\CC2530DB\..\..\..\..\..\Components\zmac /
//                          \ -I C:\ZStack-CC2530-2.5.1a\Projects\zstack\Samp /
//                          les\06GPS\CC2530DB\..\..\..\..\..\Components\zmac /
//                          \f8w\ -Ohz                                        /
//    List file          =  C:\ZStack-CC2530-2.5.1a\Projects\zstack\Samples\0 /
//                          6GPS\CC2530DB\EndDeviceEB\List\GPS.s51            /
//                                                                            /
//                                                                            /
///////////////////////////////////////////////////////////////////////////////

        NAME GPS

        RTMODEL "__SystemLibrary", "CLib"
        RTMODEL "__calling_convention", "xdata_reentrant"
        RTMODEL "__code_model", "banked"
        RTMODEL "__core", "plain"
        RTMODEL "__data_model", "large"
        RTMODEL "__dptr_size", "16"
        RTMODEL "__extended_stack", "disabled"
        RTMODEL "__location_for_constants", "data"
        RTMODEL "__number_of_dptrs", "1"
        RTMODEL "__rt_version", "1"

        RSEG DOVERLAY:DATA:NOROOT(0)
        RSEG IOVERLAY:IDATA:NOROOT(0)
        RSEG ISTACK:IDATA:NOROOT(0)
        RSEG PSTACK:XDATA:NOROOT(0)
        RSEG XSTACK:XDATA:NOROOT(0)

        EXTERN ?ALLOC_XSTACK8
        EXTERN ?BANKED_ENTER_XDATA
        EXTERN ?BANKED_LEAVE_XDATA
        EXTERN ?BDISPATCH
        EXTERN ?BRET
        EXTERN ?DEALLOC_XSTACK8
        EXTERN ?MOVE_LONG8_XDATA_XDATA
        EXTERN ?PUSH_XSTACK_I_ONE
        EXTERN ?PUSH_XSTACK_I_TWO
        EXTERN ?V0
        EXTERN ?XSP
        EXTERN ?XSTACK_DISP0_8
        EXTERN __INIT_XDATA_I
        EXTERN __INIT_XDATA_Z

        PUBLIC ??GpsMeasurement_Init?relay
        FUNCTION ??GpsMeasurement_Init?relay,0203H
        PUBLIC ??GpsMeasurement_ProcessEvent?relay
        FUNCTION ??GpsMeasurement_ProcessEvent?relay,0203H
        PUBLIC ??Gps_Init?relay
        FUNCTION ??Gps_Init?relay,0203H
        PUBLIC ??Gps_ProcessEvent?relay
        FUNCTION ??Gps_ProcessEvent?relay,0203H
        PUBLIC ??Gps_SendTheMessage?relay
        FUNCTION ??Gps_SendTheMessage?relay,0203H
        PUBLIC ??handle?relay
        FUNCTION ??handle?relay,0203H
        PUBLIC GaoDu
        PUBLIC GpsMeasurement_Init
        FUNCTION GpsMeasurement_Init,021203H
        ARGFRAME XSTACK, 0, STACK
        LOCFRAME XSTACK, 9, STACK
        PUBLIC GpsMeasurement_ProcessEvent
        FUNCTION GpsMeasurement_ProcessEvent,021203H
        ARGFRAME XSTACK, 0, STACK
        LOCFRAME XSTACK, 9, STACK
        PUBLIC Gps_ClusterList
        PUBLIC Gps_Init
        FUNCTION Gps_Init,021203H
        ARGFRAME XSTACK, 0, STACK
        LOCFRAME XSTACK, 38, STACK
        PUBLIC Gps_NwkState
        PUBLIC Gps_ProcessEvent
        FUNCTION Gps_ProcessEvent,021203H
        ARGFRAME XSTACK, 0, STACK
        LOCFRAME XSTACK, 12, STACK
        PUBLIC Gps_SendTheMessage
        FUNCTION Gps_SendTheMessage,021203H
        ARGFRAME XSTACK, 12, STACK
        ARGFRAME IOVERLAY, 0, STATIC
        ARGFRAME DOVERLAY, 0, STATIC
        LOCFRAME ISTACK, 2, STACK
        LOCFRAME XSTACK, 64, STACK
        PUBLIC Gps_SimpleDesc
        PUBLIC Gps_TaskID
        PUBLIC Gps_TransID
        PUBLIC Gps_Uart_TaskID
        PUBLIC Gps_Uart_TransID
        PUBLIC Gps_epDesc
        PUBLIC JiBie
        PUBLIC JingDu
        PUBLIC RXTXflag
        PUBLIC Recdata
        PUBLIC Recdata_GPGGA
        PUBLIC Recdata_GPGGA_start
        PUBLIC TempDATA
        PUBLIC UTC
        PUBLIC WeiDu
        PUBLIC WeiXing
        PUBWEAK _A_P1
        PUBLIC check
        PUBLIC datanumber
        PUBLIC flag
        PUBLIC handle
        FUNCTION handle,0201H
        ARGFRAME XSTACK, 9, STACK
        ARGFRAME IOVERLAY, 0, STATIC
        ARGFRAME DOVERLAY, 0, STATIC
        LOCFRAME ISTACK, 3, STACK
        PUBLIC position
        PUBLIC stringlen
        PUBLIC temp
        
        CFI Names cfiNames0
        CFI StackFrame CFA_SP SP IDATA
        CFI StackFrame CFA_PSP16 PSP16 XDATA
        CFI StackFrame CFA_XSP16 XSP16 XDATA
        CFI StaticOverlayFrame CFA_IOVERLAY IOVERLAY
        CFI StaticOverlayFrame CFA_DOVERLAY DOVERLAY
        CFI Resource `PSW.CY`:1, `B.BR0`:1, `B.BR1`:1, `B.BR2`:1, `B.BR3`:1
        CFI Resource `B.BR4`:1, `B.BR5`:1, `B.BR6`:1, `B.BR7`:1, `VB.BR8`:1
        CFI Resource `VB.BR9`:1, `VB.BR10`:1, `VB.BR11`:1, `VB.BR12`:1
        CFI Resource `VB.BR13`:1, `VB.BR14`:1, `VB.BR15`:1, VB:8, B:8, A:8
        CFI Resource PSW:8, DPL0:8, DPH0:8, R0:8, R1:8, R2:8, R3:8, R4:8, R5:8
        CFI Resource R6:8, R7:8, V0:8, V1:8, V2:8, V3:8, V4:8, V5:8, V6:8, V7:8
        CFI Resource V8:8, V9:8, V10:8, V11:8, V12:8, V13:8, V14:8, V15:8, SP:8
        CFI Resource PSPH:8, PSPL:8, PSP16:16, XSPH:8, XSPL:8, XSP16:16
        CFI VirtualResource ?RET:24
        CFI Resource ?BRET_EXT:8
        CFI VirtualResource ?RET_HIGH:8, ?RET_LOW:8
        CFI ResourceParts PSP16 PSPH, PSPL
        CFI ResourceParts XSP16 XSPH, XSPL
        CFI ResourceParts ?RET ?BRET_EXT, ?RET_HIGH, ?RET_LOW
        CFI EndNames cfiNames0
        
        CFI Common cfiCommon0 Using cfiNames0
        CFI CodeAlign 1
        CFI DataAlign -1
        CFI ReturnAddress ?RET CODE
        CFI CFA_DOVERLAY Used
        CFI CFA_IOVERLAY Used
        CFI CFA_SP SP+-3
        CFI CFA_PSP16 PSP16+0
        CFI CFA_XSP16 XSP16+0
        CFI `PSW.CY` SameValue
        CFI `B.BR0` SameValue
        CFI `B.BR1` SameValue
        CFI `B.BR2` SameValue
        CFI `B.BR3` SameValue
        CFI `B.BR4` SameValue
        CFI `B.BR5` SameValue
        CFI `B.BR6` SameValue
        CFI `B.BR7` SameValue
        CFI `VB.BR8` SameValue
        CFI `VB.BR9` SameValue
        CFI `VB.BR10` SameValue
        CFI `VB.BR11` SameValue
        CFI `VB.BR12` SameValue
        CFI `VB.BR13` SameValue
        CFI `VB.BR14` SameValue
        CFI `VB.BR15` SameValue
        CFI VB SameValue
        CFI B Undefined
        CFI A Undefined
        CFI PSW SameValue
        CFI DPL0 SameValue
        CFI DPH0 SameValue
        CFI R0 Undefined
        CFI R1 Undefined
        CFI R2 Undefined
        CFI R3 Undefined
        CFI R4 Undefined
        CFI R5 Undefined
        CFI R6 SameValue
        CFI R7 SameValue
        CFI V0 SameValue
        CFI V1 SameValue
        CFI V2 SameValue
        CFI V3 SameValue
        CFI V4 SameValue
        CFI V5 SameValue
        CFI V6 SameValue
        CFI V7 SameValue
        CFI V8 SameValue
        CFI V9 SameValue
        CFI V10 SameValue
        CFI V11 SameValue
        CFI V12 SameValue
        CFI V13 SameValue
        CFI V14 SameValue
        CFI V15 SameValue
        CFI PSPH Undefined
        CFI PSPL Undefined
        CFI XSPH Undefined
        CFI XSPL Undefined
        CFI ?RET Concat
        CFI ?BRET_EXT Frame(CFA_SP, 3)
        CFI ?RET_HIGH Frame(CFA_SP, 2)
        CFI ?RET_LOW Frame(CFA_SP, 1)
        CFI EndCommon cfiCommon0
        
        
        CFI Common cfiCommon1 Using cfiNames0
        CFI CodeAlign 1
        CFI DataAlign -1
        CFI ReturnAddress ?RET CODE
        CFI CFA_DOVERLAY Used
        CFI CFA_IOVERLAY Used
        CFI CFA_SP SP+-2
        CFI CFA_PSP16 PSP16+0
        CFI CFA_XSP16 XSP16+0
        CFI `PSW.CY` SameValue
        CFI `B.BR0` SameValue
        CFI `B.BR1` SameValue
        CFI `B.BR2` SameValue
        CFI `B.BR3` SameValue
        CFI `B.BR4` SameValue
        CFI `B.BR5` SameValue
        CFI `B.BR6` SameValue
        CFI `B.BR7` SameValue
        CFI `VB.BR8` SameValue
        CFI `VB.BR9` SameValue
        CFI `VB.BR10` SameValue
        CFI `VB.BR11` SameValue
        CFI `VB.BR12` SameValue
        CFI `VB.BR13` SameValue
        CFI `VB.BR14` SameValue
        CFI `VB.BR15` SameValue
        CFI VB SameValue
        CFI B SameValue
        CFI A SameValue
        CFI PSW SameValue
        CFI DPL0 SameValue
        CFI DPH0 SameValue
        CFI R0 SameValue
        CFI R1 SameValue
        CFI R2 SameValue
        CFI R3 SameValue
        CFI R4 SameValue
        CFI R5 SameValue
        CFI R6 SameValue
        CFI R7 SameValue
        CFI V0 SameValue
        CFI V1 SameValue
        CFI V2 SameValue
        CFI V3 SameValue
        CFI V4 SameValue
        CFI V5 SameValue
        CFI V6 SameValue
        CFI V7 SameValue
        CFI V8 SameValue
        CFI V9 SameValue
        CFI V10 SameValue
        CFI V11 SameValue
        CFI V12 SameValue
        CFI V13 SameValue
        CFI V14 SameValue
        CFI V15 SameValue
        CFI PSPH Undefined
        CFI PSPL Undefined
        CFI XSPH Undefined
        CFI XSPL Undefined
        CFI ?RET Concat
        CFI ?BRET_EXT SameValue
        CFI ?RET_HIGH Frame(CFA_SP, 2)
        CFI ?RET_LOW Frame(CFA_SP, 1)
        CFI EndCommon cfiCommon1
        
MT_UartInit         SYMBOL "MT_UartInit"
MT_UartRegisterTaskID SYMBOL "MT_UartRegisterTaskID"
afRegister          SYMBOL "afRegister"
HalUARTOpen         SYMBOL "HalUARTOpen"
osal_msg_receive    SYMBOL "osal_msg_receive"
osal_set_event      SYMBOL "osal_set_event"
osal_msg_deallocate SYMBOL "osal_msg_deallocate"
osal_start_timerEx  SYMBOL "osal_start_timerEx"
AF_DataRequest      SYMBOL "AF_DataRequest"
RegisterForKeys     SYMBOL "RegisterForKeys"
HalUARTRead         SYMBOL "HalUARTRead"
??AF_DataRequest?relay SYMBOL "?relay", AF_DataRequest
??HalUARTOpen?relay SYMBOL "?relay", HalUARTOpen
??HalUARTRead?relay SYMBOL "?relay", HalUARTRead
??MT_UartInit?relay SYMBOL "?relay", MT_UartInit
??MT_UartRegisterTaskID?relay SYMBOL "?relay", MT_UartRegisterTaskID
??RegisterForKeys?relay SYMBOL "?relay", RegisterForKeys
??afRegister?relay  SYMBOL "?relay", afRegister
??osal_msg_deallocate?relay SYMBOL "?relay", osal_msg_deallocate
??osal_msg_receive?relay SYMBOL "?relay", osal_msg_receive
??osal_set_event?relay SYMBOL "?relay", osal_set_event
??osal_start_timerEx?relay SYMBOL "?relay", osal_start_timerEx
GpsMeasurement_Init SYMBOL "GpsMeasurement_Init"
??GpsMeasurement_Init?relay SYMBOL "?relay", GpsMeasurement_Init
GpsMeasurement_ProcessEvent SYMBOL "GpsMeasurement_ProcessEvent"
??GpsMeasurement_ProcessEvent?relay SYMBOL "?relay", GpsMeasurement_ProcessEvent
Gps_Init            SYMBOL "Gps_Init"
??Gps_Init?relay    SYMBOL "?relay", Gps_Init
Gps_ProcessEvent    SYMBOL "Gps_ProcessEvent"
??Gps_ProcessEvent?relay SYMBOL "?relay", Gps_ProcessEvent
Gps_SendTheMessage  SYMBOL "Gps_SendTheMessage"
??Gps_SendTheMessage?relay SYMBOL "?relay", Gps_SendTheMessage
handle              SYMBOL "handle"
??handle?relay      SYMBOL "?relay", handle

        EXTERN MT_UartInit
        FUNCTION MT_UartInit,0202H
        ARGFRAME ISTACK, 0, STACK
        ARGFRAME PSTACK, 0, STACK
        ARGFRAME XSTACK, 38, STACK
        ARGFRAME IOVERLAY, 0, STATIC
        ARGFRAME DOVERLAY, 0, STATIC
        EXTERN MT_UartRegisterTaskID
        FUNCTION MT_UartRegisterTaskID,0202H
        ARGFRAME ISTACK, 0, STACK
        ARGFRAME PSTACK, 0, STACK
        ARGFRAME XSTACK, 38, STACK
        ARGFRAME IOVERLAY, 0, STATIC
        ARGFRAME DOVERLAY, 0, STATIC
        EXTERN afRegister
        FUNCTION afRegister,0202H
        ARGFRAME ISTACK, 0, STACK
        ARGFRAME PSTACK, 0, STACK
        ARGFRAME XSTACK, 38, STACK
        ARGFRAME IOVERLAY, 0, STATIC
        ARGFRAME DOVERLAY, 0, STATIC
        EXTERN HalUARTOpen
        FUNCTION HalUARTOpen,0202H
        ARGFRAME ISTACK, 0, STACK
        ARGFRAME PSTACK, 0, STACK
        ARGFRAME XSTACK, 38, STACK
        ARGFRAME IOVERLAY, 0, STATIC
        ARGFRAME DOVERLAY, 0, STATIC
        EXTERN osal_msg_receive
        FUNCTION osal_msg_receive,0202H
        ARGFRAME ISTACK, 0, STACK
        ARGFRAME PSTACK, 0, STACK
        ARGFRAME XSTACK, 12, STACK
        ARGFRAME IOVERLAY, 0, STATIC
        ARGFRAME DOVERLAY, 0, STATIC
        EXTERN osal_set_event
        FUNCTION osal_set_event,0202H
        ARGFRAME ISTACK, 0, STACK
        ARGFRAME PSTACK, 0, STACK
        ARGFRAME XSTACK, 12, STACK
        ARGFRAME IOVERLAY, 0, STATIC
        ARGFRAME DOVERLAY, 0, STATIC
        EXTERN osal_msg_deallocate
        FUNCTION osal_msg_deallocate,0202H
        ARGFRAME ISTACK, 0, STACK
        ARGFRAME PSTACK, 0, STACK
        ARGFRAME XSTACK, 12, STACK
        ARGFRAME IOVERLAY, 0, STATIC
        ARGFRAME DOVERLAY, 0, STATIC
        EXTERN osal_start_timerEx
        FUNCTION osal_start_timerEx,0202H
        ARGFRAME ISTACK, 0, STACK
        ARGFRAME PSTACK, 0, STACK
        ARGFRAME XSTACK, 12, STACK
        ARGFRAME IOVERLAY, 0, STATIC
        ARGFRAME DOVERLAY, 0, STATIC
        EXTERN AF_DataRequest
        FUNCTION AF_DataRequest,0202H
        ARGFRAME ISTACK, 0, STACK
        ARGFRAME PSTACK, 0, STACK
        ARGFRAME XSTACK, 64, STACK
        ARGFRAME IOVERLAY, 0, STATIC
        ARGFRAME DOVERLAY, 0, STATIC
        EXTERN RegisterForKeys
        FUNCTION RegisterForKeys,0202H
        ARGFRAME ISTACK, 0, STACK
        ARGFRAME PSTACK, 0, STACK
        ARGFRAME XSTACK, 9, STACK
        ARGFRAME IOVERLAY, 0, STATIC
        ARGFRAME DOVERLAY, 0, STATIC
        EXTERN HalUARTRead
        FUNCTION HalUARTRead,0202H
        ARGFRAME ISTACK, 0, STACK
        ARGFRAME PSTACK, 0, STACK
        ARGFRAME XSTACK, 9, STACK
        ARGFRAME IOVERLAY, 0, STATIC
        ARGFRAME DOVERLAY, 0, STATIC
        EXTERN ??AF_DataRequest?relay
        FUNCTION ??AF_DataRequest?relay,00H
        EXTERN ??HalUARTOpen?relay
        FUNCTION ??HalUARTOpen?relay,00H
        EXTERN ??HalUARTRead?relay
        FUNCTION ??HalUARTRead?relay,00H
        EXTERN ??MT_UartInit?relay
        FUNCTION ??MT_UartInit?relay,00H
        EXTERN ??MT_UartRegisterTaskID?relay
        FUNCTION ??MT_UartRegisterTaskID?relay,00H
        EXTERN ??RegisterForKeys?relay
        FUNCTION ??RegisterForKeys?relay,00H
        EXTERN ??afRegister?relay
        FUNCTION ??afRegister?relay,00H
        EXTERN ??osal_msg_deallocate?relay
        FUNCTION ??osal_msg_deallocate?relay,00H
        EXTERN ??osal_msg_receive?relay
        FUNCTION ??osal_msg_receive?relay,00H
        EXTERN ??osal_set_event?relay
        FUNCTION ??osal_set_event?relay,00H
        EXTERN ??osal_start_timerEx?relay
        FUNCTION ??osal_start_timerEx?relay,00H

// C:\ZStack-CC2530-2.5.1a\Projects\zstack\Samples\06GPS\Source\GPS.c
//    1 /******************************************************************************
//    2   Filename:       Gps.c
//    3   Revised:        $Date: 2012-03-07 01:04:58 -0800 (Wed, 07 Mar 2012) $
//    4   Revision:       $Revision: 29656 $
//    5 
//    6   Description:    Generic Application (no Profile).
//    7 
//    8 
//    9   Copyright 2004-2012 Texas Instruments Incorporated. All rights reserved.
//   10 
//   11   IMPORTANT: Your use of this Software is limited to those specific rights
//   12   granted under the terms of a software license agreement between the user
//   13   who downloaded the software, his/her employer (which must be your employer)
//   14   and Texas Instruments Incorporated (the "License"). You may not use this
//   15   Software unless you agree to abide by the terms of the License. The License
//   16   limits your use, and you acknowledge, that the Software may not be modified,
//   17   copied or distributed unless embedded on a Texas Instruments microcontroller
//   18   or used solely and exclusively in conjunction with a Texas Instruments radio
//   19   frequency transceiver, which is integrated into your product. Other than for
//   20   the foregoing purpose, you may not use, reproduce, copy, prepare derivative
//   21   works of, modify, distribute, perform, display or sell this Software and/or
//   22   its documentation for any purpose.
//   23 
//   24   YOU FURTHER ACKNOWLEDGE AND AGREE THAT THE SOFTWARE AND DOCUMENTATION ARE
//   25   PROVIDED “AS IS?WITHOUT WARRANTY OF ANY KIND, EITHER EXPRESS OR IMPLIED,
//   26   INCLUDING WITHOUT LIMITATION, ANY WARRANTY OF MERCHANTABILITY, TITLE,
//   27   NON-INFRINGEMENT AND FITNESS FOR A PARTICULAR PURPOSE. IN NO EVENT SHALL
//   28   TEXAS INSTRUMENTS OR ITS LICENSORS BE LIABLE OR OBLIGATED UNDER CONTRACT,
//   29   NEGLIGENCE, STRICT LIABILITY, CONTRIBUTION, BREACH OF WARRANTY, OR OTHER
//   30   LEGAL EQUITABLE THEORY ANY DIRECT OR INDIRECT DAMAGES OR EXPENSES
//   31   INCLUDING BUT NOT LIMITED TO ANY INCIDENTAL, SPECIAL, INDIRECT, PUNITIVE
//   32   OR CONSEQUENTIAL DAMAGES, LOST PROFITS OR LOST DATA, COST OF PROCUREMENT
//   33   OF SUBSTITUTE GOODS, TECHNOLOGY, SERVICES, OR ANY CLAIMS BY THIRD PARTIES
//   34   (INCLUDING BUT NOT LIMITED TO ANY DEFENSE THEREOF), OR OTHER SIMILAR COSTS.
//   35 
//   36   Should you have any questions regarding your right to use this Software,
//   37   contact Texas Instruments Incorporated at www.TI.com.
//   38 ******************************************************************************/
//   39 
//   40 /*********************************************************************
//   41   This application isn't intended to do anything useful, it is
//   42   intended to be a simple example of an application's structure.
//   43 
//   44   This application sends "Hello World" to another "Generic"
//   45   application every 5 seconds.  The application will also
//   46   receives "Hello World" packets.
//   47 
//   48   The "Hello World" messages are sent/received as MSG type message.
//   49 
//   50   This applications doesn't have a profile, so it handles everything
//   51   directly - itself.
//   52 
//   53   Key control:
//   54     SW1:
//   55     SW2:  initiates end device binding
//   56     SW3:
//   57     SW4:  initiates a match description request
//   58 *********************************************************************/
//   59 
//   60 /*********************************************************************
//   61  * INCLUDES
//   62  */
//   63 #include "OSAL.h"
//   64 #include "AF.h"
//   65 #include "ZDApp.h"
//   66 #include "ZDObject.h"
//   67 #include "ZDProfile.h"
//   68 
//   69 #include "Gps.h"
//   70 #include "DebugTrace.h"
//   71 
//   72 #if !defined( WIN32 )
//   73   #include "OnBoard.h"

        ASEGN SFR_AN:DATA:NOROOT,090H
// union <unnamed> volatile __sfr _A_P1
_A_P1:
        DATA8
        DS 1
//   74 #endif
//   75 #include "MT.h"
//   76 #include "mt_uart.h"
//   77 /* HAL */
//   78 #include "hal_lcd.h"
//   79 #include "hal_led.h"
//   80 #include "hal_key.h"
//   81 #include "hal_uart.h"
//   82 
//   83 /* RTOS */
//   84 #if defined( IAR_ARMCM3_LM )
//   85 #include "RTOS_App.h"
//   86 #endif  
//   87 #include<ioCC2530.h>
//   88 #include <string.h>
//   89 #define uint unsigned int
//   90 #define uchar unsigned char
//   91 /*********************************************************************
//   92  * MACROS
//   93  */
//   94 /*********************************************************************
//   95  * DATA
//   96  */

        RSEG XDATA_I:XDATA:NOROOT(0)
//   97 uchar Recdata[300]="TESTDATAS$GPGGA,033410.000,2232.1745,N,11401.1920,E,1,07,1.1,107.14,M,0.00,M,,*64";
Recdata:
        DATA8
        DS 300
        REQUIRE `?<Initializer for Recdata>`
        REQUIRE __INIT_XDATA_I

        RSEG XDATA_I:XDATA:NOROOT(0)
//   98 uchar Recdata_GPGGA[100]=" ";
Recdata_GPGGA:
        DATA8
        DS 100
        REQUIRE `?<Initializer for Recdata_GPGGA>`
        REQUIRE __INIT_XDATA_I

        RSEG XDATA_Z:XDATA:NOROOT(0)
        DATA16
//   99 uint Recdata_GPGGA_start=0;
Recdata_GPGGA_start:
        DS 2
        REQUIRE __INIT_XDATA_Z

        RSEG XDATA_I:XDATA:NOROOT(0)
//  100 uchar UTC[6]="000000";
UTC:
        DATA8
        DS 6
        REQUIRE `?<Initializer for UTC>`
        REQUIRE __INIT_XDATA_I

        RSEG XDATA_I:XDATA:NOROOT(0)
//  101 uchar JingDu[10]="0000000000";
JingDu:
        DATA8
        DS 10
        REQUIRE `?<Initializer for JingDu>`
        REQUIRE __INIT_XDATA_I

        RSEG XDATA_I:XDATA:NOROOT(0)
//  102 uchar WeiDu[9]="000000000";
WeiDu:
        DATA8
        DS 9
        REQUIRE `?<Initializer for WeiDu>`
        REQUIRE __INIT_XDATA_I

        RSEG XDATA_I:XDATA:NOROOT(0)
//  103 uchar GaoDu[5]="00000";
GaoDu:
        DATA8
        DS 5
        REQUIRE `?<Initializer for GaoDu>`
        REQUIRE __INIT_XDATA_I

        RSEG XDATA_I:XDATA:NOROOT(0)
//  104 uchar WeiXing[2]="00";
WeiXing:
        DATA16
        DS 2
        REQUIRE `?<Initializer for WeiXing>`
        REQUIRE __INIT_XDATA_I

        RSEG XDATA_I:XDATA:NOROOT(0)
//  105 uchar JiBie[1]="y";
JiBie:
        DATA8
        DS 1
        REQUIRE `?<Initializer for JiBie>`
        REQUIRE __INIT_XDATA_I

        RSEG XDATA_I:XDATA:NOROOT(0)
//  106 uchar RXTXflag = 1;
RXTXflag:
        DATA8
        DS 1
        REQUIRE `?<Initializer for RXTXflag>`
        REQUIRE __INIT_XDATA_I

        RSEG XDATA_Z:XDATA:NOROOT(0)
        DATA8
//  107 uchar temp;
temp:
        DS 1
        REQUIRE __INIT_XDATA_Z

        RSEG XDATA_Z:XDATA:NOROOT(0)
        DATA16
//  108 uint  datanumber = 0;
datanumber:
        DS 2
        REQUIRE __INIT_XDATA_Z

        RSEG XDATA_Z:XDATA:NOROOT(0)
        DATA16
//  109 uint  stringlen;
stringlen:
        DS 2
        REQUIRE __INIT_XDATA_Z

        RSEG XDATA_Z:XDATA:NOROOT(0)
        DATA16
//  110 uint check=0;
check:
        DS 2
        REQUIRE __INIT_XDATA_Z

        RSEG XDATA_I:XDATA:NOROOT(0)
//  111 uint position=6;
position:
        DATA16
        DS 2
        REQUIRE `?<Initializer for position>`
        REQUIRE __INIT_XDATA_I
//  112 /*********************************************************************
//  113  * CONSTANTS
//  114  */
//  115 
//  116 /*********************************************************************
//  117  * TYPEDEFS
//  118  */
//  119 
//  120 /*********************************************************************
//  121  * GLOBAL VARIABLES
//  122  */
//  123 // This list should be filled with Application specific Cluster IDs.
//  124 #define SEND_DATA_EVENT 0x01

        RSEG XDATA_I:XDATA:NOROOT(0)
//  125 unsigned char flag='0';
flag:
        DATA8
        DS 1
        REQUIRE `?<Initializer for flag>`
        REQUIRE __INIT_XDATA_I

        RSEG XDATA_ROM_C:CONST:REORDER:NOROOT(0)
        DATA16
//  126 const cId_t Gps_ClusterList[Gps_MAX_CLUSTERS] =
Gps_ClusterList:
        DW 4
//  127 {
//  128   Gps_CLUSTERID
//  129 };
//  130 
//  131 
//  132 

        RSEG XDATA_ROM_C:CONST:REORDER:NOROOT(0)
        DATA8
//  133 const SimpleDescriptionFormat_t Gps_SimpleDesc =
Gps_SimpleDesc:
        DB 10
        DATA16
        DW 3844
        DW 1
        DATA8
        DB 0
        DB 0
        DATA16
        DW 0H
        DATA8
        DB 1
        DATA16
        DW Gps_ClusterList
//  134 {
//  135   Gps_ENDPOINT,              //  int Endpoint;
//  136   Gps_PROFID,                //  uint16 AppProfId[2];
//  137   Gps_DEVICEID,              //  uint16 AppDeviceId[2];
//  138   Gps_DEVICE_VERSION,        //  int   AppDevVer:4;
//  139   Gps_FLAGS,                 //  int   AppFlags:4;
//  140   
//  141   
//  142   0,          //  byte  AppNumInClusters;
//  143   (cId_t *)NULL,  //  byte *pAppInClusterList;
//  144   Gps_MAX_CLUSTERS,          //  byte  AppNumInClusters;
//  145   (cId_t *)Gps_ClusterList   //  byte *pAppInClusterList;
//  146 };
//  147 

        RSEG XDATA_Z:XDATA:NOROOT(0)
        DATA8
//  148 unsigned char TempDATA;
TempDATA:
        DS 1
        REQUIRE __INIT_XDATA_Z

        RSEG XDATA_Z:XDATA:NOROOT(0)
        DATA8
//  149 endPointDesc_t Gps_epDesc;
Gps_epDesc:
        DS 6
        REQUIRE __INIT_XDATA_Z

        RSEG XDATA_Z:XDATA:NOROOT(0)
        DATA8
//  150 byte Gps_TaskID;
Gps_TaskID:
        DS 1
        REQUIRE __INIT_XDATA_Z

        RSEG XDATA_Z:XDATA:NOROOT(0)
        DATA8
//  151 byte Gps_TransID;
Gps_TransID:
        DS 1
        REQUIRE __INIT_XDATA_Z

        RSEG XDATA_Z:XDATA:NOROOT(0)
        DATA8
//  152 devStates_t Gps_NwkState;
Gps_NwkState:
        DS 1
        REQUIRE __INIT_XDATA_Z

        RSEG XDATA_Z:XDATA:NOROOT(0)
        DATA8
//  153 byte Gps_Uart_TaskID;
Gps_Uart_TaskID:
        DS 1
        REQUIRE __INIT_XDATA_Z

        RSEG XDATA_Z:XDATA:NOROOT(0)
        DATA8
//  154 byte Gps_Uart_TransID;
Gps_Uart_TransID:
        DS 1
        REQUIRE __INIT_XDATA_Z
//  155 void Gps_MessageMSGCB(afIncomingMSGPacket_t *MSGpkt);
//  156 void Gps_SendTheMessage(void);
//  157 void handle();
//  158 
//  159 
//  160 

        RSEG BANKED_CODE:CODE:NOROOT(0)
//  161 void Gps_Init( byte task_id )
Gps_Init:
        CFI Block cfiBlock0 Using cfiCommon0
        CFI Function Gps_Init
        CODE
//  162 {
        FUNCALL Gps_Init, MT_UartInit
        LOCFRAME ISTACK, 0, STACK
        LOCFRAME PSTACK, 0, STACK
        LOCFRAME XSTACK, 38, STACK
        LOCFRAME IOVERLAY, 0, STATIC
        LOCFRAME DOVERLAY, 0, STATIC
        ARGFRAME ISTACK, 0, STACK
        ARGFRAME PSTACK, 0, STACK
        ARGFRAME XSTACK, 38, STACK
        ARGFRAME IOVERLAY, 0, STATIC
        ARGFRAME DOVERLAY, 0, STATIC
        FUNCALL Gps_Init, MT_UartRegisterTaskID
        LOCFRAME ISTACK, 0, STACK
        LOCFRAME PSTACK, 0, STACK
        LOCFRAME XSTACK, 38, STACK
        LOCFRAME IOVERLAY, 0, STATIC
        LOCFRAME DOVERLAY, 0, STATIC
        ARGFRAME ISTACK, 0, STACK
        ARGFRAME PSTACK, 0, STACK
        ARGFRAME XSTACK, 38, STACK
        ARGFRAME IOVERLAY, 0, STATIC
        ARGFRAME DOVERLAY, 0, STATIC
        FUNCALL Gps_Init, afRegister
        LOCFRAME ISTACK, 0, STACK
        LOCFRAME PSTACK, 0, STACK
        LOCFRAME XSTACK, 38, STACK
        LOCFRAME IOVERLAY, 0, STATIC
        LOCFRAME DOVERLAY, 0, STATIC
        ARGFRAME ISTACK, 0, STACK
        ARGFRAME PSTACK, 0, STACK
        ARGFRAME XSTACK, 38, STACK
        ARGFRAME IOVERLAY, 0, STATIC
        ARGFRAME DOVERLAY, 0, STATIC
        FUNCALL Gps_Init, HalUARTOpen
        LOCFRAME ISTACK, 0, STACK
        LOCFRAME PSTACK, 0, STACK
        LOCFRAME XSTACK, 38, STACK
        LOCFRAME IOVERLAY, 0, STATIC
        LOCFRAME DOVERLAY, 0, STATIC
        ARGFRAME ISTACK, 0, STACK
        ARGFRAME PSTACK, 0, STACK
        ARGFRAME XSTACK, 38, STACK
        ARGFRAME IOVERLAY, 0, STATIC
        ARGFRAME DOVERLAY, 0, STATIC
        MOV     A,#-0x9
        LCALL   ?BANKED_ENTER_XDATA
        CFI DPH0 load(1, XDATA, add(CFA_XSP16, literal(-1)))
        CFI DPL0 load(1, XDATA, add(CFA_XSP16, literal(-2)))
        CFI ?BRET_EXT load(1, XDATA, add(CFA_XSP16, literal(-3)))
        CFI ?RET_HIGH load(1, XDATA, add(CFA_XSP16, literal(-4)))
        CFI ?RET_LOW load(1, XDATA, add(CFA_XSP16, literal(-5)))
        CFI R7 load(1, XDATA, add(CFA_XSP16, literal(-6)))
        CFI V0 load(1, XDATA, add(CFA_XSP16, literal(-7)))
        CFI VB load(1, XDATA, add(CFA_XSP16, literal(-8)))
        CFI R6 load(1, XDATA, add(CFA_XSP16, literal(-9)))
        CFI CFA_SP SP+0
        CFI CFA_XSP16 add(XSP16, 9)
        ; Saved register size: 9
        ; Auto size: 29
        MOV     A,#-0x1d
        LCALL   ?ALLOC_XSTACK8
        CFI CFA_XSP16 add(XSP16, 38)
        MOV     A,R1
        MOV     R6,A
//  163   halUARTCfg_t uartConfig;//´®¿Ú
//  164     
//  165   Gps_TaskID = task_id;
        MOV     DPTR,#Gps_TaskID
        MOVX    @DPTR,A
//  166   Gps_NwkState=DEV_INIT;
        MOV     DPTR,#Gps_NwkState
        MOV     A,#0x1
        MOVX    @DPTR,A
//  167   Gps_TransID = 0;
        MOV     DPTR,#Gps_TransID
        CLR     A
        MOVX    @DPTR,A
//  168 
//  169   MT_UartInit();
        ; Setup parameters for call to function MT_UartInit
        LCALL   ??MT_UartInit?relay
//  170   MT_UartRegisterTaskID(task_id);
        ; Setup parameters for call to function MT_UartRegisterTaskID
        MOV     A,R6
        MOV     R1,A
        LCALL   ??MT_UartRegisterTaskID?relay
//  171   
//  172   Gps_epDesc.endPoint = Gps_ENDPOINT;
        MOV     DPTR,#Gps_epDesc
        MOV     A,#0xa
        MOVX    @DPTR,A
//  173   Gps_epDesc.task_id = &Gps_TaskID;
        INC     DPTR
        MOV     A,#Gps_TaskID & 0xff
        MOVX    @DPTR,A
        INC     DPTR
        MOV     A,#(Gps_TaskID >> 8) & 0xff
        MOVX    @DPTR,A
//  174   Gps_epDesc.simpleDesc
//  175             = (SimpleDescriptionFormat_t *)&Gps_SimpleDesc;
        INC     DPTR
        MOV     A,#Gps_SimpleDesc & 0xff
        MOVX    @DPTR,A
        INC     DPTR
        MOV     A,#(Gps_SimpleDesc >> 8) & 0xff
        MOVX    @DPTR,A
//  176   
//  177   Gps_epDesc.latencyReq = noLatencyReqs;
        INC     DPTR
        CLR     A
        MOVX    @DPTR,A
//  178   afRegister( &Gps_epDesc ); 
        ; Setup parameters for call to function afRegister
        MOV     R2,#Gps_epDesc & 0xff
        MOV     R3,#(Gps_epDesc >> 8) & 0xff
        LCALL   ??afRegister?relay
//  179   uartConfig.configured = TRUE;
        MOV     DPL,?XSP + 0
        MOV     DPH,?XSP + 1
        MOV     A,#0x1
        MOVX    @DPTR,A
//  180   uartConfig.baudRate = HAL_UART_BR_9600;
        LCALL   ?XSTACK_DISP0_8
        CLR     A
        MOVX    @DPTR,A
//  181   uartConfig.flowControl = FALSE;
        MOV     A,#0x2
        LCALL   ?XSTACK_DISP0_8
        CLR     A
        MOVX    @DPTR,A
//  182   HalUARTOpen(0,&uartConfig);
        ; Setup parameters for call to function HalUARTOpen
        MOV     DPL,?XSP + 0
        MOV     DPH,?XSP + 1
        MOV     R2,DPL
        MOV     R3,DPH
        MOV     R1,A
        LCALL   ??HalUARTOpen?relay
//  183 
//  184   //P1DIR |= (1<<3);
//  185   //P1_3=1;
//  186 }
        MOV     A,#0x1d
        LCALL   ?DEALLOC_XSTACK8
        CFI EndBlock cfiBlock0
        REQUIRE ?Subroutine0
        ; // Fall through to label ?Subroutine0

        RSEG BANKED_CODE:CODE:NOROOT(0)
?Subroutine0:
        CFI Block cfiBlock1 Using cfiCommon0
        CFI NoFunction
        CFI CFA_SP SP+0
        CFI CFA_XSP16 add(XSP16, 9)
        CFI VB load(1, XDATA, add(CFA_XSP16, literal(-8)))
        CFI DPL0 load(1, XDATA, add(CFA_XSP16, literal(-2)))
        CFI DPH0 load(1, XDATA, add(CFA_XSP16, literal(-1)))
        CFI R6 load(1, XDATA, add(CFA_XSP16, literal(-9)))
        CFI R7 load(1, XDATA, add(CFA_XSP16, literal(-6)))
        CFI V0 load(1, XDATA, add(CFA_XSP16, literal(-7)))
        CFI ?BRET_EXT load(1, XDATA, add(CFA_XSP16, literal(-3)))
        CFI ?RET_HIGH load(1, XDATA, add(CFA_XSP16, literal(-4)))
        CFI ?RET_LOW load(1, XDATA, add(CFA_XSP16, literal(-5)))
        MOV     R7,#0x1
        LJMP    ?BANKED_LEAVE_XDATA
        CFI EndBlock cfiBlock1
//  187 

        RSEG BANKED_CODE:CODE:NOROOT(0)
//  188 UINT16 Gps_ProcessEvent( byte task_id, UINT16 events )
Gps_ProcessEvent:
        CFI Block cfiBlock2 Using cfiCommon0
        CFI Function Gps_ProcessEvent
        CODE
//  189 {
        FUNCALL Gps_ProcessEvent, osal_msg_receive
        LOCFRAME ISTACK, 0, STACK
        LOCFRAME PSTACK, 0, STACK
        LOCFRAME XSTACK, 12, STACK
        LOCFRAME IOVERLAY, 0, STATIC
        LOCFRAME DOVERLAY, 0, STATIC
        ARGFRAME ISTACK, 0, STACK
        ARGFRAME PSTACK, 0, STACK
        ARGFRAME XSTACK, 12, STACK
        ARGFRAME IOVERLAY, 0, STATIC
        ARGFRAME DOVERLAY, 0, STATIC
        FUNCALL Gps_ProcessEvent, osal_set_event
        LOCFRAME ISTACK, 0, STACK
        LOCFRAME PSTACK, 0, STACK
        LOCFRAME XSTACK, 12, STACK
        LOCFRAME IOVERLAY, 0, STATIC
        LOCFRAME DOVERLAY, 0, STATIC
        ARGFRAME ISTACK, 0, STACK
        ARGFRAME PSTACK, 0, STACK
        ARGFRAME XSTACK, 12, STACK
        ARGFRAME IOVERLAY, 0, STATIC
        ARGFRAME DOVERLAY, 0, STATIC
        FUNCALL Gps_ProcessEvent, osal_msg_deallocate
        LOCFRAME ISTACK, 0, STACK
        LOCFRAME PSTACK, 0, STACK
        LOCFRAME XSTACK, 12, STACK
        LOCFRAME IOVERLAY, 0, STATIC
        LOCFRAME DOVERLAY, 0, STATIC
        ARGFRAME ISTACK, 0, STACK
        ARGFRAME PSTACK, 0, STACK
        ARGFRAME XSTACK, 12, STACK
        ARGFRAME IOVERLAY, 0, STATIC
        ARGFRAME DOVERLAY, 0, STATIC
        FUNCALL Gps_ProcessEvent, osal_msg_receive
        LOCFRAME ISTACK, 0, STACK
        LOCFRAME PSTACK, 0, STACK
        LOCFRAME XSTACK, 12, STACK
        LOCFRAME IOVERLAY, 0, STATIC
        LOCFRAME DOVERLAY, 0, STATIC
        ARGFRAME ISTACK, 0, STACK
        ARGFRAME PSTACK, 0, STACK
        ARGFRAME XSTACK, 12, STACK
        ARGFRAME IOVERLAY, 0, STATIC
        ARGFRAME DOVERLAY, 0, STATIC
        FUNCALL Gps_ProcessEvent, Gps_SendTheMessage
        LOCFRAME ISTACK, 0, STACK
        LOCFRAME PSTACK, 0, STACK
        LOCFRAME XSTACK, 12, STACK
        LOCFRAME IOVERLAY, 0, STATIC
        LOCFRAME DOVERLAY, 0, STATIC
        ARGFRAME ISTACK, 0, STACK
        ARGFRAME PSTACK, 0, STACK
        ARGFRAME XSTACK, 12, STACK
        ARGFRAME IOVERLAY, 0, STATIC
        ARGFRAME DOVERLAY, 0, STATIC
        FUNCALL Gps_ProcessEvent, osal_start_timerEx
        LOCFRAME ISTACK, 0, STACK
        LOCFRAME PSTACK, 0, STACK
        LOCFRAME XSTACK, 12, STACK
        LOCFRAME IOVERLAY, 0, STATIC
        LOCFRAME DOVERLAY, 0, STATIC
        ARGFRAME ISTACK, 0, STACK
        ARGFRAME PSTACK, 0, STACK
        ARGFRAME XSTACK, 12, STACK
        ARGFRAME IOVERLAY, 0, STATIC
        ARGFRAME DOVERLAY, 0, STATIC
        MOV     A,#-0xc
        LCALL   ?BANKED_ENTER_XDATA
        CFI DPH0 load(1, XDATA, add(CFA_XSP16, literal(-1)))
        CFI DPL0 load(1, XDATA, add(CFA_XSP16, literal(-2)))
        CFI ?BRET_EXT load(1, XDATA, add(CFA_XSP16, literal(-3)))
        CFI ?RET_HIGH load(1, XDATA, add(CFA_XSP16, literal(-4)))
        CFI ?RET_LOW load(1, XDATA, add(CFA_XSP16, literal(-5)))
        CFI R7 load(1, XDATA, add(CFA_XSP16, literal(-6)))
        CFI V3 load(1, XDATA, add(CFA_XSP16, literal(-7)))
        CFI V2 load(1, XDATA, add(CFA_XSP16, literal(-8)))
        CFI V1 load(1, XDATA, add(CFA_XSP16, literal(-9)))
        CFI V0 load(1, XDATA, add(CFA_XSP16, literal(-10)))
        CFI VB load(1, XDATA, add(CFA_XSP16, literal(-11)))
        CFI R6 load(1, XDATA, add(CFA_XSP16, literal(-12)))
        CFI CFA_SP SP+0
        CFI CFA_XSP16 add(XSP16, 12)
        ; Saved register size: 12
        ; Auto size: 0
        MOV     A,R2
        MOV     R6,A
        MOV     A,R3
        MOV     R7,A
//  190   afIncomingMSGPacket_t *MSGpkt;
//  191 
//  192   if ( events & SYS_EVENT_MSG )
        ANL     A,#0x80
        JZ      ??Gps_ProcessEvent_0
//  193   {
//  194     MSGpkt = (afIncomingMSGPacket_t *)osal_msg_receive( Gps_TaskID );
        ; Setup parameters for call to function osal_msg_receive
        SJMP    ??Gps_ProcessEvent_1
//  195     while ( MSGpkt )
//  196     {
//  197       switch ( MSGpkt->hdr.event )
??Gps_ProcessEvent_2:
        MOV     DPL,?V0 + 0
        MOV     DPH,?V0 + 1
        MOVX    A,@DPTR
        XRL     A,#0xd1
        JNZ     ??Gps_ProcessEvent_3
//  198       {
//  199        
//  200           case ZDO_STATE_CHANGE:
//  201             Gps_NwkState = (devStates_t)(MSGpkt->hdr.status);
        INC     DPTR
        MOVX    A,@DPTR
        MOV     DPTR,#Gps_NwkState
        MOVX    @DPTR,A
//  202             if(Gps_NwkState==DEV_END_DEVICE)
        XRL     A,#0x6
        JNZ     ??Gps_ProcessEvent_3
//  203             {
//  204               P1_0=~P1_0;
        SETB    B.0
        MOV     C,0x90.0
        JNB     B.0,??Gps_ProcessEvent_4
        CPL     C
??Gps_ProcessEvent_4:
        MOV     0x90.0,C
//  205               osal_set_event(Gps_TaskID,SEND_DATA_EVENT);
        ; Setup parameters for call to function osal_set_event
        MOV     R2,#0x1
        MOV     R3,#0x0
        MOV     DPTR,#Gps_TaskID
        MOVX    A,@DPTR
        MOV     R1,A
        LCALL   ??osal_set_event?relay
//  206             }
//  207             break;
//  208             
//  209           default:
//  210             break;
//  211       }
//  212       osal_msg_deallocate( (uint8 *)MSGpkt );
??Gps_ProcessEvent_3:
        ; Setup parameters for call to function osal_msg_deallocate
        MOV     R2,?V0 + 0
        MOV     R3,?V0 + 1
        LCALL   ??osal_msg_deallocate?relay
//  213       MSGpkt = (afIncomingMSGPacket_t *)osal_msg_receive( Gps_TaskID );
        ; Setup parameters for call to function osal_msg_receive
??Gps_ProcessEvent_1:
        MOV     DPTR,#Gps_TaskID
        MOVX    A,@DPTR
        MOV     R1,A
        LCALL   ??osal_msg_receive?relay
        MOV     ?V0 + 0,R2
        MOV     ?V0 + 1,R3
//  214     }
        MOV     A,?V0 + 0
        ORL     A,?V0 + 1
        JNZ     ??Gps_ProcessEvent_2
//  215     // return unprocessed events
//  216     return (events ^ SYS_EVENT_MSG);
        MOV     A,R6
        MOV     R2,A
        MOV     A,R7
        XRL     A,#0x80
??Gps_ProcessEvent_5:
        MOV     R3,A
        SJMP    ??Gps_ProcessEvent_6
//  217   }
//  218   if(events&SEND_DATA_EVENT)
??Gps_ProcessEvent_0:
        MOV     A,R6
        MOV     C,0xE0 /* A   */.0
        JNC     ??Gps_ProcessEvent_7
//  219   {
//  220     Gps_SendTheMessage();
        ; Setup parameters for call to function Gps_SendTheMessage
        LCALL   ??Gps_SendTheMessage?relay
//  221     osal_start_timerEx(Gps_TaskID,SEND_DATA_EVENT,Gps_SEND_MSG_TIMEOUT);
        ; Setup parameters for call to function osal_start_timerEx
        MOV     R4,#-0x78
        MOV     R5,#0x13
        MOV     R2,#0x1
        MOV     R3,#0x0
        MOV     DPTR,#Gps_TaskID
        LCALL   ?Subroutine4 & 0xFFFF
//  222     return(events^SEND_DATA_EVENT);
//  223   }
??CrossCallReturnLabel_12:
        SJMP    ??Gps_ProcessEvent_5
//  224   return 0;
??Gps_ProcessEvent_7:
        MOV     R2,#0x0
        MOV     R3,#0x0
??Gps_ProcessEvent_6:
        MOV     R7,#0x4
        LJMP    ?BANKED_LEAVE_XDATA
        CFI EndBlock cfiBlock2
        REQUIRE _A_P1
//  225 }
//  226 

        RSEG BANKED_CODE:CODE:NOROOT(0)
//  227 void Gps_SendTheMessage(void)
Gps_SendTheMessage:
        CFI Block cfiBlock3 Using cfiCommon0
        CFI Function Gps_SendTheMessage
        CODE
//  228 { 
        FUNCALL Gps_SendTheMessage, AF_DataRequest
        LOCFRAME ISTACK, 0, STACK
        LOCFRAME PSTACK, 0, STACK
        LOCFRAME XSTACK, 64, STACK
        LOCFRAME IOVERLAY, 0, STATIC
        LOCFRAME DOVERLAY, 0, STATIC
        ARGFRAME ISTACK, 0, STACK
        ARGFRAME PSTACK, 0, STACK
        ARGFRAME XSTACK, 64, STACK
        ARGFRAME IOVERLAY, 0, STATIC
        ARGFRAME DOVERLAY, 0, STATIC
        MOV     A,#-0xa
        LCALL   ?BANKED_ENTER_XDATA
        CFI DPH0 load(1, XDATA, add(CFA_XSP16, literal(-1)))
        CFI DPL0 load(1, XDATA, add(CFA_XSP16, literal(-2)))
        CFI ?BRET_EXT load(1, XDATA, add(CFA_XSP16, literal(-3)))
        CFI ?RET_HIGH load(1, XDATA, add(CFA_XSP16, literal(-4)))
        CFI ?RET_LOW load(1, XDATA, add(CFA_XSP16, literal(-5)))
        CFI R7 load(1, XDATA, add(CFA_XSP16, literal(-6)))
        CFI V1 load(1, XDATA, add(CFA_XSP16, literal(-7)))
        CFI V0 load(1, XDATA, add(CFA_XSP16, literal(-8)))
        CFI VB load(1, XDATA, add(CFA_XSP16, literal(-9)))
        CFI R6 load(1, XDATA, add(CFA_XSP16, literal(-10)))
        CFI CFA_SP SP+0
        CFI CFA_XSP16 add(XSP16, 10)
        ; Saved register size: 10
        ; Auto size: 45
        MOV     A,#-0x2d
        LCALL   ?ALLOC_XSTACK8
        CFI CFA_XSP16 add(XSP16, 55)
//  229   unsigned char theMessageData[33] = "Gps:";
        MOV     A,#0xc
        LCALL   ?XSTACK_DISP0_8
        MOV     R4,DPL
        MOV     R5,DPH
        MOV     DPH,#(`?<Constant "Gps:">` >> 8) & 0xff
        MOV     DPL,#`?<Constant "Gps:">` & 0xff
        MOV     A,#0x21
        LCALL   ?MOVE_LONG8_XDATA_XDATA
//  230   for (unsigned char i=0;i<6;i++)
        MOV     R2,A
//  231     theMessageData[i]=UTC[i];
??Gps_SendTheMessage_0:
        MOV     DPL,R2
        MOV     R0,DPL
        MOV     A,#UTC & 0xff
        ADD     A,R0
        MOV     DPL,A
        MOV     A,#(UTC >> 8) & 0xff
        LCALL   ?Subroutine9 & 0xFFFF
??CrossCallReturnLabel_26:
        PUSH    A
        CFI CFA_SP SP+-1
        MOV     A,#0xc
        LCALL   ?XSTACK_DISP0_8
        LCALL   ?Subroutine5 & 0xFFFF
??CrossCallReturnLabel_14:
        POP     A
        CFI CFA_SP SP+0
        MOVX    @DPTR,A
        INC     R2
        MOV     A,R2
        CLR     C
        SUBB    A,#0x6
        JC      ??Gps_SendTheMessage_0
//  232   for (unsigned char i=0;i<9;i++)
        MOV     R2,#0x0
//  233     theMessageData[i+6]=WeiDu[i];
??Gps_SendTheMessage_1:
        MOV     DPL,R2
        MOV     R0,DPL
        MOV     A,#WeiDu & 0xff
        ADD     A,R0
        MOV     DPL,A
        MOV     A,#(WeiDu >> 8) & 0xff
        LCALL   ?Subroutine9 & 0xFFFF
??CrossCallReturnLabel_27:
        PUSH    A
        CFI CFA_SP SP+-1
        MOV     A,#0xc
        LCALL   ?XSTACK_DISP0_8
        LCALL   ?Subroutine5 & 0xFFFF
??CrossCallReturnLabel_15:
        INC     DPTR
        INC     DPTR
        INC     DPTR
        INC     DPTR
        INC     DPTR
        INC     DPTR
        POP     A
        CFI CFA_SP SP+0
        MOVX    @DPTR,A
        INC     R2
        MOV     A,R2
        CLR     C
        SUBB    A,#0x9
        JC      ??Gps_SendTheMessage_1
//  234   for (unsigned char i=0;i<10;i++)
        MOV     R2,#0x0
//  235     theMessageData[i+15]=JingDu[i];
??Gps_SendTheMessage_2:
        MOV     DPL,R2
        MOV     R0,DPL
        MOV     A,#JingDu & 0xff
        ADD     A,R0
        MOV     DPL,A
        MOV     A,#(JingDu >> 8) & 0xff
        LCALL   ?Subroutine9 & 0xFFFF
??CrossCallReturnLabel_28:
        PUSH    A
        CFI CFA_SP SP+-1
        MOV     A,#0xc
        LCALL   ?XSTACK_DISP0_8
        LCALL   ?Subroutine3 & 0xFFFF
??CrossCallReturnLabel_9:
        ADD     A,#0xf
        MOV     DPL,A
        MOV     A,R1
        ADDC    A,#0x0
        MOV     DPH,A
        POP     A
        CFI CFA_SP SP+0
        MOVX    @DPTR,A
        INC     R2
        MOV     A,R2
        CLR     C
        SUBB    A,#0xa
        JC      ??Gps_SendTheMessage_2
//  236   for (unsigned char i=0;i<1;i++)
//  237     theMessageData[i+25]=JiBie[i];
        MOV     DPTR,#JiBie
        MOVX    A,@DPTR
        PUSH    A
        CFI CFA_SP SP+-1
        MOV     A,#0x25
        LCALL   ?XSTACK_DISP0_8
        POP     A
        CFI CFA_SP SP+0
        MOVX    @DPTR,A
//  238   for (unsigned char i=0;i<2;i++)
        MOV     R2,#0x0
//  239     theMessageData[i+26]=WeiXing[i];
??Gps_SendTheMessage_3:
        MOV     DPL,R2
        MOV     R0,DPL
        MOV     A,#WeiXing & 0xff
        ADD     A,R0
        MOV     DPL,A
        MOV     A,#(WeiXing >> 8) & 0xff
        LCALL   ?Subroutine9 & 0xFFFF
??CrossCallReturnLabel_29:
        PUSH    A
        CFI CFA_SP SP+-1
        MOV     A,#0xc
        LCALL   ?XSTACK_DISP0_8
        LCALL   ?Subroutine3 & 0xFFFF
??CrossCallReturnLabel_10:
        ADD     A,#0x1a
        MOV     DPL,A
        MOV     A,R1
        ADDC    A,#0x0
        MOV     DPH,A
        POP     A
        CFI CFA_SP SP+0
        MOVX    @DPTR,A
        INC     R2
        MOV     A,R2
        CLR     C
        SUBB    A,#0x2
        JC      ??Gps_SendTheMessage_3
//  240   for (unsigned char i=0;i<5;i++)
        MOV     R2,#0x0
//  241     theMessageData[i+28]=GaoDu[i];
??Gps_SendTheMessage_4:
        MOV     DPL,R2
        MOV     R0,DPL
        MOV     A,#GaoDu & 0xff
        ADD     A,R0
        MOV     DPL,A
        MOV     A,#(GaoDu >> 8) & 0xff
        LCALL   ?Subroutine9 & 0xFFFF
??CrossCallReturnLabel_30:
        PUSH    A
        CFI CFA_SP SP+-1
        MOV     A,#0xc
        LCALL   ?XSTACK_DISP0_8
        LCALL   ?Subroutine3 & 0xFFFF
??CrossCallReturnLabel_11:
        ADD     A,#0x1c
        MOV     DPL,A
        MOV     A,R1
        ADDC    A,#0x0
        MOV     DPH,A
        POP     A
        CFI CFA_SP SP+0
        MOVX    @DPTR,A
        INC     R2
        MOV     A,R2
        CLR     C
        SUBB    A,#0x5
        JC      ??Gps_SendTheMessage_4
//  242 
//  243   afAddrType_t my_DstAddr;
//  244 
//  245   my_DstAddr.addrMode=(afAddrMode_t)Addr16Bit;
        MOV     A,#0x8
        LCALL   ?XSTACK_DISP0_8
        MOV     A,#0x2
        MOVX    @DPTR,A
//  246   my_DstAddr.endPoint=Gps_ENDPOINT;
        MOV     A,#0x9
        LCALL   ?XSTACK_DISP0_8
        MOV     A,#0xa
        MOVX    @DPTR,A
//  247   my_DstAddr.addr.shortAddr=0x0000; 
        MOV     DPL,?XSP + 0
        MOV     DPH,?XSP + 1
        CLR     A
        MOVX    @DPTR,A
        INC     DPTR
        MOVX    @DPTR,A
//  248 
//  249   AF_DataRequest(&my_DstAddr
//  250   ,&Gps_epDesc
//  251   ,Gps_CLUSTERID
//  252   ,33
//  253   ,theMessageData
//  254   ,&Gps_TransID
//  255   ,AF_DISCV_ROUTE
//  256   ,AF_DEFAULT_RADIUS);
        ; Setup parameters for call to function AF_DataRequest
        MOV     ?V0 + 0,#0x1e
        MOV     R0,#?V0 + 0
        LCALL   ?PUSH_XSTACK_I_ONE
        CFI CFA_XSP16 add(XSP16, 56)
        MOV     ?V0 + 0,#Gps_TransID & 0xff
        MOV     ?V0 + 1,#(Gps_TransID >> 8) & 0xff
        MOV     R0,#?V0 + 0
        LCALL   ?PUSH_XSTACK_I_TWO
        CFI CFA_XSP16 add(XSP16, 58)
        MOV     A,#0xf
        LCALL   ?XSTACK_DISP0_8
        MOV     ?V0 + 0,DPL
        MOV     ?V0 + 1,DPH
        MOV     R0,#?V0 + 0
        LCALL   ?PUSH_XSTACK_I_TWO
        CFI CFA_XSP16 add(XSP16, 60)
        MOV     ?V0 + 0,#0x21
        MOV     ?V0 + 1,#0x0
        MOV     R0,#?V0 + 0
        LCALL   ?PUSH_XSTACK_I_TWO
        CFI CFA_XSP16 add(XSP16, 62)
        MOV     ?V0 + 0,#0x4
        MOV     R0,#?V0 + 0
        LCALL   ?PUSH_XSTACK_I_TWO
        CFI CFA_XSP16 add(XSP16, 64)
        MOV     R1,#0x20
        MOV     R4,#Gps_epDesc & 0xff
        MOV     R5,#(Gps_epDesc >> 8) & 0xff
        MOV     A,#0x9
        LCALL   ?XSTACK_DISP0_8
        MOV     R2,DPL
        MOV     R3,DPH
        LCALL   ??AF_DataRequest?relay
        MOV     A,#0x9
        LCALL   ?DEALLOC_XSTACK8
        CFI CFA_XSP16 add(XSP16, 55)
//  257 }
        MOV     A,#0x2d
        LCALL   ?DEALLOC_XSTACK8
        CFI CFA_XSP16 add(XSP16, 10)
        MOV     R7,#0x2
        LJMP    ?BANKED_LEAVE_XDATA
        CFI EndBlock cfiBlock3

        RSEG BANKED_CODE:CODE:NOROOT(0)
?Subroutine9:
        CFI Block cfiCond4 Using cfiCommon0
        CFI NoFunction
        CFI Conditional ??CrossCallReturnLabel_26
        CFI R6 load(1, XDATA, add(CFA_XSP16, literal(-10)))
        CFI VB load(1, XDATA, add(CFA_XSP16, literal(-9)))
        CFI V0 load(1, XDATA, add(CFA_XSP16, literal(-8)))
        CFI V1 load(1, XDATA, add(CFA_XSP16, literal(-7)))
        CFI R7 load(1, XDATA, add(CFA_XSP16, literal(-6)))
        CFI ?RET_LOW load(1, XDATA, add(CFA_XSP16, literal(-5)))
        CFI ?RET_HIGH load(1, XDATA, add(CFA_XSP16, literal(-4)))
        CFI ?BRET_EXT load(1, XDATA, add(CFA_XSP16, literal(-3)))
        CFI DPL0 load(1, XDATA, add(CFA_XSP16, literal(-2)))
        CFI DPH0 load(1, XDATA, add(CFA_XSP16, literal(-1)))
        CFI CFA_SP SP+0
        CFI CFA_XSP16 add(XSP16, 55)
        CFI Block cfiCond5 Using cfiCommon0
        CFI (cfiCond5) NoFunction
        CFI (cfiCond5) Conditional ??CrossCallReturnLabel_27
        CFI (cfiCond5) R6 load(1, XDATA, add(CFA_XSP16, literal(-10)))
        CFI (cfiCond5) VB load(1, XDATA, add(CFA_XSP16, literal(-9)))
        CFI (cfiCond5) V0 load(1, XDATA, add(CFA_XSP16, literal(-8)))
        CFI (cfiCond5) V1 load(1, XDATA, add(CFA_XSP16, literal(-7)))
        CFI (cfiCond5) R7 load(1, XDATA, add(CFA_XSP16, literal(-6)))
        CFI (cfiCond5) ?RET_LOW load(1, XDATA, add(CFA_XSP16, literal(-5)))
        CFI (cfiCond5) ?RET_HIGH load(1, XDATA, add(CFA_XSP16, literal(-4)))
        CFI (cfiCond5) ?BRET_EXT load(1, XDATA, add(CFA_XSP16, literal(-3)))
        CFI (cfiCond5) DPL0 load(1, XDATA, add(CFA_XSP16, literal(-2)))
        CFI (cfiCond5) DPH0 load(1, XDATA, add(CFA_XSP16, literal(-1)))
        CFI (cfiCond5) CFA_SP SP+0
        CFI (cfiCond5) CFA_XSP16 add(XSP16, 55)
        CFI Block cfiCond6 Using cfiCommon0
        CFI (cfiCond6) NoFunction
        CFI (cfiCond6) Conditional ??CrossCallReturnLabel_28
        CFI (cfiCond6) R6 load(1, XDATA, add(CFA_XSP16, literal(-10)))
        CFI (cfiCond6) VB load(1, XDATA, add(CFA_XSP16, literal(-9)))
        CFI (cfiCond6) V0 load(1, XDATA, add(CFA_XSP16, literal(-8)))
        CFI (cfiCond6) V1 load(1, XDATA, add(CFA_XSP16, literal(-7)))
        CFI (cfiCond6) R7 load(1, XDATA, add(CFA_XSP16, literal(-6)))
        CFI (cfiCond6) ?RET_LOW load(1, XDATA, add(CFA_XSP16, literal(-5)))
        CFI (cfiCond6) ?RET_HIGH load(1, XDATA, add(CFA_XSP16, literal(-4)))
        CFI (cfiCond6) ?BRET_EXT load(1, XDATA, add(CFA_XSP16, literal(-3)))
        CFI (cfiCond6) DPL0 load(1, XDATA, add(CFA_XSP16, literal(-2)))
        CFI (cfiCond6) DPH0 load(1, XDATA, add(CFA_XSP16, literal(-1)))
        CFI (cfiCond6) CFA_SP SP+0
        CFI (cfiCond6) CFA_XSP16 add(XSP16, 55)
        CFI Block cfiCond7 Using cfiCommon0
        CFI (cfiCond7) NoFunction
        CFI (cfiCond7) Conditional ??CrossCallReturnLabel_29
        CFI (cfiCond7) R6 load(1, XDATA, add(CFA_XSP16, literal(-10)))
        CFI (cfiCond7) VB load(1, XDATA, add(CFA_XSP16, literal(-9)))
        CFI (cfiCond7) V0 load(1, XDATA, add(CFA_XSP16, literal(-8)))
        CFI (cfiCond7) V1 load(1, XDATA, add(CFA_XSP16, literal(-7)))
        CFI (cfiCond7) R7 load(1, XDATA, add(CFA_XSP16, literal(-6)))
        CFI (cfiCond7) ?RET_LOW load(1, XDATA, add(CFA_XSP16, literal(-5)))
        CFI (cfiCond7) ?RET_HIGH load(1, XDATA, add(CFA_XSP16, literal(-4)))
        CFI (cfiCond7) ?BRET_EXT load(1, XDATA, add(CFA_XSP16, literal(-3)))
        CFI (cfiCond7) DPL0 load(1, XDATA, add(CFA_XSP16, literal(-2)))
        CFI (cfiCond7) DPH0 load(1, XDATA, add(CFA_XSP16, literal(-1)))
        CFI (cfiCond7) CFA_SP SP+0
        CFI (cfiCond7) CFA_XSP16 add(XSP16, 55)
        CFI Block cfiCond8 Using cfiCommon0
        CFI (cfiCond8) NoFunction
        CFI (cfiCond8) Conditional ??CrossCallReturnLabel_30
        CFI (cfiCond8) R6 load(1, XDATA, add(CFA_XSP16, literal(-10)))
        CFI (cfiCond8) VB load(1, XDATA, add(CFA_XSP16, literal(-9)))
        CFI (cfiCond8) V0 load(1, XDATA, add(CFA_XSP16, literal(-8)))
        CFI (cfiCond8) V1 load(1, XDATA, add(CFA_XSP16, literal(-7)))
        CFI (cfiCond8) R7 load(1, XDATA, add(CFA_XSP16, literal(-6)))
        CFI (cfiCond8) ?RET_LOW load(1, XDATA, add(CFA_XSP16, literal(-5)))
        CFI (cfiCond8) ?RET_HIGH load(1, XDATA, add(CFA_XSP16, literal(-4)))
        CFI (cfiCond8) ?BRET_EXT load(1, XDATA, add(CFA_XSP16, literal(-3)))
        CFI (cfiCond8) DPL0 load(1, XDATA, add(CFA_XSP16, literal(-2)))
        CFI (cfiCond8) DPH0 load(1, XDATA, add(CFA_XSP16, literal(-1)))
        CFI (cfiCond8) CFA_SP SP+0
        CFI (cfiCond8) CFA_XSP16 add(XSP16, 55)
        CFI Block cfiPicker9 Using cfiCommon1
        CFI (cfiPicker9) NoFunction
        CFI (cfiPicker9) Picker
        ADDC    A,#0x0
        MOV     DPH,A
        MOVX    A,@DPTR
        RET
        CFI EndBlock cfiCond4
        CFI EndBlock cfiCond5
        CFI EndBlock cfiCond6
        CFI EndBlock cfiCond7
        CFI EndBlock cfiCond8
        CFI EndBlock cfiPicker9

        RSEG BANKED_CODE:CODE:NOROOT(0)
?Subroutine5:
        CFI Block cfiCond10 Using cfiCommon0
        CFI NoFunction
        CFI Conditional ??CrossCallReturnLabel_14
        CFI R6 load(1, XDATA, add(CFA_XSP16, literal(-10)))
        CFI VB load(1, XDATA, add(CFA_XSP16, literal(-9)))
        CFI V0 load(1, XDATA, add(CFA_XSP16, literal(-8)))
        CFI V1 load(1, XDATA, add(CFA_XSP16, literal(-7)))
        CFI R7 load(1, XDATA, add(CFA_XSP16, literal(-6)))
        CFI ?RET_LOW load(1, XDATA, add(CFA_XSP16, literal(-5)))
        CFI ?RET_HIGH load(1, XDATA, add(CFA_XSP16, literal(-4)))
        CFI ?BRET_EXT load(1, XDATA, add(CFA_XSP16, literal(-3)))
        CFI DPL0 load(1, XDATA, add(CFA_XSP16, literal(-2)))
        CFI DPH0 load(1, XDATA, add(CFA_XSP16, literal(-1)))
        CFI CFA_SP SP+-1
        CFI CFA_XSP16 add(XSP16, 55)
        CFI Block cfiCond11 Using cfiCommon0
        CFI (cfiCond11) NoFunction
        CFI (cfiCond11) Conditional ??CrossCallReturnLabel_15
        CFI (cfiCond11) R6 load(1, XDATA, add(CFA_XSP16, literal(-10)))
        CFI (cfiCond11) VB load(1, XDATA, add(CFA_XSP16, literal(-9)))
        CFI (cfiCond11) V0 load(1, XDATA, add(CFA_XSP16, literal(-8)))
        CFI (cfiCond11) V1 load(1, XDATA, add(CFA_XSP16, literal(-7)))
        CFI (cfiCond11) R7 load(1, XDATA, add(CFA_XSP16, literal(-6)))
        CFI (cfiCond11) ?RET_LOW load(1, XDATA, add(CFA_XSP16, literal(-5)))
        CFI (cfiCond11) ?RET_HIGH load(1, XDATA, add(CFA_XSP16, literal(-4)))
        CFI (cfiCond11) ?BRET_EXT load(1, XDATA, add(CFA_XSP16, literal(-3)))
        CFI (cfiCond11) DPL0 load(1, XDATA, add(CFA_XSP16, literal(-2)))
        CFI (cfiCond11) DPH0 load(1, XDATA, add(CFA_XSP16, literal(-1)))
        CFI (cfiCond11) CFA_SP SP+-1
        CFI (cfiCond11) CFA_XSP16 add(XSP16, 55)
        CFI Block cfiPicker12 Using cfiCommon1
        CFI (cfiPicker12) NoFunction
        CFI (cfiPicker12) Picker
        MOV     A,DPL
        ADD     A,R0
        MOV     DPL,A
        MOV     A,DPH
        ADDC    A,#0x0
        MOV     DPH,A
        RET
        CFI EndBlock cfiCond10
        CFI EndBlock cfiCond11
        CFI EndBlock cfiPicker12

        RSEG BANKED_CODE:CODE:NOROOT(0)
?Subroutine3:
        CFI Block cfiCond13 Using cfiCommon0
        CFI NoFunction
        CFI Conditional ??CrossCallReturnLabel_9
        CFI R6 load(1, XDATA, add(CFA_XSP16, literal(-10)))
        CFI VB load(1, XDATA, add(CFA_XSP16, literal(-9)))
        CFI V0 load(1, XDATA, add(CFA_XSP16, literal(-8)))
        CFI V1 load(1, XDATA, add(CFA_XSP16, literal(-7)))
        CFI R7 load(1, XDATA, add(CFA_XSP16, literal(-6)))
        CFI ?RET_LOW load(1, XDATA, add(CFA_XSP16, literal(-5)))
        CFI ?RET_HIGH load(1, XDATA, add(CFA_XSP16, literal(-4)))
        CFI ?BRET_EXT load(1, XDATA, add(CFA_XSP16, literal(-3)))
        CFI DPL0 load(1, XDATA, add(CFA_XSP16, literal(-2)))
        CFI DPH0 load(1, XDATA, add(CFA_XSP16, literal(-1)))
        CFI CFA_SP SP+-1
        CFI CFA_XSP16 add(XSP16, 55)
        CFI Block cfiCond14 Using cfiCommon0
        CFI (cfiCond14) NoFunction
        CFI (cfiCond14) Conditional ??CrossCallReturnLabel_10
        CFI (cfiCond14) R6 load(1, XDATA, add(CFA_XSP16, literal(-10)))
        CFI (cfiCond14) VB load(1, XDATA, add(CFA_XSP16, literal(-9)))
        CFI (cfiCond14) V0 load(1, XDATA, add(CFA_XSP16, literal(-8)))
        CFI (cfiCond14) V1 load(1, XDATA, add(CFA_XSP16, literal(-7)))
        CFI (cfiCond14) R7 load(1, XDATA, add(CFA_XSP16, literal(-6)))
        CFI (cfiCond14) ?RET_LOW load(1, XDATA, add(CFA_XSP16, literal(-5)))
        CFI (cfiCond14) ?RET_HIGH load(1, XDATA, add(CFA_XSP16, literal(-4)))
        CFI (cfiCond14) ?BRET_EXT load(1, XDATA, add(CFA_XSP16, literal(-3)))
        CFI (cfiCond14) DPL0 load(1, XDATA, add(CFA_XSP16, literal(-2)))
        CFI (cfiCond14) DPH0 load(1, XDATA, add(CFA_XSP16, literal(-1)))
        CFI (cfiCond14) CFA_SP SP+-1
        CFI (cfiCond14) CFA_XSP16 add(XSP16, 55)
        CFI Block cfiCond15 Using cfiCommon0
        CFI (cfiCond15) NoFunction
        CFI (cfiCond15) Conditional ??CrossCallReturnLabel_11
        CFI (cfiCond15) R6 load(1, XDATA, add(CFA_XSP16, literal(-10)))
        CFI (cfiCond15) VB load(1, XDATA, add(CFA_XSP16, literal(-9)))
        CFI (cfiCond15) V0 load(1, XDATA, add(CFA_XSP16, literal(-8)))
        CFI (cfiCond15) V1 load(1, XDATA, add(CFA_XSP16, literal(-7)))
        CFI (cfiCond15) R7 load(1, XDATA, add(CFA_XSP16, literal(-6)))
        CFI (cfiCond15) ?RET_LOW load(1, XDATA, add(CFA_XSP16, literal(-5)))
        CFI (cfiCond15) ?RET_HIGH load(1, XDATA, add(CFA_XSP16, literal(-4)))
        CFI (cfiCond15) ?BRET_EXT load(1, XDATA, add(CFA_XSP16, literal(-3)))
        CFI (cfiCond15) DPL0 load(1, XDATA, add(CFA_XSP16, literal(-2)))
        CFI (cfiCond15) DPH0 load(1, XDATA, add(CFA_XSP16, literal(-1)))
        CFI (cfiCond15) CFA_SP SP+-1
        CFI (cfiCond15) CFA_XSP16 add(XSP16, 55)
        CFI Block cfiPicker16 Using cfiCommon1
        CFI (cfiPicker16) NoFunction
        CFI (cfiPicker16) Picker
        MOV     A,DPL
        ADD     A,R0
        MOV     R0,A
        MOV     A,DPH
        ADDC    A,#0x0
        MOV     R1,A
        MOV     A,R0
        RET
        CFI EndBlock cfiCond13
        CFI EndBlock cfiCond14
        CFI EndBlock cfiCond15
        CFI EndBlock cfiPicker16
//  258 

        RSEG BANKED_CODE:CODE:NOROOT(0)
//  259 void handle()
handle:
        CFI Block cfiBlock17 Using cfiCommon0
        CFI Function handle
        CODE
//  260 {
        PUSH    DPL
        CFI DPL0 Frame(CFA_SP, 4)
        CFI CFA_SP SP+-4
        PUSH    DPH
        CFI DPH0 Frame(CFA_SP, 5)
        CFI CFA_SP SP+-5
        ; Saved register size: 2
        ; Auto size: 0
//  261         check = 0;
        MOV     DPTR,#check
        CLR     A
        MOVX    @DPTR,A
        INC     DPTR
        MOVX    @DPTR,A
//  262         Recdata_GPGGA_start=0;
        MOV     DPTR,#Recdata_GPGGA_start
        MOVX    @DPTR,A
        INC     DPTR
        MOVX    @DPTR,A
//  263         while(check<295)
//  264         {
//  265                 if(Recdata[check]=='$'&&Recdata[check+1]=='G'&&Recdata[check+2]=='P'
//  266                    &&Recdata[check+3]=='G'&&Recdata[check+4]=='G'&&Recdata[check+5]=='A')
??handle_0:
        MOV     DPTR,#check
        MOVX    A,@DPTR
        ADD     A,#Recdata & 0xff
        MOV     R0,A
        INC     DPTR
        MOVX    A,@DPTR
        ADDC    A,#(Recdata >> 8) & 0xff
        MOV     R1,A
        MOV     DPL,R0
        MOV     DPH,R1
        MOVX    A,@DPTR
        XRL     A,#0x24
        JZ      $+5
        LJMP    ??handle_1 & 0xFFFF
        MOV     DPTR,#check
        MOVX    A,@DPTR
        ADD     A,#(Recdata + 1) & 0xff
        INC     R0
        INC     DPTR
        MOVX    A,@DPTR
        ADDC    A,#((Recdata + 1) >> 8) & 0xff
        MOV     R1,A
        MOV     DPL,R0
        MOV     DPH,R1
        MOVX    A,@DPTR
        XRL     A,#0x47
        JZ      $+5
        LJMP    ??handle_1 & 0xFFFF
        MOV     DPTR,#check
        MOVX    A,@DPTR
        ADD     A,#(Recdata + 2) & 0xff
        INC     R0
        INC     DPTR
        MOVX    A,@DPTR
        ADDC    A,#((Recdata + 2) >> 8) & 0xff
        MOV     R1,A
        MOV     DPL,R0
        MOV     DPH,R1
        MOVX    A,@DPTR
        XRL     A,#0x50
        JZ      $+5
        LJMP    ??handle_1 & 0xFFFF
        MOV     DPTR,#check
        MOVX    A,@DPTR
        ADD     A,#(Recdata + 3) & 0xff
        INC     R0
        INC     DPTR
        MOVX    A,@DPTR
        ADDC    A,#((Recdata + 3) >> 8) & 0xff
        MOV     R1,A
        MOV     DPL,R0
        MOV     DPH,R1
        MOVX    A,@DPTR
        XRL     A,#0x47
        JZ      $+5
        LJMP    ??handle_1 & 0xFFFF
        MOV     DPTR,#check
        MOVX    A,@DPTR
        ADD     A,#(Recdata + 4) & 0xff
        INC     R0
        INC     DPTR
        MOVX    A,@DPTR
        ADDC    A,#((Recdata + 4) >> 8) & 0xff
        MOV     R1,A
        MOV     DPL,R0
        MOV     DPH,R1
        MOVX    A,@DPTR
        XRL     A,#0x47
        JZ      $+5
        LJMP    ??handle_1 & 0xFFFF
        MOV     DPTR,#check
        MOVX    A,@DPTR
        ADD     A,#(Recdata + 5) & 0xff
        INC     R0
        INC     DPTR
        MOVX    A,@DPTR
        ADDC    A,#((Recdata + 5) >> 8) & 0xff
        MOV     R1,A
        MOV     DPL,R0
        MOV     DPH,R1
        MOVX    A,@DPTR
        XRL     A,#0x41
        JZ      $+5
        LJMP    ??handle_1 & 0xFFFF
//  267                 {
//  268                         position=check+6;
        MOV     DPTR,#check
        MOVX    A,@DPTR
        ADD     A,#0x6
        MOV     R0,A
        INC     DPTR
        MOVX    A,@DPTR
        ADDC    A,#0x0
        MOV     R1,A
        MOV     DPTR,#position
        MOV     A,R0
        MOVX    @DPTR,A
        INC     DPTR
        MOV     A,R1
        SJMP    ??CrossCallReturnLabel_16
//  269                         while(Recdata_GPGGA_start<70&&Recdata[position++]!='$')
//  270                         {
//  271                                 Recdata_GPGGA[Recdata_GPGGA_start++]=Recdata[position-1];
??handle_2:
        MOV     DPTR,#position
        MOVX    A,@DPTR
        ADD     A,#(Recdata + 255) & 0xff
        MOV     R0,A
        INC     DPTR
        MOVX    A,@DPTR
        ADDC    A,#((Recdata - 1) >> 8) & 0xff
        MOV     R1,A
        MOV     DPL,R0
        MOV     DPH,R1
        MOVX    A,@DPTR
        PUSH    A
        CFI CFA_SP SP+-6
        MOV     DPTR,#Recdata_GPGGA_start
        MOVX    A,@DPTR
        ADD     A,#Recdata_GPGGA & 0xff
        MOV     R0,A
        INC     DPTR
        MOVX    A,@DPTR
        ADDC    A,#(Recdata_GPGGA >> 8) & 0xff
        MOV     R1,A
        MOV     DPL,R0
        MOV     DPH,R1
        POP     A
        CFI CFA_SP SP+-5
        MOVX    @DPTR,A
        MOV     DPTR,#Recdata_GPGGA_start
        LCALL   ?Subroutine6 & 0xFFFF
//  272                         }
??CrossCallReturnLabel_16:
        MOVX    @DPTR,A
        MOV     DPTR,#Recdata_GPGGA_start
        CLR     C
        MOVX    A,@DPTR
        SUBB    A,#0x46
        INC     DPTR
        MOVX    A,@DPTR
        SUBB    A,#0x0
        JNC     ??handle_3
        MOV     DPTR,#position
        MOVX    A,@DPTR
        MOV     R0,A
        INC     DPTR
        MOVX    A,@DPTR
        MOV     R1,A
        MOV     A,R0
        ADD     A,#0x1
        MOV     R2,A
        MOV     A,R1
        ADDC    A,#0x0
        MOV     R3,A
        MOV     DPTR,#position
        MOV     A,R2
        MOVX    @DPTR,A
        INC     DPTR
        MOV     A,R3
        MOVX    @DPTR,A
        MOV     A,#Recdata & 0xff
        ADD     A,R0
        MOV     DPL,A
        MOV     A,#(Recdata >> 8) & 0xff
        ADDC    A,R1
        MOV     DPH,A
        MOVX    A,@DPTR
        XRL     A,#0x24
        JNZ     ??handle_2
//  273                         uint i_utc=0;
??handle_3:
        MOV     R2,#0x0
        MOV     R3,#0x0
//  274                         uint i=0;
        MOV     R0,#0x0
        MOV     R1,#0x0
//  275                         if(Recdata_GPGGA[i_utc+1]!='H')
        MOV     DPTR,#Recdata_GPGGA + 1
        MOVX    A,@DPTR
        XRL     A,#0x48
        JNZ     ??CrossCallReturnLabel_0
        SJMP    ??handle_4
//  276                         {
//  277                                 while(Recdata_GPGGA[i_utc+1]!=',')
//  278                                 {
//  279                                         UTC[i++]=Recdata_GPGGA[i_utc+1];
??handle_5:
        MOVX    A,@DPTR
        PUSH    A
        CFI CFA_SP SP+-6
        MOV     A,#UTC & 0xff
        ADD     A,R0
        MOV     DPL,A
        MOV     A,#(UTC >> 8) & 0xff
        ADDC    A,R1
        MOV     DPH,A
        POP     A
        CFI CFA_SP SP+-5
        LCALL   ?Subroutine1 & 0xFFFF
//  280                                         i_utc++;
//  281                                 }
??CrossCallReturnLabel_0:
        LCALL   ?Subroutine7 & 0xFFFF
//  282                         }
??CrossCallReturnLabel_18:
        JNZ     ??handle_5
//  283                         uint i_weidu=i_utc+1;
??handle_4:
        MOV     A,R2
        ADD     A,#0x1
        INC     R2
        MOV     A,R3
        ADDC    A,#0x0
        MOV     R3,A
//  284                         i=0;
        MOV     R0,#0x0
        MOV     R1,#0x0
        SJMP    ??CrossCallReturnLabel_1
//  285                         while(Recdata_GPGGA[i_weidu+1]!=',')
//  286                         {
//  287                                 WeiDu[i++]=Recdata_GPGGA[i_weidu+1];
??handle_6:
        MOVX    A,@DPTR
        PUSH    A
        CFI CFA_SP SP+-6
        MOV     A,#WeiDu & 0xff
        ADD     A,R0
        MOV     DPL,A
        MOV     A,#(WeiDu >> 8) & 0xff
        ADDC    A,R1
        MOV     DPH,A
        POP     A
        CFI CFA_SP SP+-5
        LCALL   ?Subroutine1 & 0xFFFF
//  288                                 i_weidu++;
//  289                         }
??CrossCallReturnLabel_1:
        LCALL   ?Subroutine7 & 0xFFFF
??CrossCallReturnLabel_19:
        JNZ     ??handle_6
//  290                         uint i_N=i_weidu+1;
        MOV     A,R2
        ADD     A,#0x1
        MOV     R0,A
        MOV     A,R3
        SJMP    ??handle_7
//  291                         i=0;
//  292                         while(Recdata_GPGGA[i_N+1]!=',')
//  293                         {
//  294                                 i_N++;
??handle_8:
        MOV     A,R0
        ADD     A,#0x1
        INC     R0
        MOV     A,R1
//  295                         }
??handle_7:
        LCALL   ?Subroutine2 & 0xFFFF
??CrossCallReturnLabel_5:
        JNZ     ??handle_8
//  296                         uint i_JingDu=i_N+1;
        LCALL   ?Subroutine8 & 0xFFFF
//  297                         i=0;
??CrossCallReturnLabel_23:
        SJMP    ??CrossCallReturnLabel_2
//  298                         while(Recdata_GPGGA[i_JingDu+1]!=',')
//  299                         {
//  300                                 JingDu[i++]=Recdata_GPGGA[i_JingDu+1];
??handle_9:
        MOVX    A,@DPTR
        PUSH    A
        CFI CFA_SP SP+-6
        MOV     A,#JingDu & 0xff
        ADD     A,R0
        MOV     DPL,A
        MOV     A,#(JingDu >> 8) & 0xff
        ADDC    A,R1
        MOV     DPH,A
        POP     A
        CFI CFA_SP SP+-5
        LCALL   ?Subroutine1 & 0xFFFF
//  301                                 i_JingDu++;
//  302                         }
??CrossCallReturnLabel_2:
        LCALL   ?Subroutine7 & 0xFFFF
??CrossCallReturnLabel_20:
        JNZ     ??handle_9
//  303                         uint i_E=i_JingDu+1;
        MOV     A,R2
        ADD     A,#0x1
        MOV     R0,A
        MOV     A,R3
        SJMP    ??handle_10
//  304                         i=0;
//  305                         while(Recdata_GPGGA[i_E+1]!=',')
//  306                         {
//  307                                 i_E++;
??handle_11:
        MOV     A,R0
        ADD     A,#0x1
        INC     R0
        MOV     A,R1
//  308                         }
??handle_10:
        LCALL   ?Subroutine2 & 0xFFFF
??CrossCallReturnLabel_6:
        JNZ     ??handle_11
//  309                         uint i_temp=i_E+1;
//  310                         i=0;
//  311                         while(Recdata_GPGGA[i_temp+1]!=',')
//  312                         {
//  313                                 i_temp++;
??handle_12:
        MOV     A,R0
        ADD     A,#0x1
        INC     R0
        MOV     A,R1
        LCALL   ?Subroutine2 & 0xFFFF
//  314                         }
??CrossCallReturnLabel_7:
        JNZ     ??handle_12
//  315                         uint i_WeiXing=i_temp+1;
        LCALL   ?Subroutine8 & 0xFFFF
//  316                         i=0;
??CrossCallReturnLabel_24:
        SJMP    ??CrossCallReturnLabel_3
//  317                         while(Recdata_GPGGA[i_WeiXing+1]!=',')
//  318                         {
//  319                                 WeiXing[i++]=Recdata_GPGGA[i_WeiXing+1];
??handle_13:
        MOVX    A,@DPTR
        PUSH    A
        CFI CFA_SP SP+-6
        MOV     A,#WeiXing & 0xff
        ADD     A,R0
        MOV     DPL,A
        MOV     A,#(WeiXing >> 8) & 0xff
        ADDC    A,R1
        MOV     DPH,A
        POP     A
        CFI CFA_SP SP+-5
        LCALL   ?Subroutine1 & 0xFFFF
//  320                                 i_WeiXing++;
//  321                         }
??CrossCallReturnLabel_3:
        LCALL   ?Subroutine7 & 0xFFFF
??CrossCallReturnLabel_21:
        JNZ     ??handle_13
//  322                         uint i_W=i_WeiXing+1;
        MOV     A,R2
        ADD     A,#0x1
        MOV     R0,A
        MOV     A,R3
        SJMP    ??handle_14
//  323                         i=0;
//  324                         while(Recdata_GPGGA[i_W+1]!=',')
//  325                         {         
//  326                                 i_W++;
??handle_15:
        MOV     A,R0
        ADD     A,#0x1
        INC     R0
        MOV     A,R1
//  327                         }
??handle_14:
        LCALL   ?Subroutine2 & 0xFFFF
??CrossCallReturnLabel_8:
        JNZ     ??handle_15
//  328                         uint i_GaoDu=i_W+1;
        LCALL   ?Subroutine8 & 0xFFFF
//  329                         i=0;
??CrossCallReturnLabel_25:
        SJMP    ??CrossCallReturnLabel_4
//  330                         while(Recdata_GPGGA[i_GaoDu+1]!=',')
//  331                         {    
//  332                                 GaoDu[i++]=Recdata_GPGGA[i_GaoDu+1];
??handle_16:
        MOVX    A,@DPTR
        PUSH    A
        CFI CFA_SP SP+-6
        MOV     A,#GaoDu & 0xff
        ADD     A,R0
        MOV     DPL,A
        MOV     A,#(GaoDu >> 8) & 0xff
        ADDC    A,R1
        MOV     DPH,A
        POP     A
        CFI CFA_SP SP+-5
        LCALL   ?Subroutine1 & 0xFFFF
//  333                                 i_GaoDu++;
//  334                         }
??CrossCallReturnLabel_4:
        LCALL   ?Subroutine7 & 0xFFFF
??CrossCallReturnLabel_22:
        JNZ     ??handle_16
//  335                         check = 295;
        MOV     DPTR,#check
        MOV     A,#0x27
        MOVX    @DPTR,A
        INC     DPTR
        MOV     A,#0x1
        MOVX    @DPTR,A
//  336                 }
//  337                 check=check+1;
??handle_1:
        MOV     DPTR,#check
        LCALL   ?Subroutine6 & 0xFFFF
//  338         } 	  
??CrossCallReturnLabel_17:
        MOVX    @DPTR,A
        MOV     DPTR,#check
        CLR     C
        MOVX    A,@DPTR
        SUBB    A,#0x27
        INC     DPTR
        MOVX    A,@DPTR
        SUBB    A,#0x1
        JNC     $+5
        LJMP    ??handle_0 & 0xFFFF
//  339 }
        POP     DPH
        CFI DPH0 SameValue
        CFI CFA_SP SP+-4
        POP     DPL
        CFI DPL0 SameValue
        CFI CFA_SP SP+-3
        LJMP    ?BRET
        CFI EndBlock cfiBlock17

        RSEG BANKED_CODE:CODE:NOROOT(0)
?Subroutine8:
        CFI Block cfiCond18 Using cfiCommon0
        CFI NoFunction
        CFI Conditional ??CrossCallReturnLabel_23
        CFI DPL0 Frame(CFA_SP, 4)
        CFI DPH0 Frame(CFA_SP, 5)
        CFI CFA_SP SP+-5
        CFI Block cfiCond19 Using cfiCommon0
        CFI (cfiCond19) NoFunction
        CFI (cfiCond19) Conditional ??CrossCallReturnLabel_24
        CFI (cfiCond19) DPL0 Frame(CFA_SP, 4)
        CFI (cfiCond19) DPH0 Frame(CFA_SP, 5)
        CFI (cfiCond19) CFA_SP SP+-5
        CFI Block cfiCond20 Using cfiCommon0
        CFI (cfiCond20) NoFunction
        CFI (cfiCond20) Conditional ??CrossCallReturnLabel_25
        CFI (cfiCond20) DPL0 Frame(CFA_SP, 4)
        CFI (cfiCond20) DPH0 Frame(CFA_SP, 5)
        CFI (cfiCond20) CFA_SP SP+-5
        CFI Block cfiPicker21 Using cfiCommon1
        CFI (cfiPicker21) NoFunction
        CFI (cfiPicker21) Picker
        MOV     A,R0
        ADD     A,#0x1
        MOV     R2,A
        MOV     A,R1
        ADDC    A,#0x0
        MOV     R3,A
        MOV     R0,#0x0
        MOV     R1,#0x0
        RET
        CFI EndBlock cfiCond18
        CFI EndBlock cfiCond19
        CFI EndBlock cfiCond20
        CFI EndBlock cfiPicker21

        RSEG BANKED_CODE:CODE:NOROOT(0)
?Subroutine7:
        CFI Block cfiCond22 Using cfiCommon0
        CFI NoFunction
        CFI Conditional ??CrossCallReturnLabel_18
        CFI DPL0 Frame(CFA_SP, 4)
        CFI DPH0 Frame(CFA_SP, 5)
        CFI CFA_SP SP+-5
        CFI Block cfiCond23 Using cfiCommon0
        CFI (cfiCond23) NoFunction
        CFI (cfiCond23) Conditional ??CrossCallReturnLabel_19
        CFI (cfiCond23) DPL0 Frame(CFA_SP, 4)
        CFI (cfiCond23) DPH0 Frame(CFA_SP, 5)
        CFI (cfiCond23) CFA_SP SP+-5
        CFI Block cfiCond24 Using cfiCommon0
        CFI (cfiCond24) NoFunction
        CFI (cfiCond24) Conditional ??CrossCallReturnLabel_20
        CFI (cfiCond24) DPL0 Frame(CFA_SP, 4)
        CFI (cfiCond24) DPH0 Frame(CFA_SP, 5)
        CFI (cfiCond24) CFA_SP SP+-5
        CFI Block cfiCond25 Using cfiCommon0
        CFI (cfiCond25) NoFunction
        CFI (cfiCond25) Conditional ??CrossCallReturnLabel_21
        CFI (cfiCond25) DPL0 Frame(CFA_SP, 4)
        CFI (cfiCond25) DPH0 Frame(CFA_SP, 5)
        CFI (cfiCond25) CFA_SP SP+-5
        CFI Block cfiCond26 Using cfiCommon0
        CFI (cfiCond26) NoFunction
        CFI (cfiCond26) Conditional ??CrossCallReturnLabel_22
        CFI (cfiCond26) DPL0 Frame(CFA_SP, 4)
        CFI (cfiCond26) DPH0 Frame(CFA_SP, 5)
        CFI (cfiCond26) CFA_SP SP+-5
        CFI Block cfiPicker27 Using cfiCommon1
        CFI (cfiPicker27) NoFunction
        CFI (cfiPicker27) Picker
        MOV     A,#(Recdata_GPGGA + 1) & 0xff
        ADD     A,R2
        MOV     DPL,A
        MOV     A,#((Recdata_GPGGA + 1) >> 8) & 0xff
        ADDC    A,R3
        MOV     DPH,A
        MOVX    A,@DPTR
        XRL     A,#0x2c
        RET
        CFI EndBlock cfiCond22
        CFI EndBlock cfiCond23
        CFI EndBlock cfiCond24
        CFI EndBlock cfiCond25
        CFI EndBlock cfiCond26
        CFI EndBlock cfiPicker27

        RSEG BANKED_CODE:CODE:NOROOT(0)
?Subroutine6:
        CFI Block cfiCond28 Using cfiCommon0
        CFI NoFunction
        CFI Conditional ??CrossCallReturnLabel_16
        CFI DPL0 Frame(CFA_SP, 4)
        CFI DPH0 Frame(CFA_SP, 5)
        CFI CFA_SP SP+-5
        CFI Block cfiCond29 Using cfiCommon0
        CFI (cfiCond29) NoFunction
        CFI (cfiCond29) Conditional ??CrossCallReturnLabel_17
        CFI (cfiCond29) DPL0 Frame(CFA_SP, 4)
        CFI (cfiCond29) DPH0 Frame(CFA_SP, 5)
        CFI (cfiCond29) CFA_SP SP+-5
        CFI Block cfiPicker30 Using cfiCommon1
        CFI (cfiPicker30) NoFunction
        CFI (cfiPicker30) Picker
        MOVX    A,@DPTR
        ADD     A,#0x1
        MOVX    @DPTR,A
        INC     DPTR
        MOVX    A,@DPTR
        ADDC    A,#0x0
        RET
        CFI EndBlock cfiCond28
        CFI EndBlock cfiCond29
        CFI EndBlock cfiPicker30

        RSEG BANKED_CODE:CODE:NOROOT(0)
?Subroutine2:
        CFI Block cfiCond31 Using cfiCommon0
        CFI NoFunction
        CFI Conditional ??CrossCallReturnLabel_5
        CFI DPL0 Frame(CFA_SP, 4)
        CFI DPH0 Frame(CFA_SP, 5)
        CFI CFA_SP SP+-5
        CFI Block cfiCond32 Using cfiCommon0
        CFI (cfiCond32) NoFunction
        CFI (cfiCond32) Conditional ??CrossCallReturnLabel_6
        CFI (cfiCond32) DPL0 Frame(CFA_SP, 4)
        CFI (cfiCond32) DPH0 Frame(CFA_SP, 5)
        CFI (cfiCond32) CFA_SP SP+-5
        CFI Block cfiCond33 Using cfiCommon0
        CFI (cfiCond33) NoFunction
        CFI (cfiCond33) Conditional ??CrossCallReturnLabel_7
        CFI (cfiCond33) DPL0 Frame(CFA_SP, 4)
        CFI (cfiCond33) DPH0 Frame(CFA_SP, 5)
        CFI (cfiCond33) CFA_SP SP+-5
        CFI Block cfiCond34 Using cfiCommon0
        CFI (cfiCond34) NoFunction
        CFI (cfiCond34) Conditional ??CrossCallReturnLabel_8
        CFI (cfiCond34) DPL0 Frame(CFA_SP, 4)
        CFI (cfiCond34) DPH0 Frame(CFA_SP, 5)
        CFI (cfiCond34) CFA_SP SP+-5
        CFI Block cfiPicker35 Using cfiCommon1
        CFI (cfiPicker35) NoFunction
        CFI (cfiPicker35) Picker
        ADDC    A,#0x0
        MOV     R1,A
        MOV     A,#(Recdata_GPGGA + 1) & 0xff
        ADD     A,R0
        MOV     DPL,A
        MOV     A,#((Recdata_GPGGA + 1) >> 8) & 0xff
        ADDC    A,R1
        MOV     DPH,A
        MOVX    A,@DPTR
        XRL     A,#0x2c
        RET
        CFI EndBlock cfiCond31
        CFI EndBlock cfiCond32
        CFI EndBlock cfiCond33
        CFI EndBlock cfiCond34
        CFI EndBlock cfiPicker35

        RSEG BANKED_CODE:CODE:NOROOT(0)
?Subroutine1:
        CFI Block cfiCond36 Using cfiCommon0
        CFI NoFunction
        CFI Conditional ??CrossCallReturnLabel_0
        CFI DPL0 Frame(CFA_SP, 4)
        CFI DPH0 Frame(CFA_SP, 5)
        CFI CFA_SP SP+-5
        CFI Block cfiCond37 Using cfiCommon0
        CFI (cfiCond37) NoFunction
        CFI (cfiCond37) Conditional ??CrossCallReturnLabel_1
        CFI (cfiCond37) DPL0 Frame(CFA_SP, 4)
        CFI (cfiCond37) DPH0 Frame(CFA_SP, 5)
        CFI (cfiCond37) CFA_SP SP+-5
        CFI Block cfiCond38 Using cfiCommon0
        CFI (cfiCond38) NoFunction
        CFI (cfiCond38) Conditional ??CrossCallReturnLabel_2
        CFI (cfiCond38) DPL0 Frame(CFA_SP, 4)
        CFI (cfiCond38) DPH0 Frame(CFA_SP, 5)
        CFI (cfiCond38) CFA_SP SP+-5
        CFI Block cfiCond39 Using cfiCommon0
        CFI (cfiCond39) NoFunction
        CFI (cfiCond39) Conditional ??CrossCallReturnLabel_3
        CFI (cfiCond39) DPL0 Frame(CFA_SP, 4)
        CFI (cfiCond39) DPH0 Frame(CFA_SP, 5)
        CFI (cfiCond39) CFA_SP SP+-5
        CFI Block cfiCond40 Using cfiCommon0
        CFI (cfiCond40) NoFunction
        CFI (cfiCond40) Conditional ??CrossCallReturnLabel_4
        CFI (cfiCond40) DPL0 Frame(CFA_SP, 4)
        CFI (cfiCond40) DPH0 Frame(CFA_SP, 5)
        CFI (cfiCond40) CFA_SP SP+-5
        CFI Block cfiPicker41 Using cfiCommon1
        CFI (cfiPicker41) NoFunction
        CFI (cfiPicker41) Picker
        MOVX    @DPTR,A
        MOV     A,R0
        ADD     A,#0x1
        INC     R0
        MOV     A,R1
        ADDC    A,#0x0
        MOV     R1,A
        MOV     A,R2
        ADD     A,#0x1
        INC     R2
        MOV     A,R3
        ADDC    A,#0x0
        MOV     R3,A
        RET
        CFI EndBlock cfiCond36
        CFI EndBlock cfiCond37
        CFI EndBlock cfiCond38
        CFI EndBlock cfiCond39
        CFI EndBlock cfiCond40
        CFI EndBlock cfiPicker41
//  340 

        RSEG BANKED_CODE:CODE:NOROOT(0)
//  341 void GpsMeasurement_Init( uint8 task_id )
GpsMeasurement_Init:
        CFI Block cfiBlock42 Using cfiCommon0
        CFI Function GpsMeasurement_Init
        CODE
//  342 {
        FUNCALL GpsMeasurement_Init, osal_start_timerEx
        LOCFRAME ISTACK, 0, STACK
        LOCFRAME PSTACK, 0, STACK
        LOCFRAME XSTACK, 9, STACK
        LOCFRAME IOVERLAY, 0, STATIC
        LOCFRAME DOVERLAY, 0, STATIC
        ARGFRAME ISTACK, 0, STACK
        ARGFRAME PSTACK, 0, STACK
        ARGFRAME XSTACK, 9, STACK
        ARGFRAME IOVERLAY, 0, STATIC
        ARGFRAME DOVERLAY, 0, STATIC
        FUNCALL GpsMeasurement_Init, RegisterForKeys
        LOCFRAME ISTACK, 0, STACK
        LOCFRAME PSTACK, 0, STACK
        LOCFRAME XSTACK, 9, STACK
        LOCFRAME IOVERLAY, 0, STATIC
        LOCFRAME DOVERLAY, 0, STATIC
        ARGFRAME ISTACK, 0, STACK
        ARGFRAME PSTACK, 0, STACK
        ARGFRAME XSTACK, 9, STACK
        ARGFRAME IOVERLAY, 0, STATIC
        ARGFRAME DOVERLAY, 0, STATIC
        MOV     A,#-0x9
        LCALL   ?BANKED_ENTER_XDATA
        CFI DPH0 load(1, XDATA, add(CFA_XSP16, literal(-1)))
        CFI DPL0 load(1, XDATA, add(CFA_XSP16, literal(-2)))
        CFI ?BRET_EXT load(1, XDATA, add(CFA_XSP16, literal(-3)))
        CFI ?RET_HIGH load(1, XDATA, add(CFA_XSP16, literal(-4)))
        CFI ?RET_LOW load(1, XDATA, add(CFA_XSP16, literal(-5)))
        CFI R7 load(1, XDATA, add(CFA_XSP16, literal(-6)))
        CFI V0 load(1, XDATA, add(CFA_XSP16, literal(-7)))
        CFI VB load(1, XDATA, add(CFA_XSP16, literal(-8)))
        CFI R6 load(1, XDATA, add(CFA_XSP16, literal(-9)))
        CFI CFA_SP SP+0
        CFI CFA_XSP16 add(XSP16, 9)
        ; Saved register size: 9
        ; Auto size: 0
        MOV     A,R1
//  343   Gps_Uart_TaskID = task_id;
        MOV     DPTR,#Gps_Uart_TaskID
        MOVX    @DPTR,A
//  344   Gps_Uart_TransID = 0;
        MOV     DPTR,#Gps_Uart_TransID
        CLR     A
        MOVX    @DPTR,A
//  345 
//  346 #if defined ( LCD_SUPPORTED )
//  347   //HalLcdWriteString( "TempHumApp", HAL_LCD_LINE_1 );
//  348 #endif
//  349   
//  350   osal_start_timerEx( Gps_Uart_TaskID,
//  351                         GPSMEASUREMENT_EVT,
//  352                         GPSMEASUREMENT_TIMEOUT );
        ; Setup parameters for call to function osal_start_timerEx
        MOV     R4,#0x20
        MOV     R5,#0x3
        MOV     R2,#0x1
        MOV     R3,A
        LCALL   ??osal_start_timerEx?relay
//  353   
//  354   RegisterForKeys( Gps_Uart_TaskID );
        ; Setup parameters for call to function RegisterForKeys
        MOV     DPTR,#Gps_Uart_TaskID
        MOVX    A,@DPTR
        MOV     R1,A
        LCALL   ??RegisterForKeys?relay
//  355 }
        LJMP    ?Subroutine0 & 0xFFFF
        CFI EndBlock cfiBlock42

        RSEG BANKED_CODE:CODE:NOROOT(0)
//  356 uint16 GpsMeasurement_ProcessEvent( uint8 task_id, uint16 events )
GpsMeasurement_ProcessEvent:
        CFI Block cfiBlock43 Using cfiCommon0
        CFI Function GpsMeasurement_ProcessEvent
        CODE
//  357 {
        FUNCALL GpsMeasurement_ProcessEvent, HalUARTRead
        LOCFRAME ISTACK, 0, STACK
        LOCFRAME PSTACK, 0, STACK
        LOCFRAME XSTACK, 9, STACK
        LOCFRAME IOVERLAY, 0, STATIC
        LOCFRAME DOVERLAY, 0, STATIC
        ARGFRAME ISTACK, 0, STACK
        ARGFRAME PSTACK, 0, STACK
        ARGFRAME XSTACK, 9, STACK
        ARGFRAME IOVERLAY, 0, STATIC
        ARGFRAME DOVERLAY, 0, STATIC
        FUNCALL GpsMeasurement_ProcessEvent, handle
        LOCFRAME ISTACK, 0, STACK
        LOCFRAME PSTACK, 0, STACK
        LOCFRAME XSTACK, 9, STACK
        LOCFRAME IOVERLAY, 0, STATIC
        LOCFRAME DOVERLAY, 0, STATIC
        ARGFRAME ISTACK, 0, STACK
        ARGFRAME PSTACK, 0, STACK
        ARGFRAME XSTACK, 9, STACK
        ARGFRAME IOVERLAY, 0, STATIC
        ARGFRAME DOVERLAY, 0, STATIC
        FUNCALL GpsMeasurement_ProcessEvent, osal_start_timerEx
        LOCFRAME ISTACK, 0, STACK
        LOCFRAME PSTACK, 0, STACK
        LOCFRAME XSTACK, 9, STACK
        LOCFRAME IOVERLAY, 0, STATIC
        LOCFRAME DOVERLAY, 0, STATIC
        ARGFRAME ISTACK, 0, STACK
        ARGFRAME PSTACK, 0, STACK
        ARGFRAME XSTACK, 9, STACK
        ARGFRAME IOVERLAY, 0, STATIC
        ARGFRAME DOVERLAY, 0, STATIC
        MOV     A,#-0x9
        LCALL   ?BANKED_ENTER_XDATA
        CFI DPH0 load(1, XDATA, add(CFA_XSP16, literal(-1)))
        CFI DPL0 load(1, XDATA, add(CFA_XSP16, literal(-2)))
        CFI ?BRET_EXT load(1, XDATA, add(CFA_XSP16, literal(-3)))
        CFI ?RET_HIGH load(1, XDATA, add(CFA_XSP16, literal(-4)))
        CFI ?RET_LOW load(1, XDATA, add(CFA_XSP16, literal(-5)))
        CFI R7 load(1, XDATA, add(CFA_XSP16, literal(-6)))
        CFI V0 load(1, XDATA, add(CFA_XSP16, literal(-7)))
        CFI VB load(1, XDATA, add(CFA_XSP16, literal(-8)))
        CFI R6 load(1, XDATA, add(CFA_XSP16, literal(-9)))
        CFI CFA_SP SP+0
        CFI CFA_XSP16 add(XSP16, 9)
        ; Saved register size: 9
        ; Auto size: 0
        MOV     A,R2
        MOV     R6,A
        MOV     A,R3
        MOV     R7,A
//  358   if ( events & GPSMEASUREMENT_EVT )
        MOV     A,R6
        MOV     C,0xE0 /* A   */.0
        JNC     ??GpsMeasurement_ProcessEvent_0
//  359   {
//  360 
//  361   HalUARTRead(0, Recdata, 100);
        ; Setup parameters for call to function HalUARTRead
        MOV     R4,#0x64
        MOV     R5,#0x0
        MOV     R2,#Recdata & 0xff
        MOV     R3,#(Recdata >> 8) & 0xff
        MOV     R1,#0x0
        LCALL   ??HalUARTRead?relay
//  362   handle();
        ; Setup parameters for call to function handle
        LCALL   ??handle?relay
//  363   osal_start_timerEx( Gps_Uart_TaskID,
//  364                         GPSMEASUREMENT_EVT,
//  365                         GPSMEASUREMENT_TIMEOUT );
        ; Setup parameters for call to function osal_start_timerEx
        MOV     R4,#0x20
        MOV     R5,#0x3
        MOV     R2,#0x1
        MOV     R3,#0x0
        MOV     DPTR,#Gps_Uart_TaskID
        LCALL   ?Subroutine4 & 0xFFFF
//  366 
//  367 
//  368 #if defined ( LCD_SUPPORTED )
//  369 #endif
//  370 
//  371     // return unprocessed events
//  372     return (events ^ GPSMEASUREMENT_EVT);
//  373   }
??CrossCallReturnLabel_13:
        MOV     R3,A
        SJMP    ??GpsMeasurement_ProcessEvent_1
//  374 
//  375   // Discard unknown events
//  376   return 0;
??GpsMeasurement_ProcessEvent_0:
        MOV     R2,#0x0
        MOV     R3,#0x0
??GpsMeasurement_ProcessEvent_1:
        LJMP    ?Subroutine0 & 0xFFFF
        CFI EndBlock cfiBlock43
//  377 }

        RSEG BANKED_CODE:CODE:NOROOT(0)
?Subroutine4:
        CFI Block cfiCond44 Using cfiCommon0
        CFI NoFunction
        CFI Conditional ??CrossCallReturnLabel_12
        CFI R6 load(1, XDATA, add(CFA_XSP16, literal(-12)))
        CFI VB load(1, XDATA, add(CFA_XSP16, literal(-11)))
        CFI V0 load(1, XDATA, add(CFA_XSP16, literal(-10)))
        CFI V1 load(1, XDATA, add(CFA_XSP16, literal(-9)))
        CFI V2 load(1, XDATA, add(CFA_XSP16, literal(-8)))
        CFI V3 load(1, XDATA, add(CFA_XSP16, literal(-7)))
        CFI R7 load(1, XDATA, add(CFA_XSP16, literal(-6)))
        CFI ?RET_LOW load(1, XDATA, add(CFA_XSP16, literal(-5)))
        CFI ?RET_HIGH load(1, XDATA, add(CFA_XSP16, literal(-4)))
        CFI ?BRET_EXT load(1, XDATA, add(CFA_XSP16, literal(-3)))
        CFI DPL0 load(1, XDATA, add(CFA_XSP16, literal(-2)))
        CFI DPH0 load(1, XDATA, add(CFA_XSP16, literal(-1)))
        CFI CFA_SP SP+0
        CFI CFA_XSP16 add(XSP16, 12)
        CFI Block cfiCond45 Using cfiCommon0
        CFI (cfiCond45) NoFunction
        CFI (cfiCond45) Conditional ??CrossCallReturnLabel_13
        CFI (cfiCond45) R6 load(1, XDATA, add(CFA_XSP16, literal(-9)))
        CFI (cfiCond45) VB load(1, XDATA, add(CFA_XSP16, literal(-8)))
        CFI (cfiCond45) V0 load(1, XDATA, add(CFA_XSP16, literal(-7)))
        CFI (cfiCond45) R7 load(1, XDATA, add(CFA_XSP16, literal(-6)))
        CFI (cfiCond45) ?RET_LOW load(1, XDATA, add(CFA_XSP16, literal(-5)))
        CFI (cfiCond45) ?RET_HIGH load(1, XDATA, add(CFA_XSP16, literal(-4)))
        CFI (cfiCond45) ?BRET_EXT load(1, XDATA, add(CFA_XSP16, literal(-3)))
        CFI (cfiCond45) DPL0 load(1, XDATA, add(CFA_XSP16, literal(-2)))
        CFI (cfiCond45) DPH0 load(1, XDATA, add(CFA_XSP16, literal(-1)))
        CFI (cfiCond45) CFA_SP SP+0
        CFI (cfiCond45) CFA_XSP16 add(XSP16, 9)
        CFI Block cfiPicker46 Using cfiCommon1
        CFI (cfiPicker46) NoFunction
        CFI (cfiPicker46) Picker
        MOVX    A,@DPTR
        MOV     R1,A
        LCALL   ??osal_start_timerEx?relay
        MOV     A,R6
        XRL     A,#0x1
        MOV     R2,A
        MOV     A,R7
        RET
        CFI EndBlock cfiCond44
        CFI EndBlock cfiCond45
        CFI EndBlock cfiPicker46

        RSEG XDATA_ID:CODE:NOROOT(0)
`?<Initializer for Recdata>`:
        DB 54H, 45H, 53H, 54H, 44H, 41H, 54H, 41H
        DB 53H, 24H, 47H, 50H, 47H, 47H, 41H, 2CH
        DB 30H, 33H, 33H, 34H, 31H, 30H, 2EH, 30H
        DB 30H, 30H, 2CH, 32H, 32H, 33H, 32H, 2EH
        DB 31H, 37H, 34H, 35H, 2CH, 4EH, 2CH, 31H
        DB 31H, 34H, 30H, 31H, 2EH, 31H, 39H, 32H
        DB 30H, 2CH, 45H, 2CH, 31H, 2CH, 30H, 37H
        DB 2CH, 31H, 2EH, 31H, 2CH, 31H, 30H, 37H
        DB 2EH, 31H, 34H, 2CH, 4DH, 2CH, 30H, 2EH
        DB 30H, 30H, 2CH, 4DH, 2CH, 2CH, 2AH, 36H
        DB 34H, 0
        DB 0, 0, 0, 0, 0, 0, 0, 0
        DB 0, 0, 0, 0, 0, 0, 0, 0
        DB 0, 0, 0, 0, 0, 0, 0, 0
        DB 0, 0, 0, 0, 0, 0, 0, 0
        DB 0, 0, 0, 0, 0, 0, 0, 0
        DB 0, 0, 0, 0, 0, 0, 0, 0
        DB 0, 0, 0, 0, 0, 0, 0, 0
        DB 0, 0, 0, 0, 0, 0, 0, 0
        DB 0, 0, 0, 0, 0, 0, 0, 0
        DB 0, 0, 0, 0, 0, 0, 0, 0
        DB 0, 0, 0, 0, 0, 0, 0, 0
        DB 0, 0, 0, 0, 0, 0, 0, 0
        DB 0, 0, 0, 0, 0, 0, 0, 0
        DB 0, 0, 0, 0, 0, 0, 0, 0
        DB 0, 0, 0, 0, 0, 0, 0, 0
        DB 0, 0, 0, 0, 0, 0, 0, 0
        DB 0, 0, 0, 0, 0, 0, 0, 0
        DB 0, 0, 0, 0, 0, 0, 0, 0
        DB 0, 0, 0, 0, 0, 0, 0, 0
        DB 0, 0, 0, 0, 0, 0, 0, 0
        DB 0, 0, 0, 0, 0, 0, 0, 0
        DB 0, 0, 0, 0, 0, 0, 0, 0
        DB 0, 0, 0, 0, 0, 0, 0, 0
        DB 0, 0, 0, 0, 0, 0, 0, 0
        DB 0, 0, 0, 0, 0, 0, 0, 0
        DB 0, 0, 0, 0, 0, 0, 0, 0
        DB 0, 0, 0, 0, 0, 0, 0, 0
        DB 0, 0

        RSEG XDATA_ID:CODE:NOROOT(0)
`?<Initializer for Recdata_GPGGA>`:
        DB " "
        DB 0, 0, 0, 0, 0, 0, 0, 0
        DB 0, 0, 0, 0, 0, 0, 0, 0
        DB 0, 0, 0, 0, 0, 0, 0, 0
        DB 0, 0, 0, 0, 0, 0, 0, 0
        DB 0, 0, 0, 0, 0, 0, 0, 0
        DB 0, 0, 0, 0, 0, 0, 0, 0
        DB 0, 0, 0, 0, 0, 0, 0, 0
        DB 0, 0, 0, 0, 0, 0, 0, 0
        DB 0, 0, 0, 0, 0, 0, 0, 0
        DB 0, 0, 0, 0, 0, 0, 0, 0
        DB 0, 0, 0, 0, 0, 0, 0, 0
        DB 0, 0, 0, 0, 0, 0, 0, 0
        DB 0, 0

        RSEG XDATA_ID:CODE:NOROOT(0)
`?<Initializer for UTC>`:
        DB 30H, 30H, 30H, 30H, 30H, 30H

        RSEG XDATA_ID:CODE:NOROOT(0)
`?<Initializer for JingDu>`:
        DB 30H, 30H, 30H, 30H, 30H, 30H, 30H, 30H
        DB 30H, 30H

        RSEG XDATA_ID:CODE:NOROOT(0)
`?<Initializer for WeiDu>`:
        DB 30H, 30H, 30H, 30H, 30H, 30H, 30H, 30H
        DB 30H

        RSEG XDATA_ID:CODE:NOROOT(0)
`?<Initializer for GaoDu>`:
        DB 30H, 30H, 30H, 30H, 30H

        RSEG XDATA_ID:CODE:NOROOT(0)
`?<Initializer for WeiXing>`:
        DB 30H, 30H

        RSEG XDATA_ID:CODE:NOROOT(0)
`?<Initializer for JiBie>`:
        DB 79H

        RSEG XDATA_ID:CODE:NOROOT(0)
`?<Initializer for RXTXflag>`:
        DATA8
        DB 1

        RSEG XDATA_ID:CODE:NOROOT(0)
`?<Initializer for position>`:
        DATA16
        DW 6

        RSEG XDATA_ID:CODE:NOROOT(0)
`?<Initializer for flag>`:
        DATA8
        DB 48

        RSEG BANK_RELAYS:CODE:REORDER:NOROOT(0)
??Gps_Init?relay:
        LCALL   ?BDISPATCH
        DATA
        DC24    Gps_Init

        RSEG BANK_RELAYS:CODE:REORDER:NOROOT(0)
??Gps_ProcessEvent?relay:
        LCALL   ?BDISPATCH
        DATA
        DC24    Gps_ProcessEvent

        RSEG BANK_RELAYS:CODE:REORDER:NOROOT(0)
??Gps_SendTheMessage?relay:
        LCALL   ?BDISPATCH
        DATA
        DC24    Gps_SendTheMessage

        RSEG BANK_RELAYS:CODE:REORDER:NOROOT(0)
??handle?relay:
        LCALL   ?BDISPATCH
        DATA
        DC24    handle

        RSEG BANK_RELAYS:CODE:REORDER:NOROOT(0)
??GpsMeasurement_Init?relay:
        LCALL   ?BDISPATCH
        DATA
        DC24    GpsMeasurement_Init

        RSEG BANK_RELAYS:CODE:REORDER:NOROOT(0)
??GpsMeasurement_ProcessEvent?relay:
        LCALL   ?BDISPATCH
        DATA
        DC24    GpsMeasurement_ProcessEvent

        RSEG XDATA_ROM_C:CONST:REORDER:NOROOT(0)
        DATA8
`?<Constant "Gps:">`:
        DB "Gps:"
        DB 0, 0, 0, 0, 0, 0, 0, 0
        DB 0, 0, 0, 0, 0, 0, 0, 0
        DB 0, 0, 0, 0, 0, 0, 0, 0
        DB 0, 0, 0, 0

        END
// 
// 1 348 bytes in segment BANKED_CODE
//    36 bytes in segment BANK_RELAYS
//     1 byte  in segment SFR_AN
//   437 bytes in segment XDATA_I
//   437 bytes in segment XDATA_ID
//    47 bytes in segment XDATA_ROM_C
//    21 bytes in segment XDATA_Z
// 
// 1 821 bytes of CODE  memory
//    47 bytes of CONST memory
//     0 bytes of DATA  memory (+ 1 byte shared)
//   458 bytes of XDATA memory
//
//Errors: none
//Warnings: none
