///////////////////////////////////////////////////////////////////////////////
//                                                                            /
// IAR C/C++ Compiler V8.10.3.10338/W32 for 8051        12/Feb/2014  09:57:07 /
// Copyright 2004-2011 IAR Systems AB.                                        /
//                                                                            /
//    Core               =  plain                                             /
//    Code model         =  banked                                            /
//    Data model         =  large                                             /
//    Calling convention =  xdata reentrant                                   /
//    Constant location  =  data_rom                                          /
//    Dptr setup         =  1,16                                              /
//    Source file        =  C:\Users\OurEDA\Documents\Tencent                 /
//                          Files\1534143789\FileRecv\ZStack-CC2530-2.5.1a\ZS /
//                          tack-CC2530-2.5.1a\Projects\zstack\Samples\01Temp /
//                          HumApp_ENDEB\Source\DHT11_TempHum.c               /
//    Command line       =  -f "C:\Users\OurEDA\Documents\Tencent             /
//                          Files\1534143789\FileRecv\ZStack-CC2530-2.5.1a\ZS /
//                          tack-CC2530-2.5.1a\Projects\zstack\Samples\01Temp /
//                          HumApp_ENDEB\CC2530DB\..\..\..\Tools\CC2530DB\f8w /
//                          Endev.cfg" (-DCPU32MHZ -DROOT=__near_func         /
//                          -DMAC_CFG_TX_DATA_MAX=3 -DMAC_CFG_TX_MAX=6        /
//                          -DMAC_CFG_RX_MAX=3) -f "C:\Users\OurEDA\Documents /
//                          \Tencent Files\1534143789\FileRecv\ZStack-CC2530- /
//                          2.5.1a\ZStack-CC2530-2.5.1a\Projects\zstack\Sampl /
//                          es\01TempHumApp_ENDEB\CC2530DB\..\..\..\Tools\CC2 /
//                          530DB\f8wConfig.cfg" (-DZIGBEEPRO -DSECURE=0      /
//                          -DZG_SECURE_DYNAMIC=0 -DREFLECTOR                 /
//                          -DDEFAULT_CHANLIST=0x00000800                     /
//                          -DZDAPP_CONFIG_PAN_ID=0xFFFF                      /
//                          -DNWK_START_DELAY=100 -DEXTENDED_JOINING_RANDOM_M /
//                          ASK=0x007F -DBEACON_REQUEST_DELAY=100             /
//                          -DBEACON_REQ_DELAY_MASK=0x00FF                    /
//                          -DLINK_STATUS_JITTER_MASK=0x007F                  /
//                          -DROUTE_EXPIRY_TIME=30 -DAPSC_ACK_WAIT_DURATION_P /
//                          OLLED=3000 -DNWK_INDIRECT_MSG_TIMEOUT=7           /
//                          -DMAX_RREQ_ENTRIES=8 -DAPSC_MAX_FRAME_RETRIES=3   /
//                          -DNWK_MAX_DATA_RETRIES=2                          /
//                          -DMAX_POLL_FAILURE_RETRIES=2 -DMAX_BCAST=9        /
//                          -DAPS_MAX_GROUPS=16 -DMAX_RTG_ENTRIES=40          /
//                          -DNWK_MAX_BINDING_ENTRIES=4                       /
//                          -DMAX_BINDING_CLUSTER_IDS=4                       /
//                          "-DDEFAULT_KEY={0x01, 0x03, 0x05, 0x07, 0x09,     /
//                          0x0B, 0x0D, 0x0F, 0x00, 0x02, 0x04, 0x06, 0x08,   /
//                          0x0A, 0x0C, 0x0D}" -DMAC_MAX_FRAME_SIZE=116       /
//                          -DZDNWKMGR_MIN_TRANSMISSIONS=20 "-DCONST=const    /
//                          __code" -DGENERIC=__generic                       /
//                          -DRFD_RCVC_ALWAYS_ON=FALSE -DPOLL_RATE=1000       /
//                          -DQUEUED_POLL_RATE=100 -DRESPONSE_POLL_RATE=100)  /
//                          -DREJOIN_POLL_RATE=440 "C:\Users\OurEDA\Documents /
//                          \Tencent Files\1534143789\FileRecv\ZStack-CC2530- /
//                          2.5.1a\ZStack-CC2530-2.5.1a\Projects\zstack\Sampl /
//                          es\01TempHumApp_ENDEB\Source\DHT11_TempHum.c" -D  /
//                          NWK_AUTO_POLL -D ZTOOL_P1 -D MT_TASK -D           /
//                          MT_SYS_FUNC -D MT_ZDO_FUNC -D                     /
//                          LCD_SUPPORTED=DEBUG -D xPOWER_SAVING -lC          /
//                          "C:\Users\OurEDA\Documents\Tencent                /
//                          Files\1534143789\FileRecv\ZStack-CC2530-2.5.1a\ZS /
//                          tack-CC2530-2.5.1a\Projects\zstack\Samples\01Temp /
//                          HumApp_ENDEB\CC2530DB\EndDeviceEB\List\" -lA      /
//                          "C:\Users\OurEDA\Documents\Tencent                /
//                          Files\1534143789\FileRecv\ZStack-CC2530-2.5.1a\ZS /
//                          tack-CC2530-2.5.1a\Projects\zstack\Samples\01Temp /
//                          HumApp_ENDEB\CC2530DB\EndDeviceEB\List\"          /
//                          --diag_suppress Pe001,Pa010 -o                    /
//                          "C:\Users\OurEDA\Documents\Tencent                /
//                          Files\1534143789\FileRecv\ZStack-CC2530-2.5.1a\ZS /
//                          tack-CC2530-2.5.1a\Projects\zstack\Samples\01Temp /
//                          HumApp_ENDEB\CC2530DB\EndDeviceEB\Obj\" -e        /
//                          --no_code_motion --debug --core=plain             /
//                          --dptr=16,1 --data_model=large                    /
//                          --code_model=banked --calling_convention=xdata_re /
//                          entrant --place_constants=data_rom                /
//                          --nr_virtual_regs 16 -I                           /
//                          "C:\Users\OurEDA\Documents\Tencent                /
//                          Files\1534143789\FileRecv\ZStack-CC2530-2.5.1a\ZS /
//                          tack-CC2530-2.5.1a\Projects\zstack\Samples\01Temp /
//                          HumApp_ENDEB\CC2530DB\" -I                        /
//                          "C:\Users\OurEDA\Documents\Tencent                /
//                          Files\1534143789\FileRecv\ZStack-CC2530-2.5.1a\ZS /
//                          tack-CC2530-2.5.1a\Projects\zstack\Samples\01Temp /
//                          HumApp_ENDEB\CC2530DB\..\Source\" -I              /
//                          "C:\Users\OurEDA\Documents\Tencent                /
//                          Files\1534143789\FileRecv\ZStack-CC2530-2.5.1a\ZS /
//                          tack-CC2530-2.5.1a\Projects\zstack\Samples\01Temp /
//                          HumApp_ENDEB\CC2530DB\..\..\..\ZMain\TI2530DB\"   /
//                          -I "C:\Users\OurEDA\Documents\Tencent             /
//                          Files\1534143789\FileRecv\ZStack-CC2530-2.5.1a\ZS /
//                          tack-CC2530-2.5.1a\Projects\zstack\Samples\01Temp /
//                          HumApp_ENDEB\CC2530DB\..\..\..\..\..\Components\h /
//                          al\include\" -I "C:\Users\OurEDA\Documents\Tencen /
//                          t Files\1534143789\FileRecv\ZStack-CC2530-2.5.1a\ /
//                          ZStack-CC2530-2.5.1a\Projects\zstack\Samples\01Te /
//                          mpHumApp_ENDEB\CC2530DB\..\..\..\..\..\Components /
//                          \hal\target\CC2530EB\" -I                         /
//                          "C:\Users\OurEDA\Documents\Tencent                /
//                          Files\1534143789\FileRecv\ZStack-CC2530-2.5.1a\ZS /
//                          tack-CC2530-2.5.1a\Projects\zstack\Samples\01Temp /
//                          HumApp_ENDEB\CC2530DB\..\..\..\..\..\Components\m /
//                          ac\include\" -I "C:\Users\OurEDA\Documents\Tencen /
//                          t Files\1534143789\FileRecv\ZStack-CC2530-2.5.1a\ /
//                          ZStack-CC2530-2.5.1a\Projects\zstack\Samples\01Te /
//                          mpHumApp_ENDEB\CC2530DB\..\..\..\..\..\Components /
//                          \mac\high_level\" -I "C:\Users\OurEDA\Documents\T /
//                          encent Files\1534143789\FileRecv\ZStack-CC2530-2. /
//                          5.1a\ZStack-CC2530-2.5.1a\Projects\zstack\Samples /
//                          \01TempHumApp_ENDEB\CC2530DB\..\..\..\..\..\Compo /
//                          nents\mac\low_level\srf04\" -I                    /
//                          "C:\Users\OurEDA\Documents\Tencent                /
//                          Files\1534143789\FileRecv\ZStack-CC2530-2.5.1a\ZS /
//                          tack-CC2530-2.5.1a\Projects\zstack\Samples\01Temp /
//                          HumApp_ENDEB\CC2530DB\..\..\..\..\..\Components\m /
//                          ac\low_level\srf04\single_chip\" -I               /
//                          "C:\Users\OurEDA\Documents\Tencent                /
//                          Files\1534143789\FileRecv\ZStack-CC2530-2.5.1a\ZS /
//                          tack-CC2530-2.5.1a\Projects\zstack\Samples\01Temp /
//                          HumApp_ENDEB\CC2530DB\..\..\..\..\..\Components\m /
//                          t\" -I "C:\Users\OurEDA\Documents\Tencent         /
//                          Files\1534143789\FileRecv\ZStack-CC2530-2.5.1a\ZS /
//                          tack-CC2530-2.5.1a\Projects\zstack\Samples\01Temp /
//                          HumApp_ENDEB\CC2530DB\..\..\..\..\..\Components\o /
//                          sal\include\" -I "C:\Users\OurEDA\Documents\Tence /
//                          nt Files\1534143789\FileRecv\ZStack-CC2530-2.5.1a /
//                          \ZStack-CC2530-2.5.1a\Projects\zstack\Samples\01T /
//                          empHumApp_ENDEB\CC2530DB\..\..\..\..\..\Component /
//                          s\services\saddr\" -I "C:\Users\OurEDA\Documents\ /
//                          Tencent Files\1534143789\FileRecv\ZStack-CC2530-2 /
//                          .5.1a\ZStack-CC2530-2.5.1a\Projects\zstack\Sample /
//                          s\01TempHumApp_ENDEB\CC2530DB\..\..\..\..\..\Comp /
//                          onents\services\sdata\" -I                        /
//                          "C:\Users\OurEDA\Documents\Tencent                /
//                          Files\1534143789\FileRecv\ZStack-CC2530-2.5.1a\ZS /
//                          tack-CC2530-2.5.1a\Projects\zstack\Samples\01Temp /
//                          HumApp_ENDEB\CC2530DB\..\..\..\..\..\Components\s /
//                          tack\af\" -I "C:\Users\OurEDA\Documents\Tencent   /
//                          Files\1534143789\FileRecv\ZStack-CC2530-2.5.1a\ZS /
//                          tack-CC2530-2.5.1a\Projects\zstack\Samples\01Temp /
//                          HumApp_ENDEB\CC2530DB\..\..\..\..\..\Components\s /
//                          tack\nwk\" -I "C:\Users\OurEDA\Documents\Tencent  /
//                          Files\1534143789\FileRecv\ZStack-CC2530-2.5.1a\ZS /
//                          tack-CC2530-2.5.1a\Projects\zstack\Samples\01Temp /
//                          HumApp_ENDEB\CC2530DB\..\..\..\..\..\Components\s /
//                          tack\sapi\" -I "C:\Users\OurEDA\Documents\Tencent /
//                           Files\1534143789\FileRecv\ZStack-CC2530-2.5.1a\Z /
//                          Stack-CC2530-2.5.1a\Projects\zstack\Samples\01Tem /
//                          pHumApp_ENDEB\CC2530DB\..\..\..\..\..\Components\ /
//                          stack\sec\" -I "C:\Users\OurEDA\Documents\Tencent /
//                           Files\1534143789\FileRecv\ZStack-CC2530-2.5.1a\Z /
//                          Stack-CC2530-2.5.1a\Projects\zstack\Samples\01Tem /
//                          pHumApp_ENDEB\CC2530DB\..\..\..\..\..\Components\ /
//                          stack\sys\" -I "C:\Users\OurEDA\Documents\Tencent /
//                           Files\1534143789\FileRecv\ZStack-CC2530-2.5.1a\Z /
//                          Stack-CC2530-2.5.1a\Projects\zstack\Samples\01Tem /
//                          pHumApp_ENDEB\CC2530DB\..\..\..\..\..\Components\ /
//                          stack\zdo\" -I "C:\Users\OurEDA\Documents\Tencent /
//                           Files\1534143789\FileRecv\ZStack-CC2530-2.5.1a\Z /
//                          Stack-CC2530-2.5.1a\Projects\zstack\Samples\01Tem /
//                          pHumApp_ENDEB\CC2530DB\..\..\..\..\..\Components\ /
//                          zmac\" -I "C:\Users\OurEDA\Documents\Tencent      /
//                          Files\1534143789\FileRecv\ZStack-CC2530-2.5.1a\ZS /
//                          tack-CC2530-2.5.1a\Projects\zstack\Samples\01Temp /
//                          HumApp_ENDEB\CC2530DB\..\..\..\..\..\Components\z /
//                          mac\f8w\" -Ohz --require_prototypes               /
//    List file          =  C:\Users\OurEDA\Documents\Tencent                 /
//                          Files\1534143789\FileRecv\ZStack-CC2530-2.5.1a\ZS /
//                          tack-CC2530-2.5.1a\Projects\zstack\Samples\01Temp /
//                          HumApp_ENDEB\CC2530DB\EndDeviceEB\List\DHT11_Temp /
//                          Hum.s51                                           /
//                                                                            /
//                                                                            /
///////////////////////////////////////////////////////////////////////////////

        NAME DHT11_TempHum

        RTMODEL "__SystemLibrary", "CLib"
        RTMODEL "__calling_convention", "xdata_reentrant"
        RTMODEL "__code_model", "banked"
        RTMODEL "__core", "plain"
        RTMODEL "__data_model", "large"
        RTMODEL "__dptr_size", "16"
        RTMODEL "__extended_stack", "disabled"
        RTMODEL "__location_for_constants", "data"
        RTMODEL "__number_of_dptrs", "1"
        RTMODEL "__rt_version", "1"

        RSEG DOVERLAY:DATA:NOROOT(0)
        RSEG IOVERLAY:IDATA:NOROOT(0)
        RSEG ISTACK:IDATA:NOROOT(0)
        RSEG PSTACK:XDATA:NOROOT(0)
        RSEG XSTACK:XDATA:NOROOT(0)

        EXTERN ?BANKED_ENTER_XDATA
        EXTERN ?BANKED_LEAVE_XDATA
        EXTERN ?BDISPATCH
        EXTERN ?BRET
        EXTERN ?V0
        EXTERN __INIT_XDATA_Z

        PUBLIC ??COMM?relay
        FUNCTION ??COMM?relay,0203H
        PUBLIC ??Delay_10us?relay
        FUNCTION ??Delay_10us?relay,0203H
        PUBLIC ??Delay_ms?relay
        FUNCTION ??Delay_ms?relay,0203H
        PUBLIC ??Delay_us?relay
        FUNCTION ??Delay_us?relay,0203H
        PUBLIC ??Read_DHT11?relay
        FUNCTION ??Read_DHT11?relay,0203H
        PUBLIC COMM
        FUNCTION COMM,021203H
        ARGFRAME XSTACK, 0, STACK
        ARGFRAME IOVERLAY, 0, STATIC
        ARGFRAME DOVERLAY, 0, STATIC
        LOCFRAME ISTACK, 2, STACK
        LOCFRAME XSTACK, 9, STACK
        PUBLIC Delay_10us
        FUNCTION Delay_10us,021203H
        ARGFRAME XSTACK, 0, STACK
        LOCFRAME ISTACK, 2, STACK
        PUBLIC Delay_ms
        FUNCTION Delay_ms,021203H
        ARGFRAME XSTACK, 0, STACK
        ARGFRAME IOVERLAY, 0, STATIC
        ARGFRAME DOVERLAY, 0, STATIC
        LOCFRAME XSTACK, 9, STACK
        PUBLIC Delay_us
        FUNCTION Delay_us,021203H
        ARGFRAME XSTACK, 0, STACK
        LOCFRAME ISTACK, 2, STACK
        PUBLIC Hum
        PUBLIC Hum_H
        PUBLIC Hum_L
        PUBWEAK P1DIR
        PUBLIC Read_DHT11
        FUNCTION Read_DHT11,021203H
        ARGFRAME XSTACK, 0, STACK
        LOCFRAME ISTACK, 8, STACK
        PUBLIC Temp
        PUBLIC U8FLAG
        PUBLIC U8RH_data_H
        PUBLIC U8RH_data_H_temp
        PUBLIC U8RH_data_L
        PUBLIC U8RH_data_L_temp
        PUBLIC U8T_data_H
        PUBLIC U8T_data_H_temp
        PUBLIC U8T_data_L
        PUBLIC U8T_data_L_temp
        PUBLIC U8checkdata
        PUBLIC U8checkdata_temp
        PUBLIC U8comdata
        PUBLIC U8temp
        PUBWEAK _A_P1
        
        CFI Names cfiNames0
        CFI StackFrame CFA_SP SP IDATA
        CFI StackFrame CFA_PSP16 PSP16 XDATA
        CFI StackFrame CFA_XSP16 XSP16 XDATA
        CFI StaticOverlayFrame CFA_IOVERLAY IOVERLAY
        CFI StaticOverlayFrame CFA_DOVERLAY DOVERLAY
        CFI Resource `PSW.CY`:1, `B.BR0`:1, `B.BR1`:1, `B.BR2`:1, `B.BR3`:1
        CFI Resource `B.BR4`:1, `B.BR5`:1, `B.BR6`:1, `B.BR7`:1, `VB.BR8`:1
        CFI Resource `VB.BR9`:1, `VB.BR10`:1, `VB.BR11`:1, `VB.BR12`:1
        CFI Resource `VB.BR13`:1, `VB.BR14`:1, `VB.BR15`:1, VB:8, B:8, A:8
        CFI Resource PSW:8, DPL0:8, DPH0:8, R0:8, R1:8, R2:8, R3:8, R4:8, R5:8
        CFI Resource R6:8, R7:8, V0:8, V1:8, V2:8, V3:8, V4:8, V5:8, V6:8, V7:8
        CFI Resource V8:8, V9:8, V10:8, V11:8, V12:8, V13:8, V14:8, V15:8, SP:8
        CFI Resource PSPH:8, PSPL:8, PSP16:16, XSPH:8, XSPL:8, XSP16:16
        CFI VirtualResource ?RET:24
        CFI Resource ?BRET_EXT:8
        CFI VirtualResource ?RET_HIGH:8, ?RET_LOW:8
        CFI ResourceParts PSP16 PSPH, PSPL
        CFI ResourceParts XSP16 XSPH, XSPL
        CFI ResourceParts ?RET ?BRET_EXT, ?RET_HIGH, ?RET_LOW
        CFI EndNames cfiNames0
        
        CFI Common cfiCommon0 Using cfiNames0
        CFI CodeAlign 1
        CFI DataAlign -1
        CFI ReturnAddress ?RET CODE
        CFI CFA_DOVERLAY Used
        CFI CFA_IOVERLAY Used
        CFI CFA_SP SP+-3
        CFI CFA_PSP16 PSP16+0
        CFI CFA_XSP16 XSP16+0
        CFI `PSW.CY` SameValue
        CFI `B.BR0` SameValue
        CFI `B.BR1` SameValue
        CFI `B.BR2` SameValue
        CFI `B.BR3` SameValue
        CFI `B.BR4` SameValue
        CFI `B.BR5` SameValue
        CFI `B.BR6` SameValue
        CFI `B.BR7` SameValue
        CFI `VB.BR8` SameValue
        CFI `VB.BR9` SameValue
        CFI `VB.BR10` SameValue
        CFI `VB.BR11` SameValue
        CFI `VB.BR12` SameValue
        CFI `VB.BR13` SameValue
        CFI `VB.BR14` SameValue
        CFI `VB.BR15` SameValue
        CFI VB SameValue
        CFI B Undefined
        CFI A Undefined
        CFI PSW SameValue
        CFI DPL0 SameValue
        CFI DPH0 SameValue
        CFI R0 Undefined
        CFI R1 Undefined
        CFI R2 Undefined
        CFI R3 Undefined
        CFI R4 Undefined
        CFI R5 Undefined
        CFI R6 SameValue
        CFI R7 SameValue
        CFI V0 SameValue
        CFI V1 SameValue
        CFI V2 SameValue
        CFI V3 SameValue
        CFI V4 SameValue
        CFI V5 SameValue
        CFI V6 SameValue
        CFI V7 SameValue
        CFI V8 SameValue
        CFI V9 SameValue
        CFI V10 SameValue
        CFI V11 SameValue
        CFI V12 SameValue
        CFI V13 SameValue
        CFI V14 SameValue
        CFI V15 SameValue
        CFI PSPH Undefined
        CFI PSPL Undefined
        CFI XSPH Undefined
        CFI XSPL Undefined
        CFI ?RET Concat
        CFI ?BRET_EXT Frame(CFA_SP, 3)
        CFI ?RET_HIGH Frame(CFA_SP, 2)
        CFI ?RET_LOW Frame(CFA_SP, 1)
        CFI EndCommon cfiCommon0
        
        
        CFI Common cfiCommon1 Using cfiNames0
        CFI CodeAlign 1
        CFI DataAlign -1
        CFI ReturnAddress ?RET CODE
        CFI CFA_DOVERLAY Used
        CFI CFA_IOVERLAY Used
        CFI CFA_SP SP+-2
        CFI CFA_PSP16 PSP16+0
        CFI CFA_XSP16 XSP16+0
        CFI `PSW.CY` SameValue
        CFI `B.BR0` SameValue
        CFI `B.BR1` SameValue
        CFI `B.BR2` SameValue
        CFI `B.BR3` SameValue
        CFI `B.BR4` SameValue
        CFI `B.BR5` SameValue
        CFI `B.BR6` SameValue
        CFI `B.BR7` SameValue
        CFI `VB.BR8` SameValue
        CFI `VB.BR9` SameValue
        CFI `VB.BR10` SameValue
        CFI `VB.BR11` SameValue
        CFI `VB.BR12` SameValue
        CFI `VB.BR13` SameValue
        CFI `VB.BR14` SameValue
        CFI `VB.BR15` SameValue
        CFI VB SameValue
        CFI B SameValue
        CFI A SameValue
        CFI PSW SameValue
        CFI DPL0 SameValue
        CFI DPH0 SameValue
        CFI R0 SameValue
        CFI R1 SameValue
        CFI R2 SameValue
        CFI R3 SameValue
        CFI R4 SameValue
        CFI R5 SameValue
        CFI R6 SameValue
        CFI R7 SameValue
        CFI V0 SameValue
        CFI V1 SameValue
        CFI V2 SameValue
        CFI V3 SameValue
        CFI V4 SameValue
        CFI V5 SameValue
        CFI V6 SameValue
        CFI V7 SameValue
        CFI V8 SameValue
        CFI V9 SameValue
        CFI V10 SameValue
        CFI V11 SameValue
        CFI V12 SameValue
        CFI V13 SameValue
        CFI V14 SameValue
        CFI V15 SameValue
        CFI PSPH Undefined
        CFI PSPL Undefined
        CFI XSPH Undefined
        CFI XSPL Undefined
        CFI ?RET Concat
        CFI ?BRET_EXT SameValue
        CFI ?RET_HIGH Frame(CFA_SP, 2)
        CFI ?RET_LOW Frame(CFA_SP, 1)
        CFI EndCommon cfiCommon1
        
Onboard_wait        SYMBOL "Onboard_wait"
??Onboard_wait?relay SYMBOL "?relay", Onboard_wait
COMM                SYMBOL "COMM"
??COMM?relay        SYMBOL "?relay", COMM
Delay_10us          SYMBOL "Delay_10us"
??Delay_10us?relay  SYMBOL "?relay", Delay_10us
Delay_ms            SYMBOL "Delay_ms"
??Delay_ms?relay    SYMBOL "?relay", Delay_ms
Delay_us            SYMBOL "Delay_us"
??Delay_us?relay    SYMBOL "?relay", Delay_us
Read_DHT11          SYMBOL "Read_DHT11"
??Read_DHT11?relay  SYMBOL "?relay", Read_DHT11

        EXTERN Onboard_wait
        FUNCTION Onboard_wait,0202H
        ARGFRAME ISTACK, 2, STACK
        ARGFRAME PSTACK, 0, STACK
        ARGFRAME XSTACK, 9, STACK
        ARGFRAME IOVERLAY, 0, STATIC
        ARGFRAME DOVERLAY, 0, STATIC
        EXTERN ??Onboard_wait?relay
        FUNCTION ??Onboard_wait?relay,00H

// C:\Users\OurEDA\Documents\Tencent Files\1534143789\FileRecv\ZStack-CC2530-2.5.1a\ZStack-CC2530-2.5.1a\Projects\zstack\Samples\01TempHumApp_ENDEB\Source\DHT11_TempHum.c
//    1 //DHT11温度湿度采集基础实验
//    2 
//    3 #include <ioCC2530.h>

        ASEGN SFR_AN:DATA:NOROOT,090H
// union <unnamed> volatile __sfr _A_P1
_A_P1:
        DATA8
        DS 1

        ASEGN SFR_AN:DATA:NOROOT,0feH
// unsigned char volatile __sfr P1DIR
P1DIR:
        DATA8
        DS 1
//    4 #include "OnBoard.h"
//    5 #define uint unsigned int
//    6 #define U8 unsigned char
//    7 
//    8 
//    9 #define DATA_PIN P1_3 
//   10 
//   11 /*******函数声明*********/
//   12 void Delay_us(void);      //1us延时
//   13 void Delay_10us(void);    //10us延时
//   14 void Delay_ms(uint Time); //nms延时
//   15 void COMM(void);          //温湿写入
//   16 void Read_DHT11(void) ;   //温湿传感启动
//   17 
//   18 
//   19 //温湿度定义

        RSEG XDATA_Z:XDATA:NOROOT(0)
        DATA8
//   20 U8 U8FLAG,U8temp;
U8FLAG:
        DS 1
        REQUIRE __INIT_XDATA_Z

        RSEG XDATA_Z:XDATA:NOROOT(0)
        DATA8
U8temp:
        DS 1
        REQUIRE __INIT_XDATA_Z

        RSEG XDATA_Z:XDATA:NOROOT(0)
        DATA8
//   21 U8 Hum_H,Hum_L;           //定义湿度存放变量
Hum_H:
        DS 1
        REQUIRE __INIT_XDATA_Z

        RSEG XDATA_Z:XDATA:NOROOT(0)
        DATA8
Hum_L:
        DS 1
        REQUIRE __INIT_XDATA_Z

        RSEG XDATA_Z:XDATA:NOROOT(0)
        DATA8
//   22 U8 Temp,Hum;              //定义温度存放变量
Temp:
        DS 1
        REQUIRE __INIT_XDATA_Z

        RSEG XDATA_Z:XDATA:NOROOT(0)
        DATA8
Hum:
        DS 1
        REQUIRE __INIT_XDATA_Z

        RSEG XDATA_Z:XDATA:NOROOT(0)
        DATA8
//   23 U8 U8T_data_H,U8T_data_L,U8RH_data_H,U8RH_data_L,U8checkdata;
U8T_data_H:
        DS 1
        REQUIRE __INIT_XDATA_Z

        RSEG XDATA_Z:XDATA:NOROOT(0)
        DATA8
U8T_data_L:
        DS 1
        REQUIRE __INIT_XDATA_Z

        RSEG XDATA_Z:XDATA:NOROOT(0)
        DATA8
U8RH_data_H:
        DS 1
        REQUIRE __INIT_XDATA_Z

        RSEG XDATA_Z:XDATA:NOROOT(0)
        DATA8
U8RH_data_L:
        DS 1
        REQUIRE __INIT_XDATA_Z

        RSEG XDATA_Z:XDATA:NOROOT(0)
        DATA8
U8checkdata:
        DS 1
        REQUIRE __INIT_XDATA_Z

        RSEG XDATA_Z:XDATA:NOROOT(0)
        DATA8
//   24 U8 U8T_data_H_temp,U8T_data_L_temp,U8RH_data_H_temp,U8RH_data_L_temp,U8checkdata_temp;
U8T_data_H_temp:
        DS 1
        REQUIRE __INIT_XDATA_Z

        RSEG XDATA_Z:XDATA:NOROOT(0)
        DATA8
U8T_data_L_temp:
        DS 1
        REQUIRE __INIT_XDATA_Z

        RSEG XDATA_Z:XDATA:NOROOT(0)
        DATA8
U8RH_data_H_temp:
        DS 1
        REQUIRE __INIT_XDATA_Z

        RSEG XDATA_Z:XDATA:NOROOT(0)
        DATA8
U8RH_data_L_temp:
        DS 1
        REQUIRE __INIT_XDATA_Z

        RSEG XDATA_Z:XDATA:NOROOT(0)
        DATA8
U8checkdata_temp:
        DS 1
        REQUIRE __INIT_XDATA_Z

        RSEG XDATA_Z:XDATA:NOROOT(0)
        DATA8
//   25 U8 U8comdata;
U8comdata:
        DS 1
        REQUIRE __INIT_XDATA_Z
//   26 
//   27 
//   28 /****************************
//   29 //延时函数
//   30 *****************************/

        RSEG BANKED_CODE:CODE:NOROOT(0)
//   31 void Delay_us(void)
Delay_us:
        CFI Block cfiBlock0 Using cfiCommon0
        CFI Function Delay_us
        CODE
//   32 {
        FUNCALL Delay_us, Onboard_wait
        LOCFRAME ISTACK, 2, STACK
        LOCFRAME PSTACK, 0, STACK
        LOCFRAME XSTACK, 0, STACK
        LOCFRAME IOVERLAY, 0, STATIC
        LOCFRAME DOVERLAY, 0, STATIC
        ARGFRAME ISTACK, 2, STACK
        ARGFRAME PSTACK, 0, STACK
        ARGFRAME XSTACK, 0, STACK
        ARGFRAME IOVERLAY, 0, STATIC
        ARGFRAME DOVERLAY, 0, STATIC
        PUSH    DPL
        CFI DPL0 Frame(CFA_SP, 4)
        CFI CFA_SP SP+-4
        PUSH    DPH
        CFI DPH0 Frame(CFA_SP, 5)
        CFI CFA_SP SP+-5
        ; Saved register size: 2
        ; Auto size: 0
//   33     MicroWait(1);   
        ; Setup parameters for call to function Onboard_wait
        MOV     R2,#0x1
        CFI EndBlock cfiBlock0
        REQUIRE ?Subroutine0
        ; // Fall through to label ?Subroutine0
//   34 }

        RSEG BANKED_CODE:CODE:NOROOT(0)
?Subroutine0:
        CFI Block cfiBlock1 Using cfiCommon0
        CFI NoFunction
        CFI CFA_SP SP+-5
        CFI DPL0 Frame(CFA_SP, 4)
        CFI DPH0 Frame(CFA_SP, 5)
        MOV     R3,#0x0
        LCALL   ??Onboard_wait?relay
        CFI EndBlock cfiBlock1
        REQUIRE ??Subroutine5_0
        ; // Fall through to label ??Subroutine5_0

        RSEG BANKED_CODE:CODE:NOROOT(0)
??Subroutine5_0:
        CFI Block cfiBlock2 Using cfiCommon0
        CFI NoFunction
        CFI CFA_SP SP+-5
        CFI DPL0 Frame(CFA_SP, 4)
        CFI DPH0 Frame(CFA_SP, 5)
        POP     DPH
        CFI CFA_SP SP+-4
        CFI DPH0 SameValue
        POP     DPL
        CFI CFA_SP SP+-3
        CFI DPL0 SameValue
        LJMP    ?BRET
        CFI EndBlock cfiBlock2
//   35 

        RSEG BANKED_CODE:CODE:NOROOT(0)
//   36 void Delay_10us(void)
Delay_10us:
        CFI Block cfiBlock3 Using cfiCommon0
        CFI Function Delay_10us
        CODE
//   37 {
        FUNCALL Delay_10us, Onboard_wait
        LOCFRAME ISTACK, 2, STACK
        LOCFRAME PSTACK, 0, STACK
        LOCFRAME XSTACK, 0, STACK
        LOCFRAME IOVERLAY, 0, STATIC
        LOCFRAME DOVERLAY, 0, STATIC
        ARGFRAME ISTACK, 2, STACK
        ARGFRAME PSTACK, 0, STACK
        ARGFRAME XSTACK, 0, STACK
        ARGFRAME IOVERLAY, 0, STATIC
        ARGFRAME DOVERLAY, 0, STATIC
        PUSH    DPL
        CFI DPL0 Frame(CFA_SP, 4)
        CFI CFA_SP SP+-4
        PUSH    DPH
        CFI DPH0 Frame(CFA_SP, 5)
        CFI CFA_SP SP+-5
        ; Saved register size: 2
        ; Auto size: 0
//   38    MicroWait(10);
        ; Setup parameters for call to function Onboard_wait
        MOV     R2,#0xa
        SJMP    ?Subroutine0
        CFI EndBlock cfiBlock3
//   39 }
//   40 

        RSEG BANKED_CODE:CODE:NOROOT(0)
//   41 void Delay_ms(uint Time)
Delay_ms:
        CFI Block cfiBlock4 Using cfiCommon0
        CFI Function Delay_ms
        CODE
//   42 {
        FUNCALL Delay_ms, Onboard_wait
        LOCFRAME ISTACK, 0, STACK
        LOCFRAME PSTACK, 0, STACK
        LOCFRAME XSTACK, 9, STACK
        LOCFRAME IOVERLAY, 0, STATIC
        LOCFRAME DOVERLAY, 0, STATIC
        ARGFRAME ISTACK, 0, STACK
        ARGFRAME PSTACK, 0, STACK
        ARGFRAME XSTACK, 9, STACK
        ARGFRAME IOVERLAY, 0, STATIC
        ARGFRAME DOVERLAY, 0, STATIC
        MOV     A,#-0x9
        LCALL   ?BANKED_ENTER_XDATA
        CFI DPH0 load(1, XDATA, add(CFA_XSP16, literal(-1)))
        CFI DPL0 load(1, XDATA, add(CFA_XSP16, literal(-2)))
        CFI ?BRET_EXT load(1, XDATA, add(CFA_XSP16, literal(-3)))
        CFI ?RET_HIGH load(1, XDATA, add(CFA_XSP16, literal(-4)))
        CFI ?RET_LOW load(1, XDATA, add(CFA_XSP16, literal(-5)))
        CFI R7 load(1, XDATA, add(CFA_XSP16, literal(-6)))
        CFI V0 load(1, XDATA, add(CFA_XSP16, literal(-7)))
        CFI VB load(1, XDATA, add(CFA_XSP16, literal(-8)))
        CFI R6 load(1, XDATA, add(CFA_XSP16, literal(-9)))
        CFI CFA_SP SP+0
        CFI CFA_XSP16 add(XSP16, 9)
        ; Saved register size: 9
        ; Auto size: 0
        MOV     A,R2
        MOV     R6,A
        MOV     A,R3
        MOV     R7,A
//   43   unsigned char i;
//   44   while(Time--)
??Delay_ms_0:
        MOV     A,R6
        MOV     R0,A
        MOV     A,R7
        MOV     R1,A
        MOV     A,R0
        ADD     A,#-0x1
        DEC     R6
        MOV     A,R1
        ADDC    A,#-0x1
        MOV     R7,A
        MOV     A,R0
        ORL     A,R1
        JZ      ??Delay_ms_1
//   45   {
//   46     for(i = 0;i<100;i++)
        MOV     ?V0 + 0,#0x64
//   47      Delay_10us();
??Delay_ms_2:
        ; Setup parameters for call to function Onboard_wait
        MOV     R2,#0xa
        MOV     R3,#0x0
        LCALL   ??Onboard_wait?relay
        DEC     ?V0 + 0
        MOV     A,?V0 + 0
        JZ      ??Delay_ms_0
        SJMP    ??Delay_ms_2
        CFI EndBlock cfiBlock4
//   48   }
//   49 }
??Delay_ms_1:
        REQUIRE ?Subroutine1
        ; // Fall through to label ?Subroutine1

        RSEG BANKED_CODE:CODE:NOROOT(0)
?Subroutine1:
        CFI Block cfiBlock5 Using cfiCommon0
        CFI NoFunction
        CFI CFA_SP SP+0
        CFI CFA_XSP16 add(XSP16, 9)
        CFI VB load(1, XDATA, add(CFA_XSP16, literal(-8)))
        CFI DPL0 load(1, XDATA, add(CFA_XSP16, literal(-2)))
        CFI DPH0 load(1, XDATA, add(CFA_XSP16, literal(-1)))
        CFI R6 load(1, XDATA, add(CFA_XSP16, literal(-9)))
        CFI R7 load(1, XDATA, add(CFA_XSP16, literal(-6)))
        CFI V0 load(1, XDATA, add(CFA_XSP16, literal(-7)))
        CFI ?BRET_EXT load(1, XDATA, add(CFA_XSP16, literal(-3)))
        CFI ?RET_HIGH load(1, XDATA, add(CFA_XSP16, literal(-4)))
        CFI ?RET_LOW load(1, XDATA, add(CFA_XSP16, literal(-5)))
        MOV     R7,#0x1
        LJMP    ?BANKED_LEAVE_XDATA
        CFI EndBlock cfiBlock5
//   50 
//   51 
//   52 /***********************
//   53    温湿度传感
//   54 ***********************/

        RSEG BANKED_CODE:CODE:NOROOT(0)
//   55 void COMM(void)	// 温湿写入
COMM:
        CFI Block cfiBlock6 Using cfiCommon0
        CFI Function COMM
        CODE
//   56 {     
        FUNCALL COMM, Onboard_wait
        LOCFRAME ISTACK, 0, STACK
        LOCFRAME PSTACK, 0, STACK
        LOCFRAME XSTACK, 9, STACK
        LOCFRAME IOVERLAY, 0, STATIC
        LOCFRAME DOVERLAY, 0, STATIC
        ARGFRAME ISTACK, 0, STACK
        ARGFRAME PSTACK, 0, STACK
        ARGFRAME XSTACK, 9, STACK
        ARGFRAME IOVERLAY, 0, STATIC
        ARGFRAME DOVERLAY, 0, STATIC
        FUNCALL COMM, Onboard_wait
        LOCFRAME ISTACK, 0, STACK
        LOCFRAME PSTACK, 0, STACK
        LOCFRAME XSTACK, 9, STACK
        LOCFRAME IOVERLAY, 0, STATIC
        LOCFRAME DOVERLAY, 0, STATIC
        ARGFRAME ISTACK, 0, STACK
        ARGFRAME PSTACK, 0, STACK
        ARGFRAME XSTACK, 9, STACK
        ARGFRAME IOVERLAY, 0, STATIC
        ARGFRAME DOVERLAY, 0, STATIC
        FUNCALL COMM, Onboard_wait
        LOCFRAME ISTACK, 0, STACK
        LOCFRAME PSTACK, 0, STACK
        LOCFRAME XSTACK, 9, STACK
        LOCFRAME IOVERLAY, 0, STATIC
        LOCFRAME DOVERLAY, 0, STATIC
        ARGFRAME ISTACK, 0, STACK
        ARGFRAME PSTACK, 0, STACK
        ARGFRAME XSTACK, 9, STACK
        ARGFRAME IOVERLAY, 0, STATIC
        ARGFRAME DOVERLAY, 0, STATIC
        MOV     A,#-0x9
        LCALL   ?BANKED_ENTER_XDATA
        CFI DPH0 load(1, XDATA, add(CFA_XSP16, literal(-1)))
        CFI DPL0 load(1, XDATA, add(CFA_XSP16, literal(-2)))
        CFI ?BRET_EXT load(1, XDATA, add(CFA_XSP16, literal(-3)))
        CFI ?RET_HIGH load(1, XDATA, add(CFA_XSP16, literal(-4)))
        CFI ?RET_LOW load(1, XDATA, add(CFA_XSP16, literal(-5)))
        CFI R7 load(1, XDATA, add(CFA_XSP16, literal(-6)))
        CFI V0 load(1, XDATA, add(CFA_XSP16, literal(-7)))
        CFI VB load(1, XDATA, add(CFA_XSP16, literal(-8)))
        CFI R6 load(1, XDATA, add(CFA_XSP16, literal(-9)))
        CFI CFA_SP SP+0
        CFI CFA_XSP16 add(XSP16, 9)
        ; Saved register size: 9
        ; Auto size: 0
//   57     U8 i;         
//   58     for(i = 0;i<8;i++)    
        MOV     R6,#0x8
//   59     {
//   60      U8FLAG = 2; 
??COMM_0:
        MOV     DPTR,#U8FLAG
        MOV     A,#0x2
        MOVX    @DPTR,A
//   61      DATA_PIN = 0;
        CLR     0x90.3
//   62      DATA_PIN = 1;
        SETB    0x90.3
//   63      while((!DATA_PIN)&&U8FLAG++);
??COMM_1:
        MOV     C,0x90.3
        JC      ??COMM_2
        LCALL   ?Subroutine4 & 0xFFFF
??CrossCallReturnLabel_2:
        JNZ     ??COMM_1
//   64      Delay_10us();
??COMM_2:
        ; Setup parameters for call to function Onboard_wait
        LCALL   ?Subroutine3 & 0xFFFF
//   65      Delay_10us();
//   66      Delay_10us();
//   67      U8temp = 0;
??CrossCallReturnLabel_0:
        MOV     DPTR,#U8temp
        CLR     A
        MOVX    @DPTR,A
//   68      if(DATA_PIN)U8temp = 1;
        MOV     C,0x90.3
        JNC     ??COMM_3
        INC     A
        MOVX    @DPTR,A
//   69      U8FLAG = 2;
??COMM_3:
        MOV     DPTR,#U8FLAG
        MOV     A,#0x2
        MOVX    @DPTR,A
//   70      while((DATA_PIN)&&U8FLAG++);   
??COMM_4:
        MOV     C,0x90.3
        JNC     ??COMM_5
        LCALL   ?Subroutine4 & 0xFFFF
??CrossCallReturnLabel_3:
        JNZ     ??COMM_4
//   71      if(U8FLAG == 1)break;    
??COMM_5:
        MOVX    A,@DPTR
        XRL     A,#0x1
        JZ      ??COMM_6
//   72      U8comdata <<= 1;
//   73      U8comdata |= U8temp; 
        MOV     DPTR,#U8temp
        PUSH    DPL
        CFI CFA_SP SP+-1
        MOV     DPTR,#U8comdata
        MOVX    A,@DPTR
        CLR     C
        RLC     A
        MOV     DPH,#(U8temp >> 8) & 0xff
        POP     DPL
        CFI CFA_SP SP+0
        MOV     R0,A
        MOVX    A,@DPTR
        ORL     A,R0
        MOV     DPTR,#U8comdata
        MOVX    @DPTR,A
//   74      }    
        DEC     R6
        MOV     A,R6
        JNZ     ??COMM_0
//   75 }
??COMM_6:
        SJMP    ?Subroutine1
        CFI EndBlock cfiBlock6
        REQUIRE _A_P1
//   76 

        RSEG BANKED_CODE:CODE:NOROOT(0)
//   77 void Read_DHT11(void)   //温湿传感启动
Read_DHT11:
        CFI Block cfiBlock7 Using cfiCommon0
        CFI Function Read_DHT11
        CODE
//   78 {
        FUNCALL Read_DHT11, Delay_ms
        LOCFRAME ISTACK, 2, STACK
        LOCFRAME PSTACK, 0, STACK
        LOCFRAME XSTACK, 0, STACK
        LOCFRAME IOVERLAY, 0, STATIC
        LOCFRAME DOVERLAY, 0, STATIC
        ARGFRAME ISTACK, 2, STACK
        ARGFRAME PSTACK, 0, STACK
        ARGFRAME XSTACK, 0, STACK
        ARGFRAME IOVERLAY, 0, STATIC
        ARGFRAME DOVERLAY, 0, STATIC
        FUNCALL Read_DHT11, Onboard_wait
        LOCFRAME ISTACK, 2, STACK
        LOCFRAME PSTACK, 0, STACK
        LOCFRAME XSTACK, 0, STACK
        LOCFRAME IOVERLAY, 0, STATIC
        LOCFRAME DOVERLAY, 0, STATIC
        ARGFRAME ISTACK, 2, STACK
        ARGFRAME PSTACK, 0, STACK
        ARGFRAME XSTACK, 0, STACK
        ARGFRAME IOVERLAY, 0, STATIC
        ARGFRAME DOVERLAY, 0, STATIC
        FUNCALL Read_DHT11, Onboard_wait
        LOCFRAME ISTACK, 2, STACK
        LOCFRAME PSTACK, 0, STACK
        LOCFRAME XSTACK, 0, STACK
        LOCFRAME IOVERLAY, 0, STATIC
        LOCFRAME DOVERLAY, 0, STATIC
        ARGFRAME ISTACK, 2, STACK
        ARGFRAME PSTACK, 0, STACK
        ARGFRAME XSTACK, 0, STACK
        ARGFRAME IOVERLAY, 0, STATIC
        ARGFRAME DOVERLAY, 0, STATIC
        FUNCALL Read_DHT11, Onboard_wait
        LOCFRAME ISTACK, 2, STACK
        LOCFRAME PSTACK, 0, STACK
        LOCFRAME XSTACK, 0, STACK
        LOCFRAME IOVERLAY, 0, STATIC
        LOCFRAME DOVERLAY, 0, STATIC
        ARGFRAME ISTACK, 2, STACK
        ARGFRAME PSTACK, 0, STACK
        ARGFRAME XSTACK, 0, STACK
        ARGFRAME IOVERLAY, 0, STATIC
        ARGFRAME DOVERLAY, 0, STATIC
        FUNCALL Read_DHT11, Onboard_wait
        LOCFRAME ISTACK, 2, STACK
        LOCFRAME PSTACK, 0, STACK
        LOCFRAME XSTACK, 0, STACK
        LOCFRAME IOVERLAY, 0, STATIC
        LOCFRAME DOVERLAY, 0, STATIC
        ARGFRAME ISTACK, 2, STACK
        ARGFRAME PSTACK, 0, STACK
        ARGFRAME XSTACK, 0, STACK
        ARGFRAME IOVERLAY, 0, STATIC
        ARGFRAME DOVERLAY, 0, STATIC
        FUNCALL Read_DHT11, COMM
        LOCFRAME ISTACK, 2, STACK
        LOCFRAME PSTACK, 0, STACK
        LOCFRAME XSTACK, 0, STACK
        LOCFRAME IOVERLAY, 0, STATIC
        LOCFRAME DOVERLAY, 0, STATIC
        ARGFRAME ISTACK, 2, STACK
        ARGFRAME PSTACK, 0, STACK
        ARGFRAME XSTACK, 0, STACK
        ARGFRAME IOVERLAY, 0, STATIC
        ARGFRAME DOVERLAY, 0, STATIC
        FUNCALL Read_DHT11, COMM
        LOCFRAME ISTACK, 2, STACK
        LOCFRAME PSTACK, 0, STACK
        LOCFRAME XSTACK, 0, STACK
        LOCFRAME IOVERLAY, 0, STATIC
        LOCFRAME DOVERLAY, 0, STATIC
        ARGFRAME ISTACK, 2, STACK
        ARGFRAME PSTACK, 0, STACK
        ARGFRAME XSTACK, 0, STACK
        ARGFRAME IOVERLAY, 0, STATIC
        ARGFRAME DOVERLAY, 0, STATIC
        FUNCALL Read_DHT11, COMM
        LOCFRAME ISTACK, 2, STACK
        LOCFRAME PSTACK, 0, STACK
        LOCFRAME XSTACK, 0, STACK
        LOCFRAME IOVERLAY, 0, STATIC
        LOCFRAME DOVERLAY, 0, STATIC
        ARGFRAME ISTACK, 2, STACK
        ARGFRAME PSTACK, 0, STACK
        ARGFRAME XSTACK, 0, STACK
        ARGFRAME IOVERLAY, 0, STATIC
        ARGFRAME DOVERLAY, 0, STATIC
        FUNCALL Read_DHT11, COMM
        LOCFRAME ISTACK, 2, STACK
        LOCFRAME PSTACK, 0, STACK
        LOCFRAME XSTACK, 0, STACK
        LOCFRAME IOVERLAY, 0, STATIC
        LOCFRAME DOVERLAY, 0, STATIC
        ARGFRAME ISTACK, 2, STACK
        ARGFRAME PSTACK, 0, STACK
        ARGFRAME XSTACK, 0, STACK
        ARGFRAME IOVERLAY, 0, STATIC
        ARGFRAME DOVERLAY, 0, STATIC
        FUNCALL Read_DHT11, COMM
        LOCFRAME ISTACK, 2, STACK
        LOCFRAME PSTACK, 0, STACK
        LOCFRAME XSTACK, 0, STACK
        LOCFRAME IOVERLAY, 0, STATIC
        LOCFRAME DOVERLAY, 0, STATIC
        ARGFRAME ISTACK, 2, STACK
        ARGFRAME PSTACK, 0, STACK
        ARGFRAME XSTACK, 0, STACK
        ARGFRAME IOVERLAY, 0, STATIC
        ARGFRAME DOVERLAY, 0, STATIC
        PUSH    DPL
        CFI DPL0 Frame(CFA_SP, 4)
        CFI CFA_SP SP+-4
        PUSH    DPH
        CFI DPH0 Frame(CFA_SP, 5)
        CFI CFA_SP SP+-5
        ; Saved register size: 2
        ; Auto size: 0
//   79     DATA_PIN = 0;
        CLR     0x90.3
//   80     Delay_ms(19);  //主机拉低18ms
        ; Setup parameters for call to function Delay_ms
        MOV     R2,#0x13
        MOV     R3,#0x0
        LCALL   ??Delay_ms?relay
//   81     DATA_PIN = 1;     //总线由上拉电阻拉高 主机延时40us 
        SETB    0x90.3
//   82     P1DIR &=  ~0x08; //重新配置IO口方向
        ANL     0xfe,#0xf7
//   83     Delay_10us();
        ; Setup parameters for call to function Onboard_wait
        LCALL   ?Subroutine3 & 0xFFFF
//   84     Delay_10us();						
//   85     Delay_10us();
//   86     Delay_10us();  
??CrossCallReturnLabel_1:
        ; Setup parameters for call to function Onboard_wait
        MOV     R2,#0xa
        MOV     R3,#0x0
        LCALL   ??Onboard_wait?relay
//   87     //判断从机是否有低电平响应信号 如不响应则跳出，响应则向下运行 
//   88      if(!DATA_PIN) 
        MOV     C,0x90.3
        JNC     $+5
        LJMP    ??Read_DHT11_0 & 0xFFFF
//   89      {
//   90       U8FLAG = 2; //判断从机是否发出 80us 的低电平响应信号是否结束 
        MOV     DPTR,#U8FLAG
        MOV     A,#0x2
        MOVX    @DPTR,A
//   91       while((!DATA_PIN)&&U8FLAG++);
??Read_DHT11_1:
        MOV     C,0x90.3
        JC      ??Read_DHT11_2
        LCALL   ?Subroutine4 & 0xFFFF
??CrossCallReturnLabel_4:
        JNZ     ??Read_DHT11_1
//   92       U8FLAG = 2;//判断从机是否发出 80us 的高电平，如发出则进入数据接收状态
??Read_DHT11_2:
        MOV     A,#0x2
        MOVX    @DPTR,A
//   93       while((DATA_PIN)&&U8FLAG++); 
??Read_DHT11_3:
        MOV     C,0x90.3
        JNC     ??Read_DHT11_4
        LCALL   ?Subroutine4 & 0xFFFF
??CrossCallReturnLabel_5:
        JNZ     ??Read_DHT11_3
//   94       COMM();//数据接收状态 
??Read_DHT11_4:
        ; Setup parameters for call to function COMM
        LCALL   ??Subroutine6_0 & 0xFFFF
//   95       U8RH_data_H_temp = U8comdata;
??CrossCallReturnLabel_10:
        MOV     DPTR,#U8RH_data_H_temp
        LCALL   ?Subroutine2 & 0xFFFF
//   96       COMM();
//   97       U8RH_data_L_temp = U8comdata;
??CrossCallReturnLabel_6:
        MOV     DPTR,#U8RH_data_L_temp
        LCALL   ?Subroutine2 & 0xFFFF
//   98       COMM();
//   99       U8T_data_H_temp = U8comdata;
??CrossCallReturnLabel_7:
        MOV     DPTR,#U8T_data_H_temp
        LCALL   ?Subroutine2 & 0xFFFF
//  100       COMM();
//  101       U8T_data_L_temp = U8comdata;
??CrossCallReturnLabel_8:
        MOV     DPTR,#U8T_data_L_temp
        LCALL   ?Subroutine2 & 0xFFFF
//  102       COMM();
//  103       U8checkdata_temp = U8comdata;
??CrossCallReturnLabel_9:
        MOV     DPTR,#U8checkdata_temp
        MOVX    @DPTR,A
//  104       DATA_PIN = 1; 
        SETB    0x90.3
//  105       //数据校验 
//  106       U8temp = (U8T_data_H_temp+U8T_data_L_temp+U8RH_data_H_temp+U8RH_data_L_temp);
        MOV     DPTR,#U8RH_data_L_temp
        PUSH    DPL
        CFI CFA_SP SP+-6
        PUSH    DPH
        CFI CFA_SP SP+-7
        MOV     DPTR,#U8RH_data_H_temp
        PUSH    DPL
        CFI CFA_SP SP+-8
        PUSH    DPH
        CFI CFA_SP SP+-9
        MOV     DPTR,#U8T_data_L_temp
        PUSH    DPL
        CFI CFA_SP SP+-10
        MOV     DPTR,#U8T_data_H_temp
        MOVX    A,@DPTR
        MOV     DPH,#(U8T_data_L_temp >> 8) & 0xff
        POP     DPL
        CFI CFA_SP SP+-9
        MOV     R0,A
        MOVX    A,@DPTR
        ADD     A,R0
        POP     DPH
        CFI CFA_SP SP+-8
        POP     DPL
        CFI CFA_SP SP+-7
        MOV     R0,A
        MOVX    A,@DPTR
        ADD     A,R0
        POP     DPH
        CFI CFA_SP SP+-6
        POP     DPL
        CFI CFA_SP SP+-5
        MOV     R0,A
        MOVX    A,@DPTR
        ADD     A,R0
        MOV     DPTR,#U8temp
        MOVX    @DPTR,A
//  107        if(U8temp == U8checkdata_temp)
        MOV     R0,A
        MOV     DPTR,#U8checkdata_temp
        MOVX    A,@DPTR
        XRL     A,R0
        JNZ     ??Read_DHT11_5
//  108       {
//  109           U8RH_data_H = U8RH_data_H_temp;
        MOV     DPTR,#U8RH_data_H_temp
        MOVX    A,@DPTR
        MOV     DPTR,#U8RH_data_H
        MOVX    @DPTR,A
//  110           U8RH_data_L = U8RH_data_L_temp;
        MOV     DPTR,#U8RH_data_L_temp
        MOVX    A,@DPTR
        MOV     DPTR,#U8RH_data_L
        MOVX    @DPTR,A
//  111           U8T_data_H = U8T_data_H_temp;
        MOV     DPTR,#U8T_data_H_temp
        MOVX    A,@DPTR
        MOV     DPTR,#U8T_data_H
        MOVX    @DPTR,A
//  112           U8T_data_L = U8T_data_L_temp;
        MOV     DPTR,#U8T_data_L_temp
        MOVX    A,@DPTR
        MOV     DPTR,#U8T_data_L
        MOVX    @DPTR,A
//  113           U8checkdata = U8checkdata_temp;
        MOV     DPTR,#U8checkdata_temp
        MOVX    A,@DPTR
        MOV     DPTR,#U8checkdata
        MOVX    @DPTR,A
//  114        }
//  115        Temp = U8T_data_H;
??Read_DHT11_5:
        MOV     DPTR,#U8T_data_H
        MOVX    A,@DPTR
        MOV     DPTR,#Temp
        MOVX    @DPTR,A
//  116        Hum = U8RH_data_H;
        MOV     DPTR,#U8RH_data_H
        MOVX    A,@DPTR
        SJMP    ??Read_DHT11_6
//  117     } 
//  118     else 
//  119     {  
//  120       Temp = 0;
??Read_DHT11_0:
        MOV     DPTR,#Temp
        CLR     A
        MOVX    @DPTR,A
//  121       Hum = 0;
??Read_DHT11_6:
        MOV     DPTR,#Hum
        MOVX    @DPTR,A
//  122     } 
//  123     P1DIR |=  0x08; 
        ORL     0xfe,#0x8
//  124 }
        LJMP    ??Subroutine5_0 & 0xFFFF
        CFI EndBlock cfiBlock7
        REQUIRE _A_P1
        REQUIRE P1DIR

        RSEG BANKED_CODE:CODE:NOROOT(0)
?Subroutine4:
        CFI Block cfiCond8 Using cfiCommon0
        CFI NoFunction
        CFI Conditional ??CrossCallReturnLabel_2
        CFI R6 load(1, XDATA, add(CFA_XSP16, literal(-9)))
        CFI VB load(1, XDATA, add(CFA_XSP16, literal(-8)))
        CFI V0 load(1, XDATA, add(CFA_XSP16, literal(-7)))
        CFI R7 load(1, XDATA, add(CFA_XSP16, literal(-6)))
        CFI ?RET_LOW load(1, XDATA, add(CFA_XSP16, literal(-5)))
        CFI ?RET_HIGH load(1, XDATA, add(CFA_XSP16, literal(-4)))
        CFI ?BRET_EXT load(1, XDATA, add(CFA_XSP16, literal(-3)))
        CFI DPL0 load(1, XDATA, add(CFA_XSP16, literal(-2)))
        CFI DPH0 load(1, XDATA, add(CFA_XSP16, literal(-1)))
        CFI CFA_SP SP+0
        CFI CFA_XSP16 add(XSP16, 9)
        CFI Block cfiCond9 Using cfiCommon0
        CFI (cfiCond9) NoFunction
        CFI (cfiCond9) Conditional ??CrossCallReturnLabel_3
        CFI (cfiCond9) R6 load(1, XDATA, add(CFA_XSP16, literal(-9)))
        CFI (cfiCond9) VB load(1, XDATA, add(CFA_XSP16, literal(-8)))
        CFI (cfiCond9) V0 load(1, XDATA, add(CFA_XSP16, literal(-7)))
        CFI (cfiCond9) R7 load(1, XDATA, add(CFA_XSP16, literal(-6)))
        CFI (cfiCond9) ?RET_LOW load(1, XDATA, add(CFA_XSP16, literal(-5)))
        CFI (cfiCond9) ?RET_HIGH load(1, XDATA, add(CFA_XSP16, literal(-4)))
        CFI (cfiCond9) ?BRET_EXT load(1, XDATA, add(CFA_XSP16, literal(-3)))
        CFI (cfiCond9) DPL0 load(1, XDATA, add(CFA_XSP16, literal(-2)))
        CFI (cfiCond9) DPH0 load(1, XDATA, add(CFA_XSP16, literal(-1)))
        CFI (cfiCond9) CFA_SP SP+0
        CFI (cfiCond9) CFA_XSP16 add(XSP16, 9)
        CFI Block cfiCond10 Using cfiCommon0
        CFI (cfiCond10) NoFunction
        CFI (cfiCond10) Conditional ??CrossCallReturnLabel_4
        CFI (cfiCond10) DPL0 Frame(CFA_SP, 4)
        CFI (cfiCond10) DPH0 Frame(CFA_SP, 5)
        CFI (cfiCond10) CFA_SP SP+-5
        CFI Block cfiCond11 Using cfiCommon0
        CFI (cfiCond11) NoFunction
        CFI (cfiCond11) Conditional ??CrossCallReturnLabel_5
        CFI (cfiCond11) DPL0 Frame(CFA_SP, 4)
        CFI (cfiCond11) DPH0 Frame(CFA_SP, 5)
        CFI (cfiCond11) CFA_SP SP+-5
        CFI Block cfiPicker12 Using cfiCommon1
        CFI (cfiPicker12) NoFunction
        CFI (cfiPicker12) Picker
        MOVX    A,@DPTR
        MOV     R0,A
        MOV     A,#0x1
        ADD     A,R0
        MOVX    @DPTR,A
        MOV     A,R0
        RET
        CFI EndBlock cfiCond8
        CFI EndBlock cfiCond9
        CFI EndBlock cfiCond10
        CFI EndBlock cfiCond11
        CFI EndBlock cfiPicker12

        RSEG BANKED_CODE:CODE:NOROOT(0)
?Subroutine3:
        CFI Block cfiCond13 Using cfiCommon0
        CFI NoFunction
        CFI Conditional ??CrossCallReturnLabel_0
        CFI R6 load(1, XDATA, add(CFA_XSP16, literal(-9)))
        CFI VB load(1, XDATA, add(CFA_XSP16, literal(-8)))
        CFI V0 load(1, XDATA, add(CFA_XSP16, literal(-7)))
        CFI R7 load(1, XDATA, add(CFA_XSP16, literal(-6)))
        CFI ?RET_LOW load(1, XDATA, add(CFA_XSP16, literal(-5)))
        CFI ?RET_HIGH load(1, XDATA, add(CFA_XSP16, literal(-4)))
        CFI ?BRET_EXT load(1, XDATA, add(CFA_XSP16, literal(-3)))
        CFI DPL0 load(1, XDATA, add(CFA_XSP16, literal(-2)))
        CFI DPH0 load(1, XDATA, add(CFA_XSP16, literal(-1)))
        CFI CFA_SP SP+0
        CFI CFA_XSP16 add(XSP16, 9)
        CFI Block cfiCond14 Using cfiCommon0
        CFI (cfiCond14) NoFunction
        CFI (cfiCond14) Conditional ??CrossCallReturnLabel_1
        CFI (cfiCond14) DPL0 Frame(CFA_SP, 4)
        CFI (cfiCond14) DPH0 Frame(CFA_SP, 5)
        CFI (cfiCond14) CFA_SP SP+-5
        CFI Block cfiPicker15 Using cfiCommon1
        CFI (cfiPicker15) NoFunction
        CFI (cfiPicker15) Picker
        MOV     R2,#0xa
        MOV     R3,#0x0
        LCALL   ??Onboard_wait?relay
        ; Setup parameters for call to function Onboard_wait
        ; Setup parameters for call to function Onboard_wait
        MOV     R2,#0xa
        MOV     R3,#0x0
        LCALL   ??Onboard_wait?relay
        ; Setup parameters for call to function Onboard_wait
        ; Setup parameters for call to function Onboard_wait
        MOV     R2,#0xa
        MOV     R3,#0x0
        LCALL   ??Onboard_wait?relay
        RET
        CFI EndBlock cfiCond13
        CFI EndBlock cfiCond14
        CFI EndBlock cfiPicker15

        RSEG BANKED_CODE:CODE:NOROOT(0)
?Subroutine2:
        CFI Block cfiCond16 Using cfiCommon0
        CFI NoFunction
        CFI Conditional ??CrossCallReturnLabel_6
        CFI DPL0 Frame(CFA_SP, 4)
        CFI DPH0 Frame(CFA_SP, 5)
        CFI CFA_SP SP+-5
        CFI Block cfiCond17 Using cfiCommon0
        CFI (cfiCond17) NoFunction
        CFI (cfiCond17) Conditional ??CrossCallReturnLabel_7
        CFI (cfiCond17) DPL0 Frame(CFA_SP, 4)
        CFI (cfiCond17) DPH0 Frame(CFA_SP, 5)
        CFI (cfiCond17) CFA_SP SP+-5
        CFI Block cfiCond18 Using cfiCommon0
        CFI (cfiCond18) NoFunction
        CFI (cfiCond18) Conditional ??CrossCallReturnLabel_8
        CFI (cfiCond18) DPL0 Frame(CFA_SP, 4)
        CFI (cfiCond18) DPH0 Frame(CFA_SP, 5)
        CFI (cfiCond18) CFA_SP SP+-5
        CFI Block cfiCond19 Using cfiCommon0
        CFI (cfiCond19) NoFunction
        CFI (cfiCond19) Conditional ??CrossCallReturnLabel_9
        CFI (cfiCond19) DPL0 Frame(CFA_SP, 4)
        CFI (cfiCond19) DPH0 Frame(CFA_SP, 5)
        CFI (cfiCond19) CFA_SP SP+-5
        CFI Block cfiPicker20 Using cfiCommon1
        CFI (cfiPicker20) NoFunction
        CFI (cfiPicker20) Picker
        MOVX    @DPTR,A
        CFI EndBlock cfiCond16
        CFI EndBlock cfiCond17
        CFI EndBlock cfiCond18
        CFI EndBlock cfiCond19
        CFI EndBlock cfiPicker20
        ; Setup parameters for call to function COMM
        ; Setup parameters for call to function COMM
        ; Setup parameters for call to function COMM
        ; Setup parameters for call to function COMM
        REQUIRE ??Subroutine6_0
        ; // Fall through to label ??Subroutine6_0

        RSEG BANKED_CODE:CODE:NOROOT(0)
??Subroutine6_0:
        CFI Block cfiCond21 Using cfiCommon0
        CFI NoFunction
        CFI Conditional ??CrossCallReturnLabel_10
        CFI DPL0 Frame(CFA_SP, 4)
        CFI DPH0 Frame(CFA_SP, 5)
        CFI CFA_SP SP+-5
        CFI Block cfiCond22 Using cfiCommon0
        CFI (cfiCond22) NoFunction
        CFI (cfiCond22) Conditional ??CrossCallReturnLabel_6
        CFI (cfiCond22) DPL0 Frame(CFA_SP, 4)
        CFI (cfiCond22) DPH0 Frame(CFA_SP, 5)
        CFI (cfiCond22) CFA_SP SP+-5
        CFI Block cfiCond23 Using cfiCommon0
        CFI (cfiCond23) NoFunction
        CFI (cfiCond23) Conditional ??CrossCallReturnLabel_7
        CFI (cfiCond23) DPL0 Frame(CFA_SP, 4)
        CFI (cfiCond23) DPH0 Frame(CFA_SP, 5)
        CFI (cfiCond23) CFA_SP SP+-5
        CFI Block cfiCond24 Using cfiCommon0
        CFI (cfiCond24) NoFunction
        CFI (cfiCond24) Conditional ??CrossCallReturnLabel_8
        CFI (cfiCond24) DPL0 Frame(CFA_SP, 4)
        CFI (cfiCond24) DPH0 Frame(CFA_SP, 5)
        CFI (cfiCond24) CFA_SP SP+-5
        CFI Block cfiCond25 Using cfiCommon0
        CFI (cfiCond25) NoFunction
        CFI (cfiCond25) Conditional ??CrossCallReturnLabel_9
        CFI (cfiCond25) DPL0 Frame(CFA_SP, 4)
        CFI (cfiCond25) DPH0 Frame(CFA_SP, 5)
        CFI (cfiCond25) CFA_SP SP+-5
        CFI Block cfiPicker26 Using cfiCommon1
        CFI (cfiPicker26) NoFunction
        CFI (cfiPicker26) Picker
        LCALL   ??COMM?relay
        MOV     DPTR,#U8comdata
        MOVX    A,@DPTR
        RET
        CFI EndBlock cfiCond21
        CFI EndBlock cfiCond22
        CFI EndBlock cfiCond23
        CFI EndBlock cfiCond24
        CFI EndBlock cfiCond25
        CFI EndBlock cfiPicker26

        RSEG BANK_RELAYS:CODE:REORDER:NOROOT(0)
??Delay_us?relay:
        LCALL   ?BDISPATCH
        DATA
        DC24    Delay_us

        RSEG BANK_RELAYS:CODE:REORDER:NOROOT(0)
??Delay_10us?relay:
        LCALL   ?BDISPATCH
        DATA
        DC24    Delay_10us

        RSEG BANK_RELAYS:CODE:REORDER:NOROOT(0)
??Delay_ms?relay:
        LCALL   ?BDISPATCH
        DATA
        DC24    Delay_ms

        RSEG BANK_RELAYS:CODE:REORDER:NOROOT(0)
??COMM?relay:
        LCALL   ?BDISPATCH
        DATA
        DC24    COMM

        RSEG BANK_RELAYS:CODE:REORDER:NOROOT(0)
??Read_DHT11?relay:
        LCALL   ?BDISPATCH
        DATA
        DC24    Read_DHT11

        END
// 
// 423 bytes in segment BANKED_CODE
//  30 bytes in segment BANK_RELAYS
//   2 bytes in segment SFR_AN
//  17 bytes in segment XDATA_Z
// 
// 453 bytes of CODE  memory
//   0 bytes of DATA  memory (+ 2 bytes shared)
//  17 bytes of XDATA memory
//
//Errors: none
//Warnings: none
