################################################################################
#                                                                              #
#      IAR Universal Linker V5.0.2.5/W32                                       #
#                                                                              #
#           Link time     =  01/Feb/2015  20:15:58                             #
#           Target CPU    =  x51                                               #
#           List file     =  C:\ZStack-CC2530-2.5.1a\Projects\zstack\Samples\Ò #
#                            º¾§ÏÔÊ¾Ä£×é¿ØÖÆÊµ¼ù\CC2530DB\CoordinatorEB\List\G #
#                            enericApp.map                                     #
#           Output file 1 =  C:\ZStack-CC2530-2.5.1a\Projects\zstack\Samples\Ò #
#                            º¾§ÏÔÊ¾Ä£×é¿ØÖÆÊµ¼ù\CC2530DB\CoordinatorEB\Exe\Ge #
#                            nericApp.d51                                      #
#                            Format: debug                                     #
#                            UBROF version 10.0.3                              #
#                            Using library modules for C-SPY (-rt)             #
#           Command line  =  -C                                                #
#                            C:\ZStack-CC2530-2.5.1a\Projects\zstack\Samples\Ò #
#                            º¾§ÏÔÊ¾Ä£×é¿ØÖÆÊµ¼ù\CC2530DB\..\..\..\Libraries\T #
#                            I2530DB\bin\Router-Pro.lib                        #
#                            -C                                                #
#                            C:\ZStack-CC2530-2.5.1a\Projects\zstack\Samples\Ò #
#                            º¾§ÏÔÊ¾Ä£×é¿ØÖÆÊµ¼ù\CC2530DB\..\..\..\Libraries\T #
#                            I2530DB\bin\Security.lib                          #
#                            -C                                                #
#                            C:\ZStack-CC2530-2.5.1a\Projects\zstack\Samples\Ò #
#                            º¾§ÏÔÊ¾Ä£×é¿ØÖÆÊµ¼ù\CC2530DB\..\..\..\Libraries\T #
#                            IMAC\bin\TIMAC-CC2530.lib                         #
#                            -D_NR_OF_BANKS=0x07 -D_CODEBANK_END=0xFFFF        #
#                            -D_CODEBANK_START=0x8000 -D?CBANK_MASK=0xFF       #
#                            -D?CBANK=0x9F                                     #
#                            "-ID:\Program Files (x86)\IAR Systems\Embedded Wo #
#                            rkbench 6.0 Evaluation\8051\CONFIG\"              #
#                            C:\ZStack-CC2530-2.5.1a\Projects\zstack\Samples\Ò #
#                            º¾§ÏÔÊ¾Ä£×é¿ØÖÆÊµ¼ù\CC2530DB\CoordinatorEB\Obj\AF #
#                            .r51                                              #
#                            C:\ZStack-CC2530-2.5.1a\Projects\zstack\Samples\Ò #
#                            º¾§ÏÔÊ¾Ä£×é¿ØÖÆÊµ¼ù\CC2530DB\CoordinatorEB\Obj\Bi #
#                            ndingTable.r51                                    #
#                            C:\ZStack-CC2530-2.5.1a\Projects\zstack\Samples\Ò #
#                            º¾§ÏÔÊ¾Ä£×é¿ØÖÆÊµ¼ù\CC2530DB\CoordinatorEB\Obj\De #
#                            bugTrace.r51                                      #
#                            C:\ZStack-CC2530-2.5.1a\Projects\zstack\Samples\Ò #
#                            º¾§ÏÔÊ¾Ä£×é¿ØÖÆÊµ¼ù\CC2530DB\CoordinatorEB\Obj\Ge #
#                            nericApp.r51                                      #
#                            C:\ZStack-CC2530-2.5.1a\Projects\zstack\Samples\Ò #
#                            º¾§ÏÔÊ¾Ä£×é¿ØÖÆÊµ¼ù\CC2530DB\CoordinatorEB\Obj\MT #
#                            .r51                                              #
#                            C:\ZStack-CC2530-2.5.1a\Projects\zstack\Samples\Ò #
#                            º¾§ÏÔÊ¾Ä£×é¿ØÖÆÊµ¼ù\CC2530DB\CoordinatorEB\Obj\MT #
#                            _AF.r51                                           #
#                            C:\ZStack-CC2530-2.5.1a\Projects\zstack\Samples\Ò #
#                            º¾§ÏÔÊ¾Ä£×é¿ØÖÆÊµ¼ù\CC2530DB\CoordinatorEB\Obj\MT #
#                            _APP.r51                                          #
#                            C:\ZStack-CC2530-2.5.1a\Projects\zstack\Samples\Ò #
#                            º¾§ÏÔÊ¾Ä£×é¿ØÖÆÊµ¼ù\CC2530DB\CoordinatorEB\Obj\MT #
#                            _DEBUG.r51                                        #
#                            C:\ZStack-CC2530-2.5.1a\Projects\zstack\Samples\Ò #
#                            º¾§ÏÔÊ¾Ä£×é¿ØÖÆÊµ¼ù\CC2530DB\CoordinatorEB\Obj\MT #
#                            _NWK.r51                                          #
#                            C:\ZStack-CC2530-2.5.1a\Projects\zstack\Samples\Ò #
#                            º¾§ÏÔÊ¾Ä£×é¿ØÖÆÊµ¼ù\CC2530DB\CoordinatorEB\Obj\MT #
#                            _SAPI.r51                                         #
#                            C:\ZStack-CC2530-2.5.1a\Projects\zstack\Samples\Ò #
#                            º¾§ÏÔÊ¾Ä£×é¿ØÖÆÊµ¼ù\CC2530DB\CoordinatorEB\Obj\MT #
#                            _SYS.r51                                          #
#                            C:\ZStack-CC2530-2.5.1a\Projects\zstack\Samples\Ò #
#                            º¾§ÏÔÊ¾Ä£×é¿ØÖÆÊµ¼ù\CC2530DB\CoordinatorEB\Obj\MT #
#                            _TASK.r51                                         #
#                            C:\ZStack-CC2530-2.5.1a\Projects\zstack\Samples\Ò #
#                            º¾§ÏÔÊ¾Ä£×é¿ØÖÆÊµ¼ù\CC2530DB\CoordinatorEB\Obj\MT #
#                            _UART.r51                                         #
#                            C:\ZStack-CC2530-2.5.1a\Projects\zstack\Samples\Ò #
#                            º¾§ÏÔÊ¾Ä£×é¿ØÖÆÊµ¼ù\CC2530DB\CoordinatorEB\Obj\MT #
#                            _UTIL.r51                                         #
#                            C:\ZStack-CC2530-2.5.1a\Projects\zstack\Samples\Ò #
#                            º¾§ÏÔÊ¾Ä£×é¿ØÖÆÊµ¼ù\CC2530DB\CoordinatorEB\Obj\MT #
#                            _VERSION.r51                                      #
#                            C:\ZStack-CC2530-2.5.1a\Projects\zstack\Samples\Ò #
#                            º¾§ÏÔÊ¾Ä£×é¿ØÖÆÊµ¼ù\CC2530DB\CoordinatorEB\Obj\MT #
#                            _ZDO.r51                                          #
#                            C:\ZStack-CC2530-2.5.1a\Projects\zstack\Samples\Ò #
#                            º¾§ÏÔÊ¾Ä£×é¿ØÖÆÊµ¼ù\CC2530DB\CoordinatorEB\Obj\OS #
#                            AL.r51                                            #
#                            C:\ZStack-CC2530-2.5.1a\Projects\zstack\Samples\Ò #
#                            º¾§ÏÔÊ¾Ä£×é¿ØÖÆÊµ¼ù\CC2530DB\CoordinatorEB\Obj\OS #
#                            AL_Clock.r51                                      #
#                            C:\ZStack-CC2530-2.5.1a\Projects\zstack\Samples\Ò #
#                            º¾§ÏÔÊ¾Ä£×é¿ØÖÆÊµ¼ù\CC2530DB\CoordinatorEB\Obj\OS #
#                            AL_GenericApp.r51                                 #
#                            C:\ZStack-CC2530-2.5.1a\Projects\zstack\Samples\Ò #
#                            º¾§ÏÔÊ¾Ä£×é¿ØÖÆÊµ¼ù\CC2530DB\CoordinatorEB\Obj\OS #
#                            AL_Math.r51                                       #
#                            C:\ZStack-CC2530-2.5.1a\Projects\zstack\Samples\Ò #
#                            º¾§ÏÔÊ¾Ä£×é¿ØÖÆÊµ¼ù\CC2530DB\CoordinatorEB\Obj\OS #
#                            AL_Memory.r51                                     #
#                            C:\ZStack-CC2530-2.5.1a\Projects\zstack\Samples\Ò #
#                            º¾§ÏÔÊ¾Ä£×é¿ØÖÆÊµ¼ù\CC2530DB\CoordinatorEB\Obj\OS #
#                            AL_Nv.r51                                         #
#                            C:\ZStack-CC2530-2.5.1a\Projects\zstack\Samples\Ò #
#                            º¾§ÏÔÊ¾Ä£×é¿ØÖÆÊµ¼ù\CC2530DB\CoordinatorEB\Obj\OS #
#                            AL_PwrMgr.r51                                     #
#                            C:\ZStack-CC2530-2.5.1a\Projects\zstack\Samples\Ò #
#                            º¾§ÏÔÊ¾Ä£×é¿ØÖÆÊµ¼ù\CC2530DB\CoordinatorEB\Obj\OS #
#                            AL_Timers.r51                                     #
#                            C:\ZStack-CC2530-2.5.1a\Projects\zstack\Samples\Ò #
#                            º¾§ÏÔÊ¾Ä£×é¿ØÖÆÊµ¼ù\CC2530DB\CoordinatorEB\Obj\On #
#                            Board.r51                                         #
#                            C:\ZStack-CC2530-2.5.1a\Projects\zstack\Samples\Ò #
#                            º¾§ÏÔÊ¾Ä£×é¿ØÖÆÊµ¼ù\CC2530DB\CoordinatorEB\Obj\ZD #
#                            App.r51                                           #
#                            C:\ZStack-CC2530-2.5.1a\Projects\zstack\Samples\Ò #
#                            º¾§ÏÔÊ¾Ä£×é¿ØÖÆÊµ¼ù\CC2530DB\CoordinatorEB\Obj\ZD #
#                            Config.r51                                        #
#                            C:\ZStack-CC2530-2.5.1a\Projects\zstack\Samples\Ò #
#                            º¾§ÏÔÊ¾Ä£×é¿ØÖÆÊµ¼ù\CC2530DB\CoordinatorEB\Obj\ZD #
#                            NwkMgr.r51                                        #
#                            C:\ZStack-CC2530-2.5.1a\Projects\zstack\Samples\Ò #
#                            º¾§ÏÔÊ¾Ä£×é¿ØÖÆÊµ¼ù\CC2530DB\CoordinatorEB\Obj\ZD #
#                            Object.r51                                        #
#                            C:\ZStack-CC2530-2.5.1a\Projects\zstack\Samples\Ò #
#                            º¾§ÏÔÊ¾Ä£×é¿ØÖÆÊµ¼ù\CC2530DB\CoordinatorEB\Obj\ZD #
#                            Profile.r51                                       #
#                            C:\ZStack-CC2530-2.5.1a\Projects\zstack\Samples\Ò #
#                            º¾§ÏÔÊ¾Ä£×é¿ØÖÆÊµ¼ù\CC2530DB\CoordinatorEB\Obj\ZD #
#                            SecMgr.r51                                        #
#                            C:\ZStack-CC2530-2.5.1a\Projects\zstack\Samples\Ò #
#                            º¾§ÏÔÊ¾Ä£×é¿ØÖÆÊµ¼ù\CC2530DB\CoordinatorEB\Obj\ZG #
#                            lobals.r51                                        #
#                            C:\ZStack-CC2530-2.5.1a\Projects\zstack\Samples\Ò #
#                            º¾§ÏÔÊ¾Ä£×é¿ØÖÆÊµ¼ù\CC2530DB\CoordinatorEB\Obj\ZM #
#                            ain.r51                                           #
#                            C:\ZStack-CC2530-2.5.1a\Projects\zstack\Samples\Ò #
#                            º¾§ÏÔÊ¾Ä£×é¿ØÖÆÊµ¼ù\CC2530DB\CoordinatorEB\Obj\ch #
#                            ipcon_cstartup.r51                                #
#                            C:\ZStack-CC2530-2.5.1a\Projects\zstack\Samples\Ò #
#                            º¾§ÏÔÊ¾Ä£×é¿ØÖÆÊµ¼ù\CC2530DB\CoordinatorEB\Obj\ha #
#                            l_adc.r51                                         #
#                            C:\ZStack-CC2530-2.5.1a\Projects\zstack\Samples\Ò #
#                            º¾§ÏÔÊ¾Ä£×é¿ØÖÆÊµ¼ù\CC2530DB\CoordinatorEB\Obj\ha #
#                            l_assert.r51                                      #
#                            C:\ZStack-CC2530-2.5.1a\Projects\zstack\Samples\Ò #
#                            º¾§ÏÔÊ¾Ä£×é¿ØÖÆÊµ¼ù\CC2530DB\CoordinatorEB\Obj\ha #
#                            l_dma.r51                                         #
#                            C:\ZStack-CC2530-2.5.1a\Projects\zstack\Samples\Ò #
#                            º¾§ÏÔÊ¾Ä£×é¿ØÖÆÊµ¼ù\CC2530DB\CoordinatorEB\Obj\ha #
#                            l_drivers.r51                                     #
#                            C:\ZStack-CC2530-2.5.1a\Projects\zstack\Samples\Ò #
#                            º¾§ÏÔÊ¾Ä£×é¿ØÖÆÊµ¼ù\CC2530DB\CoordinatorEB\Obj\ha #
#                            l_flash.r51                                       #
#                            C:\ZStack-CC2530-2.5.1a\Projects\zstack\Samples\Ò #
#                            º¾§ÏÔÊ¾Ä£×é¿ØÖÆÊµ¼ù\CC2530DB\CoordinatorEB\Obj\ha #
#                            l_key.r51                                         #
#                            C:\ZStack-CC2530-2.5.1a\Projects\zstack\Samples\Ò #
#                            º¾§ÏÔÊ¾Ä£×é¿ØÖÆÊµ¼ù\CC2530DB\CoordinatorEB\Obj\ha #
#                            l_lcd.r51                                         #
#                            C:\ZStack-CC2530-2.5.1a\Projects\zstack\Samples\Ò #
#                            º¾§ÏÔÊ¾Ä£×é¿ØÖÆÊµ¼ù\CC2530DB\CoordinatorEB\Obj\ha #
#                            l_led.r51                                         #
#                            C:\ZStack-CC2530-2.5.1a\Projects\zstack\Samples\Ò #
#                            º¾§ÏÔÊ¾Ä£×é¿ØÖÆÊµ¼ù\CC2530DB\CoordinatorEB\Obj\ha #
#                            l_sleep.r51                                       #
#                            C:\ZStack-CC2530-2.5.1a\Projects\zstack\Samples\Ò #
#                            º¾§ÏÔÊ¾Ä£×é¿ØÖÆÊµ¼ù\CC2530DB\CoordinatorEB\Obj\ha #
#                            l_startup.r51                                     #
#                            C:\ZStack-CC2530-2.5.1a\Projects\zstack\Samples\Ò #
#                            º¾§ÏÔÊ¾Ä£×é¿ØÖÆÊµ¼ù\CC2530DB\CoordinatorEB\Obj\ha #
#                            l_timer.r51                                       #
#                            C:\ZStack-CC2530-2.5.1a\Projects\zstack\Samples\Ò #
#                            º¾§ÏÔÊ¾Ä£×é¿ØÖÆÊµ¼ù\CC2530DB\CoordinatorEB\Obj\ha #
#                            l_uart.r51                                        #
#                            C:\ZStack-CC2530-2.5.1a\Projects\zstack\Samples\Ò #
#                            º¾§ÏÔÊ¾Ä£×é¿ØÖÆÊµ¼ù\CC2530DB\CoordinatorEB\Obj\ma #
#                            c_autopend.r51                                    #
#                            C:\ZStack-CC2530-2.5.1a\Projects\zstack\Samples\Ò #
#                            º¾§ÏÔÊ¾Ä£×é¿ØÖÆÊµ¼ù\CC2530DB\CoordinatorEB\Obj\ma #
#                            c_backoff_timer.r51                               #
#                            C:\ZStack-CC2530-2.5.1a\Projects\zstack\Samples\Ò #
#                            º¾§ÏÔÊ¾Ä£×é¿ØÖÆÊµ¼ù\CC2530DB\CoordinatorEB\Obj\ma #
#                            c_cfg.r51                                         #
#                            C:\ZStack-CC2530-2.5.1a\Projects\zstack\Samples\Ò #
#                            º¾§ÏÔÊ¾Ä£×é¿ØÖÆÊµ¼ù\CC2530DB\CoordinatorEB\Obj\ma #
#                            c_csp_tx.r51                                      #
#                            C:\ZStack-CC2530-2.5.1a\Projects\zstack\Samples\Ò #
#                            º¾§ÏÔÊ¾Ä£×é¿ØÖÆÊµ¼ù\CC2530DB\CoordinatorEB\Obj\ma #
#                            c_low_level.r51                                   #
#                            C:\ZStack-CC2530-2.5.1a\Projects\zstack\Samples\Ò #
#                            º¾§ÏÔÊ¾Ä£×é¿ØÖÆÊµ¼ù\CC2530DB\CoordinatorEB\Obj\ma #
#                            c_mcu.r51                                         #
#                            C:\ZStack-CC2530-2.5.1a\Projects\zstack\Samples\Ò #
#                            º¾§ÏÔÊ¾Ä£×é¿ØÖÆÊµ¼ù\CC2530DB\CoordinatorEB\Obj\ma #
#                            c_mem.r51                                         #
#                            C:\ZStack-CC2530-2.5.1a\Projects\zstack\Samples\Ò #
#                            º¾§ÏÔÊ¾Ä£×é¿ØÖÆÊµ¼ù\CC2530DB\CoordinatorEB\Obj\ma #
#                            c_pib.r51                                         #
#                            C:\ZStack-CC2530-2.5.1a\Projects\zstack\Samples\Ò #
#                            º¾§ÏÔÊ¾Ä£×é¿ØÖÆÊµ¼ù\CC2530DB\CoordinatorEB\Obj\ma #
#                            c_radio.r51                                       #
#                            C:\ZStack-CC2530-2.5.1a\Projects\zstack\Samples\Ò #
#                            º¾§ÏÔÊ¾Ä£×é¿ØÖÆÊµ¼ù\CC2530DB\CoordinatorEB\Obj\ma #
#                            c_radio_defs.r51                                  #
#                            C:\ZStack-CC2530-2.5.1a\Projects\zstack\Samples\Ò #
#                            º¾§ÏÔÊ¾Ä£×é¿ØÖÆÊµ¼ù\CC2530DB\CoordinatorEB\Obj\ma #
#                            c_rffrontend.r51                                  #
#                            C:\ZStack-CC2530-2.5.1a\Projects\zstack\Samples\Ò #
#                            º¾§ÏÔÊ¾Ä£×é¿ØÖÆÊµ¼ù\CC2530DB\CoordinatorEB\Obj\ma #
#                            c_rx.r51                                          #
#                            C:\ZStack-CC2530-2.5.1a\Projects\zstack\Samples\Ò #
#                            º¾§ÏÔÊ¾Ä£×é¿ØÖÆÊµ¼ù\CC2530DB\CoordinatorEB\Obj\ma #
#                            c_rx_onoff.r51                                    #
#                            C:\ZStack-CC2530-2.5.1a\Projects\zstack\Samples\Ò #
#                            º¾§ÏÔÊ¾Ä£×é¿ØÖÆÊµ¼ù\CC2530DB\CoordinatorEB\Obj\ma #
#                            c_sleep.r51                                       #
#                            C:\ZStack-CC2530-2.5.1a\Projects\zstack\Samples\Ò #
#                            º¾§ÏÔÊ¾Ä£×é¿ØÖÆÊµ¼ù\CC2530DB\CoordinatorEB\Obj\ma #
#                            c_tx.r51                                          #
#                            C:\ZStack-CC2530-2.5.1a\Projects\zstack\Samples\Ò #
#                            º¾§ÏÔÊ¾Ä£×é¿ØÖÆÊµ¼ù\CC2530DB\CoordinatorEB\Obj\nw #
#                            k_globals.r51                                     #
#                            C:\ZStack-CC2530-2.5.1a\Projects\zstack\Samples\Ò #
#                            º¾§ÏÔÊ¾Ä£×é¿ØÖÆÊµ¼ù\CC2530DB\CoordinatorEB\Obj\sa #
#                            ddr.r51                                           #
#                            C:\ZStack-CC2530-2.5.1a\Projects\zstack\Samples\Ò #
#                            º¾§ÏÔÊ¾Ä£×é¿ØÖÆÊµ¼ù\CC2530DB\CoordinatorEB\Obj\st #
#                            ub_aps.r51                                        #
#                            C:\ZStack-CC2530-2.5.1a\Projects\zstack\Samples\Ò #
#                            º¾§ÏÔÊ¾Ä£×é¿ØÖÆÊµ¼ù\CC2530DB\CoordinatorEB\Obj\zm #
#                            ac.r51                                            #
#                            C:\ZStack-CC2530-2.5.1a\Projects\zstack\Samples\Ò #
#                            º¾§ÏÔÊ¾Ä£×é¿ØÖÆÊµ¼ù\CC2530DB\CoordinatorEB\Obj\zm #
#                            ac_cb.r51                                         #
#                            -o                                                #
#                            C:\ZStack-CC2530-2.5.1a\Projects\zstack\Samples\Ò #
#                            º¾§ÏÔÊ¾Ä£×é¿ØÖÆÊµ¼ù\CC2530DB\CoordinatorEB\Exe\Ge #
#                            nericApp.d51                                      #
#                            -l                                                #
#                            C:\ZStack-CC2530-2.5.1a\Projects\zstack\Samples\Ò #
#                            º¾§ÏÔÊ¾Ä£×é¿ØÖÆÊµ¼ù\CC2530DB\CoordinatorEB\List\G #
#                            enericApp.map                                     #
#                            -xmsn                                             #
#                            "-ID:\Program Files (x86)\IAR Systems\Embedded Wo #
#                            rkbench 6.0 Evaluation\8051\LIB\"                 #
#                            -f                                                #
#                            C:\ZStack-CC2530-2.5.1a\Projects\zstack\Samples\Ò #
#                            º¾§ÏÔÊ¾Ä£×é¿ØÖÆÊµ¼ù\CC2530DB\..\..\..\Tools\CC253 #
#                            0DB\f8w2530.xcl                                   #
#                            (-D_XDATA_START=0x0001 -D_XDATA_END=0x1EFF        #
#                            -D_IDATA_END=0xFF -D_CODE_START=0x0000            #
#                            -D_CODE_END=0x7FFF -D_FIRST_BANK_ADDR=0x10000     #
#                            -D?REGISTER_BANK=0 -D_REGISTER_BANK_START=0       #
#                            -D?PBANK_NUMBER=00 -D_BREG_START=0x00             #
#                            -D?VB=0x20 -Z(BIT)BREG=_BREG_START                #
#                            -Z(BIT)BIT_N=0-7F                                 #
#                            -Z(DATA)REGISTERS+8=_REGISTER_BANK_START          #
#                            -Z(DATA)BDATA_Z,BDATA_N,BDATA_I=20-2F             #
#                            -Z(DATA)VREG+_NR_OF_VIRTUAL_REGISTERS=08-7F       #
#                            -Z(DATA)PSP,XSP=08-7F -Z(DATA)DOVERLAY=08-7F      #
#                            -Z(DATA)DATA_I,DATA_Z,DATA_N=08-7F                #
#                            -U(IDATA)0-7F=(DATA)0-7F                          #
#                            -Z(IDATA)IDATA_I,IDATA_Z,IDATA_N=08-_IDATA_END    #
#                            -Z(IDATA)ISTACK+_IDATA_STACK_SIZE#08-_IDATA_END   #
#                            -Z(IDATA)IOVERLAY=08-FF                           #
#                            -Z(CODE)INTVEC=_CODE_START                        #
#                            -Z(CODE)BIT_ID,BDATA_ID,DATA_ID,IDATA_ID,IXDATA_I #
#                            D,PDATA_ID,XDATA_ID=_CODE_START-_CODE_END         #
#                            -D_SLEEP_CODE_SPACE_START=(_CODE_END-7)           #
#                            -D_SLEEP_CODE_SPACE_END=(_CODE_END)               #
#                            -Z(CODE)SLEEP_CODE=_SLEEP_CODE_SPACE_START-_SLEEP #
#                            _CODE_SPACE_END                                   #
#                            -P(CODE)CSTART,BANK_RELAYS,RCODE,DIFUNCT,NEAR_COD #
#                            E=_CODE_START-_CODE_END                           #
#                            -P(CODE)CODE_C=_CODE_START-_CODE_END              #
#                            -P(CONST)XDATA_ROM_C=0x8000-0xFFFF                #
#                            -P(CODE)XDATA_ROM_C_FLASH=0x18000-0x1FFFF         #
#                            -QXDATA_ROM_C=XDATA_ROM_C_FLASH                   #
#                            -P(CODE)BANKED_CODE=_CODE_START-_CODE_END,0x18000 #
#                            -0x1FFFF,0x28000-0x2FFFF,0x38000-0x3FFFF,0x48000- #
#                            0x4FFFF,0x58000-0x5FFFF,0x68000-0x6FFFF,0x78000-0 #
#                            x7F7FF                                            #
#                            -Z(XDATA)XSTACK+_XDATA_STACK_SIZE=_XDATA_START-_X #
#                            DATA_END                                          #
#                            -Z(XDATA)XDATA_Z,XDATA_I=_XDATA_START-_XDATA_END  #
#                            -P(XDATA)XDATA_N=_XDATA_START-_XDATA_END -cx51    #
#                            -D_ZIGNV_ADDRESS_SPACE_START=(((_NR_OF_BANKS+1)*_ #
#                            FIRST_BANK_ADDR)-0x3800)                          #
#                            -D_ZIGNV_ADDRESS_SPACE_END=(_ZIGNV_ADDRESS_SPACE_ #
#                            START+0x2FFF)                                     #
#                            -Z(CODE)ZIGNV_ADDRESS_SPACE=_ZIGNV_ADDRESS_SPACE_ #
#                            START-_ZIGNV_ADDRESS_SPACE_END                    #
#                            -D_LOCK_BITS_ADDRESS_SPACE_START=(((_NR_OF_BANKS+ #
#                            1)*_FIRST_BANK_ADDR)-0x10)                        #
#                            -D_LOCK_BITS_ADDRESS_SPACE_END=(_LOCK_BITS_ADDRES #
#                            S_SPACE_START+0x0F)                               #
#                            -Z(CODE)LOCK_BITS_ADDRESS_SPACE=_LOCK_BITS_ADDRES #
#                            S_SPACE_START-_LOCK_BITS_ADDRESS_SPACE_END        #
#                            -D_IEEE_ADDRESS_SPACE_START=(_LOCK_BITS_ADDRESS_S #
#                            PACE_START-0x08)                                  #
#                            -D_IEEE_ADDRESS_SPACE_END=(_IEEE_ADDRESS_SPACE_ST #
#                            ART+0x07)                                         #
#                            -Z(CODE)IEEE_ADDRESS_SPACE=_IEEE_ADDRESS_SPACE_ST #
#                            ART-_IEEE_ADDRESS_SPACE_END                       #
#                            -D_DEV_PRIVATE_KEY_ADDRESS_SPACE_START=(_IEEE_ADD #
#                            RESS_SPACE_START-0x16)                            #
#                            -D_DEV_PRIVATE_KEY_ADDRESS_SPACE_END=(_DEV_PRIVAT #
#                            E_KEY_ADDRESS_SPACE_START+0x15)                   #
#                            -Z(CODE)DEV_PRIVATE_KEY_ADDRESS_SPACE=_DEV_PRIVAT #
#                            E_KEY_ADDRESS_SPACE_START-_DEV_PRIVATE_KEY_ADDRES #
#                            S_SPACE_END                                       #
#                            -D_CA_PUBLIC_KEY_ADDRESS_SPACE_START=(_DEV_PRIVAT #
#                            E_KEY_ADDRESS_SPACE_START-0x16)                   #
#                            -D_CA_PUBLIC_KEY_ADDRESS_SPACE_END=(_CA_PUBLIC_KE #
#                            Y_ADDRESS_SPACE_START+0x15)                       #
#                            -Z(CODE)CA_PUBLIC_KEY_ADDRESS_SPACE=_CA_PUBLIC_KE #
#                            Y_ADDRESS_SPACE_START-_CA_PUBLIC_KEY_ADDRESS_SPAC #
#                            E_END                                             #
#                            -D_IMPLICIT_CERTIFICATE_ADDRESS_SPACE_START=(_CA_ #
#                            PUBLIC_KEY_ADDRESS_SPACE_START-0x30)              #
#                            -D_IMPLICIT_CERTIFICATE_ADDRESS_SPACE_END=(_IMPLI #
#                            CIT_CERTIFICATE_ADDRESS_SPACE_START+0x2F)         #
#                            -Z(CODE)IMPLICIT_CERTIFICATE_ADDRESS_SPACE=_IMPLI #
#                            CIT_CERTIFICATE_ADDRESS_SPACE_START-_IMPLICIT_CER #
#                            TIFICATE_ADDRESS_SPACE_END                        #
#                            -D_RESERVED_ADDRESS_SPACE_START=(_IMPLICIT_CERTIF #
#                            ICATE_ADDRESS_SPACE_START-0x78C)                  #
#                            -D_RESERVED_ADDRESS_SPACE_END=(_RESERVED_ADDRESS_ #
#                            SPACE_START+0x78B)                                #
#                            -Z(CODE)RESERVED_ADDRESS_SPACE=_RESERVED_ADDRESS_ #
#                            SPACE_START-_RESERVED_ADDRESS_SPACE_END)          #
#                            -D_NR_OF_VIRTUAL_REGISTERS=10 -D?PBANK=0x93       #
#                            -e?BCALL_FF=?BCALL -e?BRET_FF=?BRET               #
#                            -e?BDISPATCH_FF=?BDISPATCH                        #
#                            -e_small_write=_formatted_write                   #
#                            -e_medium_read=_formatted_read -we24=i -rt -s     #
#                            __program_start                                   #
#                            "D:\Program Files (x86)\IAR Systems\Embedded Work #
#                            bench 6.0 Evaluation\8051\LIB\CLIB\cl-pli-blxd-1e #
#                            16x01.r51"                                        #
#                            -D_IDATA_STACK_SIZE=0xC0                          #
#                            -D_EXTENDED_STACK_START=0x00                      #
#                            -D_EXTENDED_STACK_SIZE=0x00                       #
#                            -D_PDATA_STACK_SIZE=0x80                          #
#                            -D_XDATA_STACK_SIZE=0x300                         #
#                            -D_XDATA_HEAP_SIZE=0x00 -D_FAR_HEAP_SIZE=0x000    #
#                            -D_HUGE_HEAP_SIZE=0x000                           #
#                            -D_FAR22_HEAP_SIZE=0xFFF                          #
#                                                                              #
#                           Copyright (C) 1987-2010 IAR Systems AB.            #
################################################################################





                ****************************************
                *                                      *
                *           CROSS REFERENCE            *
                *                                      *
                ****************************************

       Program entry at : CODE      0000064C  Relocatable, from module : CSTARTUP




                ****************************************
                *                                      *
                *            RUNTIME MODEL             *
                *                                      *
                ****************************************

  __SystemLibrary          = CLib
  __calling_convention     = xdata_reentrant
  __code_model             = banked
  __core                   = plain
  __data_model             = large
  __dptr_size              = 16
  __extended_stack         = disabled
  __location_for_constants = data
  __number_of_dptrs        = 1
  __rt_version             = 1



                ****************************************
                *                                      *
                *              MODULE MAP              *
                *                                      *
                ****************************************


  DEFINED ABSOLUTE ENTRIES
    *************************************************************************

  DEFINED ABSOLUTE ENTRIES
  PROGRAM MODULE, NAME : ?ABS_ENTRY_MOD

Absolute parts
           ENTRY                   ADDRESS         REF BY
           =====                   =======         ======
           _FAR22_HEAP_SIZE        00000FFF 
           _HUGE_HEAP_SIZE         00000000 
           _FAR_HEAP_SIZE          00000000 
           _XDATA_HEAP_SIZE        00000000 
           _XDATA_STACK_SIZE       00000300 
           _PDATA_STACK_SIZE       00000080 
           _EXTENDED_STACK_SIZE    00000000 
           _EXTENDED_STACK_START   00000000 
           _IDATA_STACK_SIZE       000000C0 
           ?PBANK                  00000093 
           _NR_OF_VIRTUAL_REGISTERS
                                   00000010 
           _RESERVED_ADDRESS_SPACE_END
                                   0007FF8B 
           _RESERVED_ADDRESS_SPACE_START
                                   0007F800 
           _IMPLICIT_CERTIFICATE_ADDRESS_SPACE_END
                                   0007FFBB 
           _IMPLICIT_CERTIFICATE_ADDRESS_SPACE_START
                                   0007FF8C 
           _CA_PUBLIC_KEY_ADDRESS_SPACE_END
                                   0007FFD1 
           _CA_PUBLIC_KEY_ADDRESS_SPACE_START
                                   0007FFBC 
           _DEV_PRIVATE_KEY_ADDRESS_SPACE_END
                                   0007FFE7 
           _DEV_PRIVATE_KEY_ADDRESS_SPACE_START
                                   0007FFD2 
           _IEEE_ADDRESS_SPACE_END
                                   0007FFEF 
           _IEEE_ADDRESS_SPACE_START
                                   0007FFE8 
           _LOCK_BITS_ADDRESS_SPACE_END
                                   0007FFFF 
           _LOCK_BITS_ADDRESS_SPACE_START
                                   0007FFF0 
           _ZIGNV_ADDRESS_SPACE_END
                                   0007F7FF 
           _ZIGNV_ADDRESS_SPACE_START
                                   0007C800 
           _SLEEP_CODE_SPACE_END   00007FFF 
           _SLEEP_CODE_SPACE_START
                                   00007FF8 
           ?VB                     00000020        ?BANKED_ENTER_XDATA (?BANKED_ENTER_XDATA)
                                                   ?BANKED_LEAVE_XDATA (?BANKED_LEAVE_XDATA)
                                                   ?INTERRUPT_ENTER_XSP (?INTERRUPT_ENTER_XSP)
                                                   ?INTERRUPT_LEAVE_XSP (?INTERRUPT_LEAVE_XSP)
           _BREG_START             00000000 
           ?PBANK_NUMBER           00000000 
           _REGISTER_BANK_START    00000000 
           ?REGISTER_BANK          00000000        Segment part 6 (CSTARTUP)
           _FIRST_BANK_ADDR        00010000 
           _CODE_END               00007FFF 
           _CODE_START             00000000 
           _IDATA_END              000000FF 
           _XDATA_END              00001EFF 
           _XDATA_START            00000001 
           ?CBANK                  0000009F        Segment part 0 (?BANKED_CODE_SUPPORT)
           ?CBANK_MASK             000000FF 
           _CODEBANK_START         00008000 
           _CODEBANK_END           0000FFFF 
           _NR_OF_BANKS            00000007 
    *************************************************************************

  FILE NAME : C:\ZStack-CC2530-2.5.1a\Projects\zstack\Libraries\TI2530DB\bin\Router-Pro.lib
  LIBRARY MODULE, NAME : nwk

  SEGMENTS IN THE MODULE
  ======================
XDATA_Z
  Relative segment, address: XDATA 00000301 - 0000036E (0x6e bytes), align: 0
  Segment part 9.
           ENTRY                   ADDRESS         REF BY
           =====                   =======         ======
           _NIB                    00000301        MAC_CbackEvent (zmac_cb)
    -------------------------------------------------------------------------
XDATA_Z
  Relative segment, address: XDATA 0000036F - 0000036F (0x1 bytes), align: 0
  Segment part 10.            Intra module refs:   Segment part 421
                                                   nwk_broadcastSend
           ENTRY                   ADDRESS         REF BY
           =====                   =======         ======
           NWK_TaskID              0000036F        MAC_CbackEvent (zmac_cb)
    -------------------------------------------------------------------------
XDATA_Z
  Relative segment, address: XDATA 00000370 - 00000371 (0x2 bytes), align: 0
  Segment part 19.            Intra module refs:   nwk_broadcastSend
    -------------------------------------------------------------------------
<BANKED_CODE,BANK_RELAYS..> 1 (was BANKED_CODE)
  Relative segment, address: CODE 000034C1 - 000034C5 (0x5 bytes), align: 0
  Segment part 273.           Intra module refs:   nwkDB_ReturnIndirectHoldingCnt::?relay
           ENTRY                   ADDRESS         REF BY
           =====                   =======         ======
           nwkDB_ReturnIndirectHoldingCnt
                                   000034C1 
    -------------------------------------------------------------------------
<BANKED_CODE,BANK_RELAYS..> 1 (was BANKED_CODE)
  Relative segment, address: CODE 000034C6 - 0000351E (0x59 bytes), align: 0
  Segment part 298.           Intra module refs:   nwk_broadcastSend::?relay
           ENTRY                   ADDRESS         REF BY
           =====                   =======         ======
           nwk_broadcastSend       000034C6 
               calls direct
               ISTACK = 00000000 ( 00000003 )
    -------------------------------------------------------------------------
<BANKED_CODE,BANK_RELAYS..> 1 (was BANKED_CODE)
  Relative segment, address: CODE 0000351F - 00003529 (0xb bytes), align: 0
  Segment part 300.           Intra module refs:   nwk_broadcastSend
    -------------------------------------------------------------------------
<BANKED_CODE,BANK_RELAYS..> 1 (was BANKED_CODE)
  Relative segment, address: CODE 0000352A - 0000352E (0x5 bytes), align: 0
  Segment part 304.           Intra module refs:   nwk_broadcastSend
    -------------------------------------------------------------------------
<BANKED_CODE,BANK_RELAYS..> 1 (was BANKED_CODE)
  Relative segment, address: CODE 0000352F - 00003533 (0x5 bytes), align: 0
  Segment part 305.           Intra module refs:   Segment part 304
    -------------------------------------------------------------------------
<BANKED_CODE,BANK_RELAYS..> 1 (was BANKED_CODE)
  Relative segment, address: CODE 00003534 - 00003539 (0x6 bytes), align: 0
  Segment part 332.           Intra module refs:   Segment part 305
    -------------------------------------------------------------------------
<BANKED_CODE,BANK_RELAYS..> 1 (was BANKED_CODE)
  Relative segment, address: CODE 0000353A - 00003540 (0x7 bytes), align: 0
  Segment part 383.           Intra module refs:   nwk_broadcastSend
    -------------------------------------------------------------------------
<BANKED_CODE,BANK_RELAYS..> 1 (was BANKED_CODE)
  Relative segment, address: CODE 00003541 - 00003543 (0x3 bytes), align: 0
  Segment part 421.           Intra module refs:   nwk_broadcastSend
    -------------------------------------------------------------------------
<BANKED_CODE,BANK_RELAYS..> 1 (was BANKED_CODE)
  Relative segment, address: CODE 00003544 - 00003549 (0x6 bytes), align: 0
  Segment part 422.           Intra module refs:   Segment part 421
    -------------------------------------------------------------------------
<BANKED_CODE,BANK_RELAYS..> 1 (was BANK_RELAYS)
  Relative segment, address: CODE 0000096C - 00000971 (0x6 bytes), align: 0
  Segment part 274.
           ENTRY                   ADDRESS         REF BY
           =====                   =======         ======
           nwkDB_ReturnIndirectHoldingCnt::?relay
                                   0000096C        MAC_CbackCheckPending (zmac_cb)
    -------------------------------------------------------------------------
<BANKED_CODE,BANK_RELAYS..> 1 (was BANK_RELAYS)
  Relative segment, address: CODE 00000966 - 0000096B (0x6 bytes), align: 0
  Segment part 299.
           ENTRY                   ADDRESS         REF BY
           =====                   =======         ======
           nwk_broadcastSend::?relay
                                   00000966        MAC_CbackEvent (zmac_cb)

    *************************************************************************

  FILE NAME : C:\ZStack-CC2530-2.5.1a\Projects\zstack\Libraries\TI2530DB\bin\Security.lib
  LIBRARY MODULE, NAME : hal_aes

  SEGMENTS IN THE MODULE
  ======================
SFR_AN
  Relative segment, address: DATA 000000B3 - 000000B3 (0x1 bytes), align: 0
  Segment part 1. ROOT.
           ENTRY                   ADDRESS         REF BY
           =====                   =======         ======
           ENCCS                   000000B3 

    *************************************************************************

  FILE NAME : C:\ZStack-CC2530-2.5.1a\Projects\zstack\Libraries\TIMAC\bin\TIMAC-CC2530.lib
  LIBRARY MODULE, NAME : mac_beacon

  SEGMENTS IN THE MODULE
  ======================
<BANKED_CODE,BANK_RELAYS..> 1 (was BANKED_CODE)
  Relative segment, address: CODE 00000A60 - 00000A64 (0x5 bytes), align: 0
  Segment part 171.           Intra module refs:   macBackoffTimerTriggerCallback
                                                   macTimerUpdateBackoffTimer
    -------------------------------------------------------------------------
<BANKED_CODE,BANK_RELAYS..> 1 (was CODE_C)
  Relative segment, address: CODE 00000A4E - 00000A56 (0x9 bytes), align: 0
  Segment part 19.            Intra module refs:   macRxCompleteCallback
    -------------------------------------------------------------------------
<BANKED_CODE,BANK_RELAYS..> 1 (was CODE_C)
  Relative segment, address: CODE 00000A38 - 00000A42 (0xb bytes), align: 0
  Segment part 20.            Intra module refs:   macDataTxComplete
           ENTRY                   ADDRESS         REF BY
           =====                   =======         ======
           macTxFrameSuccess       00000A38 
    -------------------------------------------------------------------------
<BANKED_CODE,BANK_RELAYS..> 1 (was CODE_C)
  Relative segment, address: CODE 00000A2D - 00000A37 (0xb bytes), align: 0
  Segment part 21.            Intra module refs:   macDataTxComplete
           ENTRY                   ADDRESS         REF BY
           =====                   =======         ======
           macTxFrameFailed        00000A2D 
    -------------------------------------------------------------------------
XDATA_Z
  Relative segment, address: XDATA 00000372 - 0000037A (0x9 bytes), align: 0
  Segment part 22.            Intra module refs:   macDataRxMemAlloc
                                                   macRxCheckMACPendingCallback
                                                   macRxCompleteCallback
           ENTRY                   ADDRESS         REF BY
           =====                   =======         ======
           macData                 00000372 
    -------------------------------------------------------------------------
XDATA_Z
  Relative segment, address: XDATA 0000037B - 0000037C (0x2 bytes), align: 0
  Segment part 23.            Intra module refs:   Segment part 332
                                                   Segment part 373
                                                   Segment part 374
                                                   Segment part 501
                                                   macTxCompleteCallback
           ENTRY                   ADDRESS         REF BY
           =====                   =======         ======
           pMacDataTx              0000037B        ?Subroutine2 (mac_tx)
                                                   macTxFrame (mac_tx)
                                                   macTxTimestampCallback (mac_tx)
                                                   rxStartIsr (mac_rx)
    -------------------------------------------------------------------------
XDATA_I
  Relative segment, address: XDATA 00000617 - 00000618 (0x2 bytes), align: 0
  Segment part 26.            Intra module refs:   Segment part 374
           ENTRY                   ADDRESS         REF BY
           =====                   =======         ======
           macDataRequeueIndirect
                                   00000617 
    -------------------------------------------------------------------------
XDATA_I
  Relative segment, address: XDATA 00000619 - 0000061A (0x2 bytes), align: 0
  Segment part 28.            Intra module refs:   macRxCompleteCallback
           ENTRY                   ADDRESS         REF BY
           =====                   =======         ======
           macDataRxBeaconCritical
                                   00000619 
    -------------------------------------------------------------------------
XDATA_I
  Relative segment, address: XDATA 0000061B - 0000061C (0x2 bytes), align: 0
  Segment part 30.            Intra module refs:   macDataTxComplete
           ENTRY                   ADDRESS         REF BY
           =====                   =======         ======
           macDataTxBeaconComplete
                                   0000061B 
    -------------------------------------------------------------------------
XDATA_Z
  Relative segment, address: XDATA 0000037D - 0000037E (0x2 bytes), align: 0
  Segment part 36.            Intra module refs:   macDataTxTimeAvailable
           ENTRY                   ADDRESS         REF BY
           =====                   =======         ======
           macDataCheckTxTime      0000037D 
    -------------------------------------------------------------------------
XDATA_I
  Relative segment, address: XDATA 0000061D - 0000061E (0x2 bytes), align: 0
  Segment part 37.            Intra module refs:   macTxCompleteCallback
           ENTRY                   ADDRESS         REF BY
           =====                   =======         ======
           macDataBeaconRequeue    0000061D 
    -------------------------------------------------------------------------
<BANKED_CODE,BANK_RELAYS..> 1 (was CODE_C)
  Relative segment, address: CODE 00000A43 - 00000A4D (0xb bytes), align: 0
  Segment part 49.            Intra module refs:   macCbackForEvent
           ENTRY                   ADDRESS         REF BY
           =====                   =======         ======
           macCbackEventTbl        00000A43 
    -------------------------------------------------------------------------
XDATA_Z
  Relative segment, address: XDATA 0000037F - 0000037F (0x1 bytes), align: 0
  Segment part 50.            Intra module refs:   Segment part 367
                                                   macSetEvent
           ENTRY                   ADDRESS         REF BY
           =====                   =======         ======
           macTaskId               0000037F 
    -------------------------------------------------------------------------
XDATA_Z
  Relative segment, address: XDATA 00000380 - 00000386 (0x7 bytes), align: 0
  Segment part 51.            Intra module refs:   macRxCheckMACPendingCallback
                                                   macRxCheckPendingCallback
                                                   macStateIdle
                                                   macStateScanning
                                                   mac_msg_deallocate
           ENTRY                   ADDRESS         REF BY
           =====                   =======         ======
           macMain                 00000380 
    -------------------------------------------------------------------------
XDATA_Z
  Relative segment, address: XDATA 00000387 - 00000388 (0x2 bytes), align: 0
  Segment part 70.            Intra module refs:   Segment part 809
                                                   macBackoffTimerRolloverCallback
                                                   macTimerCancel
                                                   macTimerUpdateBackoffTimer
           ENTRY                   ADDRESS         REF BY
           =====                   =======         ======
           timerUnalignedQ         00000387 
    -------------------------------------------------------------------------
XDATA_Z
  Relative segment, address: XDATA 00000389 - 0000038A (0x2 bytes), align: 0
  Segment part 71.            Intra module refs:   macBackoffTimerRolloverCallback
                                                   macTimerCancel
                                                   macTimerUpdateBackoffTimer
           ENTRY                   ADDRESS         REF BY
           =====                   =======         ======
           timerAlignedQ           00000389 
    -------------------------------------------------------------------------
XDATA_I
  Relative segment, address: XDATA 0000061F - 00000622 (0x4 bytes), align: 0
  Segment part 72.            Intra module refs:   macBackoffTimerRolloverCallback
                                                   macBackoffTimerTriggerCallback
                                                   macTimerUpdateBackoffTimer
    -------------------------------------------------------------------------
XDATA_I
  Relative segment, address: XDATA 00000623 - 00000626 (0x4 bytes), align: 0
  Segment part 74.            Intra module refs:   macBackoffTimerRolloverCallback
    -------------------------------------------------------------------------
XDATA_Z
  Relative segment, address: XDATA 0000038B - 0000038C (0x2 bytes), align: 0
  Segment part 76.            Intra module refs:   Segment part 799
                                                   Segment part 801
                                                   Segment part 813
                                                   macBackoffTimerTriggerCallback
                                                   macTimerUpdateBackoffTimer
    -------------------------------------------------------------------------
<BANKED_CODE,BANK_RELAYS..> 1 (was BANKED_CODE)
  Relative segment, address: CODE 00000A65 - 00000A6B (0x7 bytes), align: 0
  Segment part 210.           Intra module refs:   macCbackForEvent
    -------------------------------------------------------------------------
<BANKED_CODE,BANK_RELAYS..> 1 (was BANKED_CODE)
  Relative segment, address: CODE 00000A6C - 00000A70 (0x5 bytes), align: 0
  Segment part 225.           Intra module refs:   Segment part 817
                                                   macTimerRecalcUnaligned
    -------------------------------------------------------------------------
<BANKED_CODE,BANK_RELAYS..> 1 (was BANKED_CODE)
  Relative segment, address: CODE 00000A71 - 00000A73 (0x3 bytes), align: 0
  Segment part 251.           Intra module refs:   Segment part 588
    -------------------------------------------------------------------------
<BANKED_CODE,BANK_RELAYS..> 1 (was BANKED_CODE)
  Relative segment, address: CODE 00000A74 - 00000A79 (0x6 bytes), align: 0
  Segment part 252.           Intra module refs:   Segment part 251
                                                   Segment part 273
                                                   Segment part 275
                                                   Segment part 286
                                                   Segment part 366
    -------------------------------------------------------------------------
<BANKED_CODE,BANK_RELAYS..> 1 (was BANKED_CODE)
  Relative segment, address: CODE 00000A7A - 00000A7C (0x3 bytes), align: 0
  Segment part 272.           Intra module refs:   macCbackForEvent
    -------------------------------------------------------------------------
<BANKED_CODE,BANK_RELAYS..> 1 (was BANKED_CODE)
  Relative segment, address: CODE 00000A7D - 00000A81 (0x5 bytes), align: 0
  Segment part 273.           Intra module refs:   Segment part 272
                                                   macDataTxComplete
    -------------------------------------------------------------------------
<BANKED_CODE,BANK_RELAYS..> 1 (was BANKED_CODE)
  Relative segment, address: CODE 00000A82 - 00000A87 (0x6 bytes), align: 0
  Segment part 275.           Intra module refs:   macDataTxComplete
    -------------------------------------------------------------------------
<BANKED_CODE,BANK_RELAYS..> 1 (was BANKED_CODE)
  Relative segment, address: CODE 00000A88 - 00000A8F (0x8 bytes), align: 0
  Segment part 276.           Intra module refs:   macTimerRecalcUnaligned
    -------------------------------------------------------------------------
<BANKED_CODE,BANK_RELAYS..> 1 (was BANKED_CODE)
  Relative segment, address: CODE 00000A90 - 00000A92 (0x3 bytes), align: 0
  Segment part 285.           Intra module refs:   macCbackForEvent
    -------------------------------------------------------------------------
<BANKED_CODE,BANK_RELAYS..> 1 (was BANKED_CODE)
  Relative segment, address: CODE 00000A93 - 00000A96 (0x4 bytes), align: 0
  Segment part 286.           Intra module refs:   Segment part 285
                                                   macDataTxComplete
    -------------------------------------------------------------------------
<BANKED_CODE,BANK_RELAYS..> 1 (was BANKED_CODE)
  Relative segment, address: CODE 00000A97 - 00000A9C (0x6 bytes), align: 0
  Segment part 315.           Intra module refs:   macCbackForEvent
                                                   macCommStatusInd
    -------------------------------------------------------------------------
<BANKED_CODE,BANK_RELAYS..> 1 (was BANKED_CODE)
  Relative segment, address: CODE 00000A9D - 00000AA0 (0x4 bytes), align: 0
  Segment part 320.           Intra module refs:   macRxCompleteCallback
    -------------------------------------------------------------------------
<BANKED_CODE,BANK_RELAYS..> 1 (was BANKED_CODE)
  Relative segment, address: CODE 00000AA1 - 00000AA6 (0x6 bytes), align: 0
  Segment part 323.           Intra module refs:   Segment part 320
    -------------------------------------------------------------------------
<BANKED_CODE,BANK_RELAYS..> 1 (was BANKED_CODE)
  Relative segment, address: CODE 00000AA7 - 00000AC1 (0x1b bytes), align: 0
  Segment part 328.           Intra module refs:   macRxCheckPendingCallback::?relay
           ENTRY                   ADDRESS         REF BY
           =====                   =======         ======
           macRxCheckPendingCallback
                                   00000AA7 
               calls direct
               ISTACK = 00000000 ( 00000002 )
    -------------------------------------------------------------------------
<BANKED_CODE,BANK_RELAYS..> 1 (was BANKED_CODE)
  Relative segment, address: CODE 00000AC2 - 00000AE6 (0x25 bytes), align: 0
  Segment part 330.           Intra module refs:   macRxCheckMACPendingCallback::?relay
           ENTRY                   ADDRESS         REF BY
           =====                   =======         ======
           macRxCheckMACPendingCallback
                                   00000AC2 
               ISTACK = 00000000 ( 00000002 )
    -------------------------------------------------------------------------
<BANKED_CODE,BANK_RELAYS..> 1 (was BANKED_CODE)
  Relative segment, address: CODE 00000AE7 - 00000AEC (0x6 bytes), align: 0
  Segment part 332.           Intra module refs:   macRxCheckMACPendingCallback
    -------------------------------------------------------------------------
<BANKED_CODE,BANK_RELAYS..> 1 (was BANKED_CODE)
  Relative segment, address: CODE 00000AED - 00000AF2 (0x6 bytes), align: 0
  Segment part 333.           Intra module refs:   Segment part 332
                                                   macTxCompleteCallback
    -------------------------------------------------------------------------
<BANKED_CODE,BANK_RELAYS..> 1 (was BANKED_CODE)
  Relative segment, address: CODE 00000AF3 - 00000B0F (0x1d bytes), align: 0
  Segment part 334.           Intra module refs:   macDataRxMemAlloc::?relay
           ENTRY                   ADDRESS         REF BY
           =====                   =======         ======
           macDataRxMemAlloc       00000AF3 
               calls direct
               ISTACK = 00000000 ( 00000002 )
    -------------------------------------------------------------------------
<BANKED_CODE,BANK_RELAYS..> 1 (was BANKED_CODE)
  Relative segment, address: CODE 00000B10 - 00000B1B (0xc bytes), align: 0
  Segment part 336.           Intra module refs:   macDataRxMemFree::?relay
           ENTRY                   ADDRESS         REF BY
           =====                   =======         ======
           macDataRxMemFree        00000B10 
               calls direct
               ISTACK = 00000000 ( 00000002 )
    -------------------------------------------------------------------------
<BANKED_CODE,BANK_RELAYS..> 1 (was BANKED_CODE)
  Relative segment, address: CODE 00000B1C - 00000C55 (0x13a bytes), align: 0
  Segment part 338.           Intra module refs:   macRxCompleteCallback::?relay
           ENTRY                   ADDRESS         REF BY
           =====                   =======         ======
           macRxCompleteCallback   00000B1C 
               calls direct
               XSTACK = 00000000 ( 00000002 )
               ISTACK = 00000000 ( 00000003 )
    -------------------------------------------------------------------------
<BANKED_CODE,BANK_RELAYS..> 1 (was BANKED_CODE)
  Relative segment, address: CODE 00000C56 - 00000C56 (0x1 bytes), align: 0
  Segment part 340.           Intra module refs:   Segment part 626
                                                   macRxCompleteCallback
    -------------------------------------------------------------------------
<BANKED_CODE,BANK_RELAYS..> 1 (was BANKED_CODE)
  Relative segment, address: CODE 00000C57 - 00000C5A (0x4 bytes), align: 0
  Segment part 341.           Intra module refs:   Segment part 340
                                                   Segment part 800
                                                   macDataTxTimeAvailable
    -------------------------------------------------------------------------
<BANKED_CODE,BANK_RELAYS..> 1 (was BANKED_CODE)
  Relative segment, address: CODE 00000C5B - 00000C67 (0xd bytes), align: 0
  Segment part 342.           Intra module refs:   macRxCompleteCallback
    -------------------------------------------------------------------------
<BANKED_CODE,BANK_RELAYS..> 1 (was BANKED_CODE)
  Relative segment, address: CODE 00000C68 - 00000C6B (0x4 bytes), align: 0
  Segment part 343.           Intra module refs:   macRxCompleteCallback
    -------------------------------------------------------------------------
<BANKED_CODE,BANK_RELAYS..> 1 (was BANKED_CODE)
  Relative segment, address: CODE 00000C6C - 00000C70 (0x5 bytes), align: 0
  Segment part 344.           Intra module refs:   Segment part 343
                                                   Segment part 349
    -------------------------------------------------------------------------
<BANKED_CODE,BANK_RELAYS..> 1 (was BANKED_CODE)
  Relative segment, address: CODE 00000C71 - 00000C72 (0x2 bytes), align: 0
  Segment part 346.           Intra module refs:   macRxCompleteCallback
    -------------------------------------------------------------------------
<BANKED_CODE,BANK_RELAYS..> 1 (was BANKED_CODE)
  Relative segment, address: CODE 00000C73 - 00000C79 (0x7 bytes), align: 0
  Segment part 347.           Intra module refs:   Segment part 346
    -------------------------------------------------------------------------
<BANKED_CODE,BANK_RELAYS..> 1 (was BANKED_CODE)
  Relative segment, address: CODE 00000C7A - 00000C7D (0x4 bytes), align: 0
  Segment part 348.           Intra module refs:   macRxCompleteCallback
    -------------------------------------------------------------------------
<BANKED_CODE,BANK_RELAYS..> 1 (was BANKED_CODE)
  Relative segment, address: CODE 00000C7E - 00000C87 (0xa bytes), align: 0
  Segment part 349.           Intra module refs:   Segment part 348
                                                   macRxCompleteCallback
    -------------------------------------------------------------------------
<BANKED_CODE,BANK_RELAYS..> 1 (was BANKED_CODE)
  Relative segment, address: CODE 00000C88 - 00000CA0 (0x19 bytes), align: 0
  Segment part 350.           Intra module refs:   macDataTxTimeAvailable::?relay
           ENTRY                   ADDRESS         REF BY
           =====                   =======         ======
           macDataTxTimeAvailable
                                   00000C88 
               ISTACK = 00000000 ( 00000002 )
    -------------------------------------------------------------------------
<BANKED_CODE,BANK_RELAYS..> 1 (was BANKED_CODE)
  Relative segment, address: CODE 00000CA1 - 00000D29 (0x89 bytes), align: 0
  Segment part 358.           Intra module refs:   macDataTxComplete::?relay
           ENTRY                   ADDRESS         REF BY
           =====                   =======         ======
           macDataTxComplete       00000CA1 
               calls direct
               XSTACK = 00000010 ( 00000000 )
               ISTACK = 00000000 ( 00000003 )
    -------------------------------------------------------------------------
<BANKED_CODE,BANK_RELAYS..> 1 (was BANKED_CODE)
  Relative segment, address: CODE 00000D2A - 00000D2A (0x1 bytes), align: 0
  Segment part 360.           Intra module refs:   macDataTxComplete
    -------------------------------------------------------------------------
<BANKED_CODE,BANK_RELAYS..> 1 (was BANKED_CODE)
  Relative segment, address: CODE 00000D2B - 00000D2F (0x5 bytes), align: 0
  Segment part 361.           Intra module refs:   Segment part 360
    -------------------------------------------------------------------------
<BANKED_CODE,BANK_RELAYS..> 1 (was BANKED_CODE)
  Relative segment, address: CODE 00000D30 - 00000D34 (0x5 bytes), align: 0
  Segment part 363.           Intra module refs:   Segment part 361
                                                   Segment part 365
    -------------------------------------------------------------------------
<BANKED_CODE,BANK_RELAYS..> 1 (was BANKED_CODE)
  Relative segment, address: CODE 00000D35 - 00000D3E (0xa bytes), align: 0
  Segment part 364.           Intra module refs:   macDataTxComplete
    -------------------------------------------------------------------------
<BANKED_CODE,BANK_RELAYS..> 1 (was BANKED_CODE)
  Relative segment, address: CODE 00000D3F - 00000D43 (0x5 bytes), align: 0
  Segment part 365.           Intra module refs:   macDataTxComplete
    -------------------------------------------------------------------------
<BANKED_CODE,BANK_RELAYS..> 1 (was BANKED_CODE)
  Relative segment, address: CODE 00000D44 - 00000D49 (0x6 bytes), align: 0
  Segment part 366.           Intra module refs:   Segment part 365
    -------------------------------------------------------------------------
<BANKED_CODE,BANK_RELAYS..> 1 (was BANKED_CODE)
  Relative segment, address: CODE 00000D4A - 00000D53 (0xa bytes), align: 0
  Segment part 367.           Intra module refs:   macDataTxComplete
    -------------------------------------------------------------------------
<BANKED_CODE,BANK_RELAYS..> 1 (was BANKED_CODE)
  Relative segment, address: CODE 00000D54 - 00000E18 (0xc5 bytes), align: 0
  Segment part 368.           Intra module refs:   macTxCompleteCallback::?relay
           ENTRY                   ADDRESS         REF BY
           =====                   =======         ======
           macTxCompleteCallback   00000D54 
               calls direct, is recursive
               XSTACK = 00000000 ( 00000009 )
               ISTACK = 00000000 ( 00000001 )
    -------------------------------------------------------------------------
<BANKED_CODE,BANK_RELAYS..> 1 (was BANKED_CODE)
  Relative segment, address: CODE 00000E19 - 00000E1A (0x2 bytes), align: 0
  Segment part 370.           Intra module refs:   macTxCompleteCallback
    -------------------------------------------------------------------------
<BANKED_CODE,BANK_RELAYS..> 1 (was BANKED_CODE)
  Relative segment, address: CODE 00000E1B - 00000E1B (0x1 bytes), align: 0
  Segment part 371.           Intra module refs:   Segment part 370
                                                   macTxCompleteCallback
    -------------------------------------------------------------------------
<BANKED_CODE,BANK_RELAYS..> 1 (was BANKED_CODE)
  Relative segment, address: CODE 00000E1C - 00000E1F (0x4 bytes), align: 0
  Segment part 372.           Intra module refs:   Segment part 371
                                                   macRxCompleteCallback
                                                   macTxCompleteCallback
    -------------------------------------------------------------------------
<BANKED_CODE,BANK_RELAYS..> 1 (was BANKED_CODE)
  Relative segment, address: CODE 00000E20 - 00000E29 (0xa bytes), align: 0
  Segment part 373.           Intra module refs:   macTxCompleteCallback
    -------------------------------------------------------------------------
<BANKED_CODE,BANK_RELAYS..> 1 (was BANKED_CODE)
  Relative segment, address: CODE 00000E2A - 00000E37 (0xe bytes), align: 0
  Segment part 374.           Intra module refs:   macTxCompleteCallback
    -------------------------------------------------------------------------
<BANKED_CODE,BANK_RELAYS..> 1 (was BANKED_CODE)
  Relative segment, address: CODE 00000E38 - 00000E38 (0x1 bytes), align: 0
  Segment part 381.           Intra module refs:   Segment part 333
                                                   Segment part 373
    -------------------------------------------------------------------------
<BANKED_CODE,BANK_RELAYS..> 1 (was BANKED_CODE)
  Relative segment, address: CODE 00000E39 - 00000E3D (0x5 bytes), align: 0
  Segment part 382.           Intra module refs:   Segment part 372
                                                   Segment part 381
    -------------------------------------------------------------------------
<BANKED_CODE,BANK_RELAYS..> 1 (was BANKED_CODE)
  Relative segment, address: CODE 00000E3E - 00000E43 (0x6 bytes), align: 0
  Segment part 383.           Intra module refs:   macRxCompleteCallback
    -------------------------------------------------------------------------
<BANKED_CODE,BANK_RELAYS..> 1 (was BANKED_CODE)
  Relative segment, address: CODE 00000E44 - 00000E48 (0x5 bytes), align: 0
  Segment part 384.           Intra module refs:   Segment part 383
                                                   macRxCompleteCallback
    -------------------------------------------------------------------------
<BANKED_CODE,BANK_RELAYS..> 1 (was BANKED_CODE)
  Relative segment, address: CODE 00000E49 - 00000E50 (0x8 bytes), align: 0
  Segment part 385.           Intra module refs:   Segment part 349
                                                   Segment part 384
    -------------------------------------------------------------------------
<BANKED_CODE,BANK_RELAYS..> 1 (was BANKED_CODE)
  Relative segment, address: CODE 00000E51 - 00000E54 (0x4 bytes), align: 0
  Segment part 389.           Intra module refs:   macBackoffTimerTriggerCallback
                                                   macDataTxComplete
                                                   macRxCompleteCallback
                                                   macTxCompleteCallback
    -------------------------------------------------------------------------
<BANKED_CODE,BANK_RELAYS..> 1 (was BANKED_CODE)
  Relative segment, address: CODE 00000E55 - 00000E58 (0x4 bytes), align: 0
  Segment part 390.           Intra module refs:   Segment part 374
                                                   Segment part 389
                                                   Segment part 628
                                                   Segment part 636
    -------------------------------------------------------------------------
<BANKED_CODE,BANK_RELAYS..> 1 (was BANKED_CODE)
  Relative segment, address: CODE 00000E59 - 00000E5A (0x2 bytes), align: 0
  Segment part 391.           Intra module refs:   Segment part 390
                                                   Segment part 804
    -------------------------------------------------------------------------
<BANKED_CODE,BANK_RELAYS..> 1 (was BANKED_CODE)
  Relative segment, address: CODE 00000E5B - 00000E5B (0x1 bytes), align: 0
  Segment part 392.           Intra module refs:   Segment part 385
                                                   Segment part 391
    -------------------------------------------------------------------------
<BANKED_CODE,BANK_RELAYS..> 1 (was BANKED_CODE)
  Relative segment, address: CODE 00000E5C - 00000E61 (0x6 bytes), align: 0
  Segment part 393.           Intra module refs:   Segment part 341
                                                   Segment part 392
    -------------------------------------------------------------------------
<BANKED_CODE,BANK_RELAYS..> 1 (was BANKED_CODE)
  Relative segment, address: CODE 00000E62 - 00000E68 (0x7 bytes), align: 0
  Segment part 406.           Intra module refs:   Segment part 323
                                                   macDataRxMemAlloc
                                                   macDataRxMemFree
                                                   macDataTxComplete
                                                   macDataTxTimeAvailable
                                                   macRxCheckMACPendingCallback
                                                   macRxCheckPendingCallback
                                                   macStateIdle
                                                   macStateScanning
    -------------------------------------------------------------------------
<BANKED_CODE,BANK_RELAYS..> 1 (was BANKED_CODE)
  Relative segment, address: CODE 00000E69 - 00000E6B (0x3 bytes), align: 0
  Segment part 416.           Intra module refs:   macSecCpy
    -------------------------------------------------------------------------
<BANKED_CODE,BANK_RELAYS..> 1 (was BANKED_CODE)
  Relative segment, address: CODE 00000E6C - 00000E6E (0x3 bytes), align: 0
  Segment part 417.           Intra module refs:   Segment part 416
    -------------------------------------------------------------------------
<BANKED_CODE,BANK_RELAYS..> 1 (was BANKED_CODE)
  Relative segment, address: CODE 00000E6F - 00000E73 (0x5 bytes), align: 0
  Segment part 418.           Intra module refs:   Segment part 417
    -------------------------------------------------------------------------
<BANKED_CODE,BANK_RELAYS..> 1 (was BANKED_CODE)
  Relative segment, address: CODE 00000E74 - 00000E78 (0x5 bytes), align: 0
  Segment part 452.           Intra module refs:   Segment part 315
                                                   Segment part 533
                                                   macTimerRemoveTimer
                                                   macTxCompleteCallback
    -------------------------------------------------------------------------
<BANKED_CODE,BANK_RELAYS..> 1 (was BANKED_CODE)
  Relative segment, address: CODE 00000E79 - 00000E8D (0x15 bytes), align: 0
  Segment part 472.           Intra module refs:   macCommStatusInd
    -------------------------------------------------------------------------
<BANKED_CODE,BANK_RELAYS..> 1 (was BANKED_CODE)
  Relative segment, address: CODE 00000E8E - 00000E91 (0x4 bytes), align: 0
  Segment part 473.           Intra module refs:   macRxCompleteCallback
    -------------------------------------------------------------------------
<BANKED_CODE,BANK_RELAYS..> 1 (was BANKED_CODE)
  Relative segment, address: CODE 00000E92 - 00000E99 (0x8 bytes), align: 0
  Segment part 474.           Intra module refs:   Segment part 473
    -------------------------------------------------------------------------
<BANKED_CODE,BANK_RELAYS..> 1 (was BANKED_CODE)
  Relative segment, address: CODE 00000E9A - 00000E9D (0x4 bytes), align: 0
  Segment part 476.           Intra module refs:   macCbackForEvent
    -------------------------------------------------------------------------
<BANKED_CODE,BANK_RELAYS..> 1 (was BANKED_CODE)
  Relative segment, address: CODE 00000E9E - 00000EB1 (0x14 bytes), align: 0
  Segment part 489.           Intra module refs:   macSetEvent::?relay
           ENTRY                   ADDRESS         REF BY
           =====                   =======         ======
           macSetEvent             00000E9E 
               calls direct, is indirectly called
               XSTACK = 00000011 ( 0000000A )
    -------------------------------------------------------------------------
<BANKED_CODE,BANK_RELAYS..> 1 (was BANKED_CODE)
  Relative segment, address: CODE 00000EB2 - 00000FBF (0x10e bytes), align: 0
  Segment part 491.           Intra module refs:   macCbackForEvent::?relay
           ENTRY                   ADDRESS         REF BY
           =====                   =======         ======
           macCbackForEvent        00000EB2 
               calls direct
               XSTACK = 00000014 ( 00000019 )
               ISTACK = 00000000 ( 00000001 )
    -------------------------------------------------------------------------
<BANKED_CODE,BANK_RELAYS..> 1 (was BANKED_CODE)
  Relative segment, address: CODE 00000FC0 - 00000FD2 (0x13 bytes), align: 0
  Segment part 493.           Intra module refs:   macStateIdle::?relay
           ENTRY                   ADDRESS         REF BY
           =====                   =======         ======
           macStateIdle            00000FC0 
               XSTACK = 00000017 ( 00000000 )
               ISTACK = 00000000 ( 00000002 )
    -------------------------------------------------------------------------
<BANKED_CODE,BANK_RELAYS..> 1 (was BANKED_CODE)
  Relative segment, address: CODE 00000FD3 - 00000FE7 (0x15 bytes), align: 0
  Segment part 497.           Intra module refs:   macStateScanning::?relay
           ENTRY                   ADDRESS         REF BY
           =====                   =======         ======
           macStateScanning        00000FD3 
               XSTACK = 0000000C ( 00000000 )
               ISTACK = 00000000 ( 00000002 )
    -------------------------------------------------------------------------
<BANKED_CODE,BANK_RELAYS..> 1 (was BANKED_CODE)
  Relative segment, address: CODE 00000FE8 - 00000FEA (0x3 bytes), align: 0
  Segment part 501.           Intra module refs:   macRxCheckMACPendingCallback
                                                   macTxCompleteCallback
    -------------------------------------------------------------------------
<BANKED_CODE,BANK_RELAYS..> 1 (was BANKED_CODE)
  Relative segment, address: CODE 00000FEB - 00000FF0 (0x6 bytes), align: 0
  Segment part 502.           Intra module refs:   Segment part 501
                                                   macBackoffTimerTriggerCallback
                                                   macDataTxTimeAvailable
                                                   macTimerUpdateBackoffTimer
                                                   mac_msg_deallocate
    -------------------------------------------------------------------------
<BANKED_CODE,BANK_RELAYS..> 1 (was BANKED_CODE)
  Relative segment, address: CODE 00000FF1 - 00000FF6 (0x6 bytes), align: 0
  Segment part 514.           Intra module refs:   macCbackForEvent
                                                   macRxCompleteCallback
    -------------------------------------------------------------------------
<BANKED_CODE,BANK_RELAYS..> 1 (was BANKED_CODE)
  Relative segment, address: CODE 00000FF7 - 00000FFB (0x5 bytes), align: 0
  Segment part 524.           Intra module refs:   macRxCompleteCallback
                                                   macTxCompleteCallback
    -------------------------------------------------------------------------
<BANKED_CODE,BANK_RELAYS..> 1 (was BANKED_CODE)
  Relative segment, address: CODE 00000FFC - 00001000 (0x5 bytes), align: 0
  Segment part 525.           Intra module refs:   Segment part 374
                                                   Segment part 524
                                                   macTimerRemoveTimer
    -------------------------------------------------------------------------
<BANKED_CODE,BANK_RELAYS..> 1 (was BANKED_CODE)
  Relative segment, address: CODE 00001001 - 00001049 (0x49 bytes), align: 0
  Segment part 530.           Intra module refs:   mac_msg_deallocate::?relay
           ENTRY                   ADDRESS         REF BY
           =====                   =======         ======
           mac_msg_deallocate      00001001 
               calls direct
               XSTACK = 0000000C ( 00000009 )
    -------------------------------------------------------------------------
<BANKED_CODE,BANK_RELAYS..> 1 (was BANKED_CODE)
  Relative segment, address: CODE 0000104A - 0000104D (0x4 bytes), align: 0
  Segment part 532.           Intra module refs:   macTimerCancel
                                                   mac_msg_deallocate
    -------------------------------------------------------------------------
<BANKED_CODE,BANK_RELAYS..> 1 (was BANKED_CODE)
  Relative segment, address: CODE 0000104E - 00001052 (0x5 bytes), align: 0
  Segment part 533.           Intra module refs:   Segment part 532
    -------------------------------------------------------------------------
<BANKED_CODE,BANK_RELAYS..> 1 (was BANKED_CODE)
  Relative segment, address: CODE 00001053 - 00001058 (0x6 bytes), align: 0
  Segment part 537.           Intra module refs:   macCommStatusInd
                                                   macTimerUpdateBackoffTimer
    -------------------------------------------------------------------------
<BANKED_CODE,BANK_RELAYS..> 1 (was BANKED_CODE)
  Relative segment, address: CODE 00001059 - 0000105F (0x7 bytes), align: 0
  Segment part 555.           Intra module refs:   macDataTxComplete
    -------------------------------------------------------------------------
<BANKED_CODE,BANK_RELAYS..> 1 (was BANKED_CODE)
  Relative segment, address: CODE 00001060 - 00001068 (0x9 bytes), align: 0
  Segment part 578.           Intra module refs:   macCommStatusInd
    -------------------------------------------------------------------------
<BANKED_CODE,BANK_RELAYS..> 1 (was BANKED_CODE)
  Relative segment, address: CODE 00001069 - 00001070 (0x8 bytes), align: 0
  Segment part 588.           Intra module refs:   macCbackForEvent
    -------------------------------------------------------------------------
<BANKED_CODE,BANK_RELAYS..> 1 (was BANKED_CODE)
  Relative segment, address: CODE 00001071 - 00001077 (0x7 bytes), align: 0
  Segment part 591.           Intra module refs:   Segment part 594
    -------------------------------------------------------------------------
<BANKED_CODE,BANK_RELAYS..> 1 (was BANKED_CODE)
  Relative segment, address: CODE 00001078 - 0000107B (0x4 bytes), align: 0
  Segment part 593.           Intra module refs:   Segment part 476
    -------------------------------------------------------------------------
<BANKED_CODE,BANK_RELAYS..> 1 (was BANKED_CODE)
  Relative segment, address: CODE 0000107C - 00001082 (0x7 bytes), align: 0
  Segment part 594.           Intra module refs:   Segment part 593
    -------------------------------------------------------------------------
<BANKED_CODE,BANK_RELAYS..> 1 (was BANKED_CODE)
  Relative segment, address: CODE 00001083 - 0000108C (0xa bytes), align: 0
  Segment part 595.           Intra module refs:   macCommStatusInd
    -------------------------------------------------------------------------
<BANKED_CODE,BANK_RELAYS..> 1 (was BANKED_CODE)
  Relative segment, address: CODE 0000108D - 000010A4 (0x18 bytes), align: 0
  Segment part 596.           Intra module refs:   macSecCpy::?relay
           ENTRY                   ADDRESS         REF BY
           =====                   =======         ======
           macSecCpy               0000108D 
               calls direct
               XSTACK = 0000002B ( 0000000E )
    -------------------------------------------------------------------------
<BANKED_CODE,BANK_RELAYS..> 1 (was BANKED_CODE)
  Relative segment, address: CODE 000010A5 - 000010A7 (0x3 bytes), align: 0
  Segment part 598.           Intra module refs:   macNoAction::?relay
           ENTRY                   ADDRESS         REF BY
           =====                   =======         ======
           macNoAction             000010A5 
               is indirectly called
    -------------------------------------------------------------------------
<BANKED_CODE,BANK_RELAYS..> 1 (was BANKED_CODE)
  Relative segment, address: CODE 000010A8 - 00001143 (0x9c bytes), align: 0
  Segment part 609.           Intra module refs:   macCommStatusInd::?relay
           ENTRY                   ADDRESS         REF BY
           =====                   =======         ======
           macCommStatusInd        000010A8 
               calls direct, is indirectly called
               XSTACK = 00000019 ( 0000002B )
               ISTACK = 00000000 ( 00000001 )
    -------------------------------------------------------------------------
<BANKED_CODE,BANK_RELAYS..> 1 (was BANKED_CODE)
  Relative segment, address: CODE 00001144 - 0000114B (0x8 bytes), align: 0
  Segment part 611.           Intra module refs:   macCommStatusInd
    -------------------------------------------------------------------------
<BANKED_CODE,BANK_RELAYS..> 1 (was BANKED_CODE)
  Relative segment, address: CODE 0000114C - 00001151 (0x6 bytes), align: 0
  Segment part 612.           Intra module refs:   Segment part 502
                                                   Segment part 611
                                                   Segment part 712
                                                   Segment part 799
                                                   Segment part 814
    -------------------------------------------------------------------------
<BANKED_CODE,BANK_RELAYS..> 1 (was BANKED_CODE)
  Relative segment, address: CODE 00001152 - 00001157 (0x6 bytes), align: 0
  Segment part 613.           Intra module refs:   macCommStatusInd
    -------------------------------------------------------------------------
<BANKED_CODE,BANK_RELAYS..> 1 (was BANKED_CODE)
  Relative segment, address: CODE 00001158 - 0000115A (0x3 bytes), align: 0
  Segment part 626.           Intra module refs:   macRxCompleteCallback
    -------------------------------------------------------------------------
<BANKED_CODE,BANK_RELAYS..> 1 (was BANKED_CODE)
  Relative segment, address: CODE 0000115B - 0000115C (0x2 bytes), align: 0
  Segment part 627.           Intra module refs:   Segment part 626
    -------------------------------------------------------------------------
<BANKED_CODE,BANK_RELAYS..> 1 (was BANKED_CODE)
  Relative segment, address: CODE 0000115D - 00001161 (0x5 bytes), align: 0
  Segment part 628.           Intra module refs:   Segment part 627
    -------------------------------------------------------------------------
<BANKED_CODE,BANK_RELAYS..> 1 (was BANKED_CODE)
  Relative segment, address: CODE 00001162 - 00001166 (0x5 bytes), align: 0
  Segment part 632.           Intra module refs:   macSetEvent
    -------------------------------------------------------------------------
<BANKED_CODE,BANK_RELAYS..> 1 (was BANKED_CODE)
  Relative segment, address: CODE 00001167 - 0000116B (0x5 bytes), align: 0
  Segment part 636.           Intra module refs:   macTxCompleteCallback
    -------------------------------------------------------------------------
<BANKED_CODE,BANK_RELAYS..> 1 (was BANKED_CODE)
  Relative segment, address: CODE 0000116C - 00001170 (0x5 bytes), align: 0
  Segment part 639.           Intra module refs:   Segment part 364
                                                   Segment part 514
    -------------------------------------------------------------------------
<BANKED_CODE,BANK_RELAYS..> 1 (was BANKED_CODE)
  Relative segment, address: CODE 00001171 - 00001181 (0x11 bytes), align: 0
  Segment part 647.           Intra module refs:   macTxCompleteCallback
    -------------------------------------------------------------------------
<BANKED_CODE,BANK_RELAYS..> 1 (was BANKED_CODE)
  Relative segment, address: CODE 00001182 - 00001187 (0x6 bytes), align: 0
  Segment part 672.           Intra module refs:   Segment part 416
    -------------------------------------------------------------------------
<BANKED_CODE,BANK_RELAYS..> 1 (was BANKED_CODE)
  Relative segment, address: CODE 00001188 - 0000118B (0x4 bytes), align: 0
  Segment part 712.           Intra module refs:   macBackoffTimerRolloverCallback
                                                   macCbackForEvent
                                                   macCommStatusInd
    -------------------------------------------------------------------------
<BANKED_CODE,BANK_RELAYS..> 1 (was BANKED_CODE)
  Relative segment, address: CODE 0000118C - 00001191 (0x6 bytes), align: 0
  Segment part 716.           Intra module refs:   macBackoffTimerRolloverCallback
                                                   macBackoffTimerTriggerCallback
    -------------------------------------------------------------------------
<BANKED_CODE,BANK_RELAYS..> 1 (was BANKED_CODE)
  Relative segment, address: CODE 00001192 - 0000119B (0xa bytes), align: 0
  Segment part 743.           Intra module refs:   Segment part 382
    -------------------------------------------------------------------------
<BANKED_CODE,BANK_RELAYS..> 1 (was BANKED_CODE)
  Relative segment, address: CODE 0000119C - 0000119F (0x4 bytes), align: 0
  Segment part 745.           Intra module refs:   macCommStatusInd
    -------------------------------------------------------------------------
<BANKED_CODE,BANK_RELAYS..> 1 (was BANKED_CODE)
  Relative segment, address: CODE 000011A0 - 000011A7 (0x8 bytes), align: 0
  Segment part 746.           Intra module refs:   Segment part 344
                                                   Segment part 745
    -------------------------------------------------------------------------
<BANKED_CODE,BANK_RELAYS..> 1 (was BANKED_CODE)
  Relative segment, address: CODE 000011A8 - 000011A8 (0x1 bytes), align: 0
  Segment part 764.           Intra module refs:   macTimerRemoveTimer
    -------------------------------------------------------------------------
<BANKED_CODE,BANK_RELAYS..> 1 (was BANKED_CODE)
  Relative segment, address: CODE 000011A9 - 000011AC (0x4 bytes), align: 0
  Segment part 765.           Intra module refs:   Segment part 764
    -------------------------------------------------------------------------
<BANKED_CODE,BANK_RELAYS..> 1 (was BANKED_CODE)
  Relative segment, address: CODE 000011AD - 000011B2 (0x6 bytes), align: 0
  Segment part 766.           Intra module refs:   Segment part 765
    -------------------------------------------------------------------------
<BANKED_CODE,BANK_RELAYS..> 1 (was BANKED_CODE)
  Relative segment, address: CODE 000011B3 - 00001263 (0xb1 bytes), align: 0
  Segment part 796.           Intra module refs:   macTimerUpdateBackoffTimer::?relay
           LOCAL                   ADDRESS         
           =====                   =======         
           macTimerUpdateBackoffTimer
                                   000011B3 
               calls direct, is recursive
               XSTACK = 00000014 ( 0000000C )
               ISTACK = 00000000 ( 00000002 )
    -------------------------------------------------------------------------
<BANKED_CODE,BANK_RELAYS..> 1 (was BANKED_CODE)
  Relative segment, address: CODE 00001264 - 0000126F (0xc bytes), align: 0
  Segment part 798.           Intra module refs:   macBackoffTimerTriggerCallback
                                                   macTimerUpdateBackoffTimer
    -------------------------------------------------------------------------
<BANKED_CODE,BANK_RELAYS..> 1 (was BANKED_CODE)
  Relative segment, address: CODE 00001270 - 00001276 (0x7 bytes), align: 0
  Segment part 799.           Intra module refs:   macTimerUpdateBackoffTimer
    -------------------------------------------------------------------------
<BANKED_CODE,BANK_RELAYS..> 1 (was BANKED_CODE)
  Relative segment, address: CODE 00001277 - 0000127C (0x6 bytes), align: 0
  Segment part 800.           Intra module refs:   macBackoffTimerTriggerCallback
                                                   macRxCompleteCallback
                                                   macTimerUpdateBackoffTimer
    -------------------------------------------------------------------------
<BANKED_CODE,BANK_RELAYS..> 1 (was BANKED_CODE)
  Relative segment, address: CODE 0000127D - 0000127F (0x3 bytes), align: 0
  Segment part 801.           Intra module refs:   macBackoffTimerTriggerCallback
                                                   macTimerUpdateBackoffTimer
    -------------------------------------------------------------------------
<BANKED_CODE,BANK_RELAYS..> 1 (was BANKED_CODE)
  Relative segment, address: CODE 00001280 - 00001283 (0x4 bytes), align: 0
  Segment part 802.           Intra module refs:   Segment part 801
                                                   macTimerUpdateBackoffTimer
    -------------------------------------------------------------------------
<BANKED_CODE,BANK_RELAYS..> 1 (was BANKED_CODE)
  Relative segment, address: CODE 00001284 - 00001287 (0x4 bytes), align: 0
  Segment part 803.           Intra module refs:   Segment part 342
                                                   Segment part 802
                                                   Segment part 810
    -------------------------------------------------------------------------
<BANKED_CODE,BANK_RELAYS..> 1 (was BANKED_CODE)
  Relative segment, address: CODE 00001288 - 0000128D (0x6 bytes), align: 0
  Segment part 804.           Intra module refs:   Segment part 474
                                                   Segment part 803
    -------------------------------------------------------------------------
<BANKED_CODE,BANK_RELAYS..> 1 (was BANKED_CODE)
  Relative segment, address: CODE 0000128E - 00001303 (0x76 bytes), align: 0
  Segment part 805.           Intra module refs:   macBackoffTimerTriggerCallback::?relay
           ENTRY                   ADDRESS         REF BY
           =====                   =======         ======
           macBackoffTimerTriggerCallback
                                   0000128E 
               calls direct, is recursive
               XSTACK = 00000000 ( 0000000C )
               ISTACK = 00000000 ( 00000002 )
    -------------------------------------------------------------------------
<BANKED_CODE,BANK_RELAYS..> 1 (was BANKED_CODE)
  Relative segment, address: CODE 00001304 - 0000130F (0xc bytes), align: 0
  Segment part 807.           Intra module refs:   macBackoffTimerTriggerCallback
    -------------------------------------------------------------------------
<BANKED_CODE,BANK_RELAYS..> 1 (was BANKED_CODE)
  Relative segment, address: CODE 00001310 - 0000131D (0xe bytes), align: 0
  Segment part 808.           Intra module refs:   macBackoffTimerTriggerCallback
    -------------------------------------------------------------------------
<BANKED_CODE,BANK_RELAYS..> 1 (was BANKED_CODE)
  Relative segment, address: CODE 0000131E - 00001320 (0x3 bytes), align: 0
  Segment part 809.           Intra module refs:   macTimerUpdateBackoffTimer
    -------------------------------------------------------------------------
<BANKED_CODE,BANK_RELAYS..> 1 (was BANKED_CODE)
  Relative segment, address: CODE 00001321 - 00001326 (0x6 bytes), align: 0
  Segment part 810.           Intra module refs:   Segment part 809
                                                   macBackoffTimerTriggerCallback
                                                   macTimerUpdateBackoffTimer
    -------------------------------------------------------------------------
<BANKED_CODE,BANK_RELAYS..> 1 (was BANKED_CODE)
  Relative segment, address: CODE 00001327 - 000013A8 (0x82 bytes), align: 0
  Segment part 811.           Intra module refs:   macTimerRecalcUnaligned::?relay
           LOCAL                   ADDRESS         
           =====                   =======         
           macTimerRecalcUnaligned
                                   00001327 
               calls direct
               XSTACK = 00000016 ( 00000010 )
               ISTACK = 00000000 ( 00000002 )
    -------------------------------------------------------------------------
<BANKED_CODE,BANK_RELAYS..> 1 (was BANKED_CODE)
  Relative segment, address: CODE 000013A9 - 000013AB (0x3 bytes), align: 0
  Segment part 813.           Intra module refs:   macTimerCancel
                                                   macTimerRecalcUnaligned
    -------------------------------------------------------------------------
<BANKED_CODE,BANK_RELAYS..> 1 (was BANKED_CODE)
  Relative segment, address: CODE 000013AC - 000013B1 (0x6 bytes), align: 0
  Segment part 814.           Intra module refs:   Segment part 813
    -------------------------------------------------------------------------
<BANKED_CODE,BANK_RELAYS..> 1 (was BANKED_CODE)
  Relative segment, address: CODE 000013B2 - 0000145B (0xaa bytes), align: 0
  Segment part 815.           Intra module refs:   macBackoffTimerRolloverCallback::?relay
           ENTRY                   ADDRESS         REF BY
           =====                   =======         ======
           macBackoffTimerRolloverCallback
                                   000013B2 
               calls direct
               XSTACK = 00000000 ( 00000012 )
               ISTACK = 00000000 ( 00000002 )
    -------------------------------------------------------------------------
<BANKED_CODE,BANK_RELAYS..> 1 (was BANKED_CODE)
  Relative segment, address: CODE 0000145C - 00001462 (0x7 bytes), align: 0
  Segment part 817.           Intra module refs:   macBackoffTimerRolloverCallback
    -------------------------------------------------------------------------
<BANKED_CODE,BANK_RELAYS..> 1 (was BANKED_CODE)
  Relative segment, address: CODE 00001463 - 0000149B (0x39 bytes), align: 0
  Segment part 828.           Intra module refs:   macTimerRemoveTimer::?relay
           LOCAL                   ADDRESS         
           =====                   =======         
           macTimerRemoveTimer     00001463 
               XSTACK = 00000009 ( 00000009 )
    -------------------------------------------------------------------------
<BANKED_CODE,BANK_RELAYS..> 1 (was BANKED_CODE)
  Relative segment, address: CODE 0000149C - 000014A1 (0x6 bytes), align: 0
  Segment part 831.           Intra module refs:   macTimerRemoveTimer
                                                   mac_msg_deallocate
    -------------------------------------------------------------------------
<BANKED_CODE,BANK_RELAYS..> 1 (was BANKED_CODE)
  Relative segment, address: CODE 000014A2 - 000014D6 (0x35 bytes), align: 0
  Segment part 832.           Intra module refs:   macTimerCancel::?relay
           ENTRY                   ADDRESS         REF BY
           =====                   =======         ======
           macTimerCancel          000014A2 
               calls direct, is recursive
               XSTACK = 00000041 ( 00000009 )
    -------------------------------------------------------------------------
XDATA_ID
  Relative segment, address: CODE 00000086 - 00000087 (0x2 bytes), align: 0
  Segment part 27.            Intra module refs:   macDataRequeueIndirect
    -------------------------------------------------------------------------
XDATA_ID
  Relative segment, address: CODE 00000088 - 00000089 (0x2 bytes), align: 0
  Segment part 29.            Intra module refs:   macDataRxBeaconCritical
    -------------------------------------------------------------------------
XDATA_ID
  Relative segment, address: CODE 0000008A - 0000008B (0x2 bytes), align: 0
  Segment part 31.            Intra module refs:   macDataTxBeaconComplete
    -------------------------------------------------------------------------
XDATA_ID
  Relative segment, address: CODE 0000008C - 0000008D (0x2 bytes), align: 0
  Segment part 38.            Intra module refs:   macDataBeaconRequeue
    -------------------------------------------------------------------------
XDATA_ID
  Relative segment, address: CODE 0000008E - 00000091 (0x4 bytes), align: 0
  Segment part 73.            Intra module refs:   Segment part 72
    -------------------------------------------------------------------------
XDATA_ID
  Relative segment, address: CODE 00000092 - 00000095 (0x4 bytes), align: 0
  Segment part 75.            Intra module refs:   Segment part 74
    -------------------------------------------------------------------------
<BANKED_CODE,BANK_RELAYS..> 1 (was BANK_RELAYS)
  Relative segment, address: CODE 00000960 - 00000965 (0x6 bytes), align: 0
  Segment part 329.
           ENTRY                   ADDRESS         REF BY
           =====                   =======         ======
           macRxCheckPendingCallback::?relay
                                   00000960        rxStartIsr (mac_rx)
    -------------------------------------------------------------------------
<BANKED_CODE,BANK_RELAYS..> 1 (was BANK_RELAYS)
  Relative segment, address: CODE 0000095A - 0000095F (0x6 bytes), align: 0
  Segment part 331.
           ENTRY                   ADDRESS         REF BY
           =====                   =======         ======
           macRxCheckMACPendingCallback::?relay
                                   0000095A        rxStartIsr (mac_rx)
    -------------------------------------------------------------------------
<BANKED_CODE,BANK_RELAYS..> 1 (was BANK_RELAYS)
  Relative segment, address: CODE 00000954 - 00000959 (0x6 bytes), align: 0
  Segment part 335.
           ENTRY                   ADDRESS         REF BY
           =====                   =======         ======
           macDataRxMemAlloc::?relay
                                   00000954        rxStartIsr (mac_rx)
    -------------------------------------------------------------------------
<BANKED_CODE,BANK_RELAYS..> 1 (was BANK_RELAYS)
  Relative segment, address: CODE 0000094E - 00000953 (0x6 bytes), align: 0
  Segment part 337.
           ENTRY                   ADDRESS         REF BY
           =====                   =======         ======
           macDataRxMemFree::?relay
                                   0000094E        rxFcsIsr (mac_rx)
                                                   rxHaltCleanupFinalStep (mac_rx)
    -------------------------------------------------------------------------
<BANKED_CODE,BANK_RELAYS..> 1 (was BANK_RELAYS)
  Relative segment, address: CODE 00000948 - 0000094D (0x6 bytes), align: 0
  Segment part 339.
           ENTRY                   ADDRESS         REF BY
           =====                   =======         ======
           macRxCompleteCallback::?relay
                                   00000948        rxFcsIsr (mac_rx)
    -------------------------------------------------------------------------
<BANKED_CODE,BANK_RELAYS..> 1 (was BANK_RELAYS)
  Relative segment, address: CODE 00000942 - 00000947 (0x6 bytes), align: 0
  Segment part 351.
           ENTRY                   ADDRESS         REF BY
           =====                   =======         ======
           macDataTxTimeAvailable::?relay
                                   00000942        txCsmaGo (mac_tx)
    -------------------------------------------------------------------------
<BANKED_CODE,BANK_RELAYS..> 1 (was BANK_RELAYS)
  Relative segment, address: CODE 00000930 - 00000935 (0x6 bytes), align: 0
  Segment part 359.           Intra module refs:   macTxCompleteCallback
           ENTRY                   ADDRESS         REF BY
           =====                   =======         ======
           macDataTxComplete::?relay
                                   00000930 
    -------------------------------------------------------------------------
<BANKED_CODE,BANK_RELAYS..> 1 (was BANK_RELAYS)
  Relative segment, address: CODE 0000092A - 0000092F (0x6 bytes), align: 0
  Segment part 369.
           ENTRY                   ADDRESS         REF BY
           =====                   =======         ======
           macTxCompleteCallback::?relay
                                   0000092A        txComplete (mac_tx)
    -------------------------------------------------------------------------
<BANKED_CODE,BANK_RELAYS..> 1 (was BANK_RELAYS)
  Relative segment, address: CODE 00000924 - 00000929 (0x6 bytes), align: 0
  Segment part 490.           Intra module refs:   macRxCompleteCallback
                                                   macTxCompleteCallback
           ENTRY                   ADDRESS         REF BY
           =====                   =======         ======
           macSetEvent::?relay     00000924 
    -------------------------------------------------------------------------
<BANKED_CODE,BANK_RELAYS..> 1 (was BANK_RELAYS)
  Relative segment, address: CODE 0000091E - 00000923 (0x6 bytes), align: 0
  Segment part 492.           Intra module refs:   macDataTxComplete
           ENTRY                   ADDRESS         REF BY
           =====                   =======         ======
           macCbackForEvent::?relay
                                   0000091E 
    -------------------------------------------------------------------------
<BANKED_CODE,BANK_RELAYS..> 1 (was BANK_RELAYS)
  Relative segment, address: CODE 00000918 - 0000091D (0x6 bytes), align: 0
  Segment part 494.           Intra module refs:   macRxCompleteCallback
           ENTRY                   ADDRESS         REF BY
           =====                   =======         ======
           macStateIdle::?relay    00000918 
    -------------------------------------------------------------------------
<BANKED_CODE,BANK_RELAYS..> 1 (was BANK_RELAYS)
  Relative segment, address: CODE 00000912 - 00000917 (0x6 bytes), align: 0
  Segment part 498.           Intra module refs:   macRxCompleteCallback
           ENTRY                   ADDRESS         REF BY
           =====                   =======         ======
           macStateScanning::?relay
                                   00000912 
    -------------------------------------------------------------------------
<BANKED_CODE,BANK_RELAYS..> 1 (was BANK_RELAYS)
  Relative segment, address: CODE 000008EE - 000008F3 (0x6 bytes), align: 0
  Segment part 531.           Intra module refs:   macDataRxMemFree
                                                   macRxCompleteCallback
           ENTRY                   ADDRESS         REF BY
           =====                   =======         ======
           mac_msg_deallocate::?relay
                                   000008EE        MAC_CbackEvent (zmac_cb)
    -------------------------------------------------------------------------
<BANKED_CODE,BANK_RELAYS..> 1 (was BANK_RELAYS)
  Relative segment, address: CODE 000008E8 - 000008ED (0x6 bytes), align: 0
  Segment part 597.           Intra module refs:   Segment part 472
           ENTRY                   ADDRESS         REF BY
           =====                   =======         ======
           macSecCpy::?relay       000008E8 
    -------------------------------------------------------------------------
<BANKED_CODE,BANK_RELAYS..> 1 (was BANK_RELAYS)
  Relative segment, address: CODE 000008E2 - 000008E7 (0x6 bytes), align: 0
  Segment part 599.           Intra module refs:   Segment part 27
                                                   Segment part 29
                                                   Segment part 31
                                                   Segment part 38
           ENTRY                   ADDRESS         REF BY
           =====                   =======         ======
           macNoAction::?relay     000008E2 
    -------------------------------------------------------------------------
<BANKED_CODE,BANK_RELAYS..> 1 (was BANK_RELAYS)
  Relative segment, address: CODE 000008DC - 000008E1 (0x6 bytes), align: 0
  Segment part 610.           Intra module refs:   macCbackForEvent
           ENTRY                   ADDRESS         REF BY
           =====                   =======         ======
           macCommStatusInd::?relay
                                   000008DC 
    -------------------------------------------------------------------------
<BANKED_CODE,BANK_RELAYS..> 1 (was BANK_RELAYS)
  Relative segment, address: CODE 000008D6 - 000008DB (0x6 bytes), align: 0
  Segment part 797.           Intra module refs:   macBackoffTimerRolloverCallback
                                                   macTimerCancel
           LOCAL                   ADDRESS         
           =====                   =======         
           macTimerUpdateBackoffTimer::?relay
                                   000008D6 
    -------------------------------------------------------------------------
<BANKED_CODE,BANK_RELAYS..> 1 (was BANK_RELAYS)
  Relative segment, address: CODE 000008D0 - 000008D5 (0x6 bytes), align: 0
  Segment part 806.
           ENTRY                   ADDRESS         REF BY
           =====                   =======         ======
           macBackoffTimerTriggerCallback::?relay
                                   000008D0        macBackoffTimerCompareIsr (mac_backoff_timer)
                                                   macBackoffTimerSetTrigger (mac_backoff_timer)
    -------------------------------------------------------------------------
<BANKED_CODE,BANK_RELAYS..> 1 (was BANK_RELAYS)
  Relative segment, address: CODE 000008CA - 000008CF (0x6 bytes), align: 0
  Segment part 812.           Intra module refs:   macBackoffTimerRolloverCallback
           LOCAL                   ADDRESS         
           =====                   =======         
           macTimerRecalcUnaligned::?relay
                                   000008CA 
    -------------------------------------------------------------------------
<BANKED_CODE,BANK_RELAYS..> 1 (was BANK_RELAYS)
  Relative segment, address: CODE 000008C4 - 000008C9 (0x6 bytes), align: 0
  Segment part 816.
           ENTRY                   ADDRESS         REF BY
           =====                   =======         ======
           macBackoffTimerRolloverCallback::?relay
                                   000008C4        macBackoffTimerPeriodIsr (mac_backoff_timer)
    -------------------------------------------------------------------------
<BANKED_CODE,BANK_RELAYS..> 1 (was BANK_RELAYS)
  Relative segment, address: CODE 000008BE - 000008C3 (0x6 bytes), align: 0
  Segment part 829.           Intra module refs:   macTimerCancel
           LOCAL                   ADDRESS         
           =====                   =======         
           macTimerRemoveTimer::?relay
                                   000008BE 
    -------------------------------------------------------------------------
<BANKED_CODE,BANK_RELAYS..> 1 (was BANK_RELAYS)
  Relative segment, address: CODE 000008B8 - 000008BD (0x6 bytes), align: 0
  Segment part 833.           Intra module refs:   Segment part 807
           ENTRY                   ADDRESS         REF BY
           =====                   =======         ======
           macTimerCancel::?relay
                                   000008B8 

    *************************************************************************

  FILE NAME : C:\ZStack-CC2530-2.5.1a\Projects\zstack\Samples\Òº¾§ÏÔÊ¾Ä£×é¿ØÖÆÊµ¼ù\CC2530DB\CoordinatorEB\Obj\AF.r51
    *************************************************************************

  FILE NAME : C:\ZStack-CC2530-2.5.1a\Projects\zstack\Samples\Òº¾§ÏÔÊ¾Ä£×é¿ØÖÆÊµ¼ù\CC2530DB\CoordinatorEB\Obj\BindingTable.r51
    *************************************************************************

  FILE NAME : C:\ZStack-CC2530-2.5.1a\Projects\zstack\Samples\Òº¾§ÏÔÊ¾Ä£×é¿ØÖÆÊµ¼ù\CC2530DB\CoordinatorEB\Obj\DebugTrace.r51
    *************************************************************************

  FILE NAME : C:\ZStack-CC2530-2.5.1a\Projects\zstack\Samples\Òº¾§ÏÔÊ¾Ä£×é¿ØÖÆÊµ¼ù\CC2530DB\CoordinatorEB\Obj\GenericApp.r51
    *************************************************************************

  FILE NAME : C:\ZStack-CC2530-2.5.1a\Projects\zstack\Samples\Òº¾§ÏÔÊ¾Ä£×é¿ØÖÆÊµ¼ù\CC2530DB\CoordinatorEB\Obj\MT.r51
    *************************************************************************

  FILE NAME : C:\ZStack-CC2530-2.5.1a\Projects\zstack\Samples\Òº¾§ÏÔÊ¾Ä£×é¿ØÖÆÊµ¼ù\CC2530DB\CoordinatorEB\Obj\MT_AF.r51
    *************************************************************************

  FILE NAME : C:\ZStack-CC2530-2.5.1a\Projects\zstack\Samples\Òº¾§ÏÔÊ¾Ä£×é¿ØÖÆÊµ¼ù\CC2530DB\CoordinatorEB\Obj\MT_APP.r51
    *************************************************************************

  FILE NAME : C:\ZStack-CC2530-2.5.1a\Projects\zstack\Samples\Òº¾§ÏÔÊ¾Ä£×é¿ØÖÆÊµ¼ù\CC2530DB\CoordinatorEB\Obj\MT_DEBUG.r51
    *************************************************************************

  FILE NAME : C:\ZStack-CC2530-2.5.1a\Projects\zstack\Samples\Òº¾§ÏÔÊ¾Ä£×é¿ØÖÆÊµ¼ù\CC2530DB\CoordinatorEB\Obj\MT_NWK.r51
    *************************************************************************

  FILE NAME : C:\ZStack-CC2530-2.5.1a\Projects\zstack\Samples\Òº¾§ÏÔÊ¾Ä£×é¿ØÖÆÊµ¼ù\CC2530DB\CoordinatorEB\Obj\MT_SAPI.r51
    *************************************************************************

  FILE NAME : C:\ZStack-CC2530-2.5.1a\Projects\zstack\Samples\Òº¾§ÏÔÊ¾Ä£×é¿ØÖÆÊµ¼ù\CC2530DB\CoordinatorEB\Obj\MT_SYS.r51
  PROGRAM MODULE, NAME : MT_SYS

  SEGMENTS IN THE MODULE
  ======================
SFR_AN
  Relative segment, address: DATA 0000009D - 0000009D (0x1 bytes), align: 0
  Segment part 1. ROOT.       Intra module refs:   halAssertHazardLights (hal_assert)
                                                   main (ZMain)
           ENTRY                   ADDRESS         REF BY
           =====                   =======         ======
           SLEEPSTA                0000009D 
    -------------------------------------------------------------------------
SFR_AN
  Relative segment, address: DATA 000000A8 - 000000A8 (0x1 bytes), align: 0
  Segment part 2. ROOT.       Intra module refs:   MAC_CbackEvent (zmac_cb)
                                                   MAC_MlmeGetReq (mac_pib)
                                                   cspPrepForTxProgram (mac_csp_tx)
                                                   cspReadCountSymbols (mac_csp_tx)
                                                   halAssertHazardLights (hal_assert)
                                                   halDmaIsr (hal_dma)
                                                   halKeyPort0Isr (hal_key)
                                                   halKeyPort2Isr (hal_key)
                                                   halSleepTimerIsr (hal_sleep)
                                                   macBackoffTimerCapture (mac_backoff_timer)
                                                   macBackoffTimerCount (mac_backoff_timer)
                                                   macBackoffTimerRolloverCallback (mac_beacon)
                                                   macBackoffTimerSetRollover (mac_backoff_timer)
                                                   macBackoffTimerSetTrigger (mac_backoff_timer)
                                                   macCspTxGoCsma (mac_csp_tx)
                                                   macCspTxGoSlotted (mac_csp_tx)
                                                   macCspTxRequestAckTimeoutCallback (mac_csp_tx)
                                                   macMcuAccumulatedOverFlow (mac_mcu)
                                                   macMcuOverflowCapture (mac_mcu)
                                                   macMcuOverflowCount (mac_mcu)
                                                   macMcuOverflowSetCompare (mac_mcu)
                                                   macMcuOverflowSetPeriod (mac_mcu)
                                                   macMcuRfErrIsr (mac_mcu)
                                                   macMcuRfIsr (mac_mcu)
                                                   macMcuTimer2Isr (mac_mcu)
                                                   macMcuTimerCapture (mac_mcu)
                                                   macRadioSetChannel (mac_radio)
                                                   macRadioSetTxPower (mac_radio)
                                                   macRadioUpdateChannel (mac_radio)
                                                   macRadioUpdateTxPower (mac_radio)
                                                   macRxCompleteCallback (mac_beacon)
                                                   macRxHardDisable (mac_rx_onoff)
                                                   macRxOff (mac_rx_onoff)
                                                   macRxOffRequest (mac_rx_onoff)
                                                   macRxOn (mac_rx_onoff)
                                                   macRxOnRequest (mac_rx_onoff)
                                                   macTimerCancel (mac_beacon)
                                                   macTxAckNotReceivedCallback (mac_tx)
                                                   macTxAckReceivedCallback (mac_tx)
                                                   macTxDoneCallback (mac_tx)
                                                   macTxFrame (mac_tx)
                                                   macTxStartQueuedFrame (mac_tx)
                                                   mac_msg_deallocate (mac_beacon)
                                                   osal_mem_alloc (OSAL_Memory)
                                                   osal_mem_free (OSAL_Memory)
                                                   osal_msg_enqueue (OSAL)
                                                   osal_msg_enqueue_max (OSAL)
                                                   osal_set_event (OSAL)
                                                   osal_start_timerEx (OSAL_Timers)
                                                   rxHaltCleanupFinalStep (mac_rx)
                                                   rxStartIsr (mac_rx)
           ENTRY                   ADDRESS         REF BY
           =====                   =======         ======
           _A_IEN0                 000000A8 
           LOCAL                   ADDRESS         
           =====                   =======         
           IEN0                    000000A8 
    -------------------------------------------------------------------------
SFR_AN
  Relative segment, address: DATA 000000C9 - 000000C9 (0x1 bytes), align: 0
  Segment part 3. ROOT.
           ENTRY                   ADDRESS         REF BY
           =====                   =======         ======
           WDCTL                   000000C9 

    *************************************************************************

  FILE NAME : C:\ZStack-CC2530-2.5.1a\Projects\zstack\Samples\Òº¾§ÏÔÊ¾Ä£×é¿ØÖÆÊµ¼ù\CC2530DB\CoordinatorEB\Obj\MT_TASK.r51
    *************************************************************************

  FILE NAME : C:\ZStack-CC2530-2.5.1a\Projects\zstack\Samples\Òº¾§ÏÔÊ¾Ä£×é¿ØÖÆÊµ¼ù\CC2530DB\CoordinatorEB\Obj\MT_UART.r51
    *************************************************************************

  FILE NAME : C:\ZStack-CC2530-2.5.1a\Projects\zstack\Samples\Òº¾§ÏÔÊ¾Ä£×é¿ØÖÆÊµ¼ù\CC2530DB\CoordinatorEB\Obj\MT_UTIL.r51
    *************************************************************************

  FILE NAME : C:\ZStack-CC2530-2.5.1a\Projects\zstack\Samples\Òº¾§ÏÔÊ¾Ä£×é¿ØÖÆÊµ¼ù\CC2530DB\CoordinatorEB\Obj\MT_VERSION.r51
    *************************************************************************

  FILE NAME : C:\ZStack-CC2530-2.5.1a\Projects\zstack\Samples\Òº¾§ÏÔÊ¾Ä£×é¿ØÖÆÊµ¼ù\CC2530DB\CoordinatorEB\Obj\MT_ZDO.r51
    *************************************************************************

  FILE NAME : C:\ZStack-CC2530-2.5.1a\Projects\zstack\Samples\Òº¾§ÏÔÊ¾Ä£×é¿ØÖÆÊµ¼ù\CC2530DB\CoordinatorEB\Obj\OSAL.r51
  PROGRAM MODULE, NAME : OSAL

  SEGMENTS IN THE MODULE
  ======================
XDATA_Z
  Relative segment, address: XDATA 0000038D - 0000038E (0x2 bytes), align: 0
  Segment part 11.            Intra module refs:   osal_msg_send
           ENTRY                   ADDRESS         REF BY
           =====                   =======         ======
           osal_qHead              0000038D 
    -------------------------------------------------------------------------
<BANKED_CODE,BANK_RELAYS..> 1 (was BANKED_CODE)
  Relative segment, address: CODE 0000286E - 000028AA (0x3d bytes), align: 0
  Segment part 18.            Intra module refs:   osal_memcpy::?relay
           ENTRY                   ADDRESS         REF BY
           =====                   =======         ======
           osal_memcpy             0000286E 
               XSTACK = 00000012 ( 0000000B )
               ISTACK = 00000000 ( 00000001 )
    -------------------------------------------------------------------------
<BANKED_CODE,BANK_RELAYS..> 1 (was BANKED_CODE)
  Relative segment, address: CODE 000028AB - 000028B9 (0xf bytes), align: 0
  Segment part 22.            Intra module refs:   osal_memcpy
           LOCAL                   ADDRESS         
           =====                   =======         
           ?Subroutine18           000028AB 
    -------------------------------------------------------------------------
<BANKED_CODE,BANK_RELAYS..> 1 (was BANKED_CODE)
  Relative segment, address: CODE 000028BA - 0000290C (0x53 bytes), align: 0
  Segment part 45.            Intra module refs:   osal_msg_allocate::?relay
           ENTRY                   ADDRESS         REF BY
           =====                   =======         ======
           osal_msg_allocate       000028BA 
               calls direct
               XSTACK = 00000000 ( 0000000A )
    -------------------------------------------------------------------------
<BANKED_CODE,BANK_RELAYS..> 1 (was BANKED_CODE)
  Relative segment, address: CODE 0000290D - 0000292E (0x22 bytes), align: 0
  Segment part 47.            Intra module refs:   osal_msg_deallocate::?relay
           ENTRY                   ADDRESS         REF BY
           =====                   =======         ======
           osal_msg_deallocate     0000290D 
               calls direct
               XSTACK = 00000009 ( 00000000 )
               ISTACK = 00000000 ( 00000002 )
    -------------------------------------------------------------------------
<BANKED_CODE,BANK_RELAYS..> 1 (was BANKED_CODE)
  Relative segment, address: CODE 0000292F - 00002935 (0x7 bytes), align: 0
  Segment part 49.            Intra module refs:   osal_msg_deallocate
           LOCAL                   ADDRESS         
           =====                   =======         
           ?Subroutine0            0000292F 
    -------------------------------------------------------------------------
<BANKED_CODE,BANK_RELAYS..> 1 (was BANKED_CODE)
  Relative segment, address: CODE 00002936 - 00002986 (0x51 bytes), align: 0
  Segment part 50.            Intra module refs:   osal_msg_send::?relay
           ENTRY                   ADDRESS         REF BY
           =====                   =======         ======
           osal_msg_send           00002936 
               calls direct
               XSTACK = 00000000 ( 00000009 )
               ISTACK = 00000000 ( 00000001 )
    -------------------------------------------------------------------------
<BANKED_CODE,BANK_RELAYS..> 1 (was BANKED_CODE)
  Relative segment, address: CODE 00002987 - 00002993 (0xd bytes), align: 0
  Segment part 52.            Intra module refs:   osal_msg_deallocate
                                                   osal_msg_send
           LOCAL                   ADDRESS         
           =====                   =======         
           ?Subroutine16           00002987 
    -------------------------------------------------------------------------
<BANKED_CODE,BANK_RELAYS..> 1 (was BANKED_CODE)
  Relative segment, address: CODE 00002994 - 00002995 (0x2 bytes), align: 0
  Segment part 53.            Intra module refs:   osal_msg_enqueue
           LOCAL                   ADDRESS         
           =====                   =======         
           ?Subroutine1            00002994 
    -------------------------------------------------------------------------
<BANKED_CODE,BANK_RELAYS..> 1 (was BANKED_CODE)
  Relative segment, address: CODE 00002996 - 00002997 (0x2 bytes), align: 0
  Segment part 54.            Intra module refs:   ?Subroutine1
    -------------------------------------------------------------------------
<BANKED_CODE,BANK_RELAYS..> 1 (was BANKED_CODE)
  Relative segment, address: CODE 00002998 - 0000299C (0x5 bytes), align: 0
  Segment part 55.            Intra module refs:   Segment part 54
                                                   osal_msg_enqueue_max
                                                   osal_msg_send
                                                   osal_set_event
    -------------------------------------------------------------------------
<BANKED_CODE,BANK_RELAYS..> 1 (was BANKED_CODE)
  Relative segment, address: CODE 0000299D - 000029A1 (0x5 bytes), align: 0
  Segment part 61.            Intra module refs:   osal_msg_send
    -------------------------------------------------------------------------
<BANKED_CODE,BANK_RELAYS..> 1 (was BANKED_CODE)
  Relative segment, address: CODE 000029A2 - 000029CF (0x2e bytes), align: 0
  Segment part 62.            Intra module refs:   osal_msg_enqueue::?relay
           ENTRY                   ADDRESS         REF BY
           =====                   =======         ======
           osal_msg_enqueue        000029A2 
               XSTACK = 00000009 ( 00000009 )
    -------------------------------------------------------------------------
<BANKED_CODE,BANK_RELAYS..> 1 (was BANKED_CODE)
  Relative segment, address: CODE 000029D0 - 000029D9 (0xa bytes), align: 0
  Segment part 64.            Intra module refs:   osal_msg_enqueue
                                                   osal_msg_enqueue_max
           LOCAL                   ADDRESS         
           =====                   =======         
           ?Subroutine11           000029D0 
    -------------------------------------------------------------------------
<BANKED_CODE,BANK_RELAYS..> 1 (was BANKED_CODE)
  Relative segment, address: CODE 000029DA - 000029DF (0x6 bytes), align: 0
  Segment part 65.            Intra module refs:   ?Subroutine11
    -------------------------------------------------------------------------
<BANKED_CODE,BANK_RELAYS..> 1 (was BANKED_CODE)
  Relative segment, address: CODE 000029E0 - 000029E3 (0x4 bytes), align: 0
  Segment part 66.            Intra module refs:   osal_msg_enqueue
                                                   osal_msg_enqueue_max
           LOCAL                   ADDRESS         
           =====                   =======         
           ?Subroutine7            000029E0 
    -------------------------------------------------------------------------
<BANKED_CODE,BANK_RELAYS..> 1 (was BANKED_CODE)
  Relative segment, address: CODE 000029E4 - 000029EB (0x8 bytes), align: 0
  Segment part 67.            Intra module refs:   ?Subroutine7
                                                   osal_msg_send
    -------------------------------------------------------------------------
<BANKED_CODE,BANK_RELAYS..> 1 (was BANKED_CODE)
  Relative segment, address: CODE 000029EC - 000029F0 (0x5 bytes), align: 0
  Segment part 70.            Intra module refs:   osal_msg_allocate
           LOCAL                   ADDRESS         
           =====                   =======         
           ?Subroutine2            000029EC 
    -------------------------------------------------------------------------
<BANKED_CODE,BANK_RELAYS..> 1 (was BANKED_CODE)
  Relative segment, address: CODE 000029F1 - 000029F3 (0x3 bytes), align: 0
  Segment part 75.            Intra module refs:   osal_msg_enqueue
                                                   osal_msg_enqueue_max
           LOCAL                   ADDRESS         
           =====                   =======         
           ?Subroutine20           000029F1 
    -------------------------------------------------------------------------
<BANKED_CODE,BANK_RELAYS..> 1 (was BANKED_CODE)
  Relative segment, address: CODE 000029F4 - 000029F6 (0x3 bytes), align: 0
  Segment part 76.            Intra module refs:   ?Subroutine20
    -------------------------------------------------------------------------
<BANKED_CODE,BANK_RELAYS..> 1 (was BANKED_CODE)
  Relative segment, address: CODE 000029F7 - 000029FB (0x5 bytes), align: 0
  Segment part 77.            Intra module refs:   Segment part 76
                                                   osal_msg_send
    -------------------------------------------------------------------------
<BANKED_CODE,BANK_RELAYS..> 1 (was BANKED_CODE)
  Relative segment, address: CODE 000029FC - 00002A0A (0xf bytes), align: 0
  Segment part 78.            Intra module refs:   osal_msg_enqueue
           LOCAL                   ADDRESS         
           =====                   =======         
           ?Subroutine19           000029FC 
    -------------------------------------------------------------------------
<BANKED_CODE,BANK_RELAYS..> 1 (was BANKED_CODE)
  Relative segment, address: CODE 00002A0B - 00002A10 (0x6 bytes), align: 0
  Segment part 80.            Intra module refs:   Segment part 65
           LOCAL                   ADDRESS         
           =====                   =======         
           ?Subroutine24           00002A0B 
    -------------------------------------------------------------------------
<BANKED_CODE,BANK_RELAYS..> 1 (was BANKED_CODE)
  Relative segment, address: CODE 00002A11 - 00002A16 (0x6 bytes), align: 0
  Segment part 81.            Intra module refs:   osal_msg_enqueue
                                                   osal_msg_enqueue_max
           LOCAL                   ADDRESS         
           =====                   =======         
           ?Subroutine8            00002A11 
    -------------------------------------------------------------------------
<BANKED_CODE,BANK_RELAYS..> 1 (was BANKED_CODE)
  Relative segment, address: CODE 00002A17 - 00002A1A (0x4 bytes), align: 0
  Segment part 82.            Intra module refs:   ?Subroutine8
    -------------------------------------------------------------------------
<BANKED_CODE,BANK_RELAYS..> 1 (was BANKED_CODE)
  Relative segment, address: CODE 00002A1B - 00002A20 (0x6 bytes), align: 0
  Segment part 83.            Intra module refs:   Segment part 82
    -------------------------------------------------------------------------
<BANKED_CODE,BANK_RELAYS..> 1 (was BANKED_CODE)
  Relative segment, address: CODE 00002A21 - 00002A5F (0x3f bytes), align: 0
  Segment part 84.            Intra module refs:   osal_msg_enqueue_max::?relay
           ENTRY                   ADDRESS         REF BY
           =====                   =======         ======
           osal_msg_enqueue_max    00002A21 
               XSTACK = 00000000 ( 00000009 )
    -------------------------------------------------------------------------
<BANKED_CODE,BANK_RELAYS..> 1 (was BANKED_CODE)
  Relative segment, address: CODE 00002A60 - 00002A9E (0x3f bytes), align: 0
  Segment part 86.            Intra module refs:   osal_set_event::?relay
           ENTRY                   ADDRESS         REF BY
           =====                   =======         ======
           osal_set_event          00002A60 
               XSTACK = 0000000E ( 00000009 )
    -------------------------------------------------------------------------
<BANKED_CODE,BANK_RELAYS..> 1 (was BANK_RELAYS)
  Relative segment, address: CODE 000008B2 - 000008B7 (0x6 bytes), align: 0
  Segment part 19.
           ENTRY                   ADDRESS         REF BY
           =====                   =======         ======
           osal_memcpy::?relay     000008B2        MAC_MlmeGetReq (mac_pib)
                                                   Segment part 15 (zmac_cb)
                                                   Segment part 672 (mac_beacon)
                                                   rxStartIsr (mac_rx)
                                                   sAddrExtCpy (saddr)
    -------------------------------------------------------------------------
<BANKED_CODE,BANK_RELAYS..> 1 (was BANK_RELAYS)
  Relative segment, address: CODE 000008AC - 000008B1 (0x6 bytes), align: 0
  Segment part 46.
           ENTRY                   ADDRESS         REF BY
           =====                   =======         ======
           osal_msg_allocate::?relay
                                   000008AC        ?Subroutine7 (zmac_cb)
                                                   macDataRxMemAlloc (mac_beacon)
    -------------------------------------------------------------------------
<BANKED_CODE,BANK_RELAYS..> 1 (was BANK_RELAYS)
  Relative segment, address: CODE 000007AA - 000007AF (0x6 bytes), align: 0
  Segment part 48.            Intra module refs:   osal_msg_send
           ENTRY                   ADDRESS         REF BY
           =====                   =======         ======
           osal_msg_deallocate::?relay
                                   000007AA        nwk_broadcastSend (nwk)
    -------------------------------------------------------------------------
<BANKED_CODE,BANK_RELAYS..> 1 (was BANK_RELAYS)
  Relative segment, address: CODE 0000093C - 00000941 (0x6 bytes), align: 0
  Segment part 51.
           ENTRY                   ADDRESS         REF BY
           =====                   =======         ======
           osal_msg_send::?relay   0000093C        MAC_CbackEvent (zmac_cb)
                                                   Segment part 367 (mac_beacon)
    -------------------------------------------------------------------------
<BANKED_CODE,BANK_RELAYS..> 1 (was BANK_RELAYS)
  Relative segment, address: CODE 0000090C - 00000911 (0x6 bytes), align: 0
  Segment part 63.            Intra module refs:   osal_msg_send
           ENTRY                   ADDRESS         REF BY
           =====                   =======         ======
           osal_msg_enqueue::?relay
                                   0000090C        macRxCompleteCallback (mac_beacon)
    -------------------------------------------------------------------------
<BANKED_CODE,BANK_RELAYS..> 1 (was BANK_RELAYS)
  Relative segment, address: CODE 00000906 - 0000090B (0x6 bytes), align: 0
  Segment part 85.
           ENTRY                   ADDRESS         REF BY
           =====                   =======         ======
           osal_msg_enqueue_max::?relay
                                   00000906        nwk_broadcastSend (nwk)
    -------------------------------------------------------------------------
<BANKED_CODE,BANK_RELAYS..> 1 (was BANK_RELAYS)
  Relative segment, address: CODE 00000900 - 00000905 (0x6 bytes), align: 0
  Segment part 87.            Intra module refs:   osal_msg_send
           ENTRY                   ADDRESS         REF BY
           =====                   =======         ======
           osal_set_event::?relay
                                   00000900        Segment part 422 (nwk)
                                                   macSetEvent (mac_beacon)

    *************************************************************************

  FILE NAME : C:\ZStack-CC2530-2.5.1a\Projects\zstack\Samples\Òº¾§ÏÔÊ¾Ä£×é¿ØÖÆÊµ¼ù\CC2530DB\CoordinatorEB\Obj\OSAL_Clock.r51
  PROGRAM MODULE, NAME : OSAL_Clock

  SEGMENTS IN THE MODULE
  ======================

    *************************************************************************

  FILE NAME : C:\ZStack-CC2530-2.5.1a\Projects\zstack\Samples\Òº¾§ÏÔÊ¾Ä£×é¿ØÖÆÊµ¼ù\CC2530DB\CoordinatorEB\Obj\OSAL_GenericApp.r51
  PROGRAM MODULE, NAME : OSAL_GenericApp

  SEGMENTS IN THE MODULE
  ======================
<XDATA_ROM_C> 1 (was XDATA_ROM_C)
  Relative segment, address: CONST 00008019 - 00008019 (0x1 bytes), align: 0
  Segment part 7.
           ENTRY                   ADDRESS         REF BY
           =====                   =======         ======
           tasksCnt                00008019        osal_msg_send (OSAL)
                                                   osal_set_event (OSAL)
    -------------------------------------------------------------------------
XDATA_Z
  Relative segment, address: XDATA 0000038F - 00000390 (0x2 bytes), align: 0
  Segment part 8.
           ENTRY                   ADDRESS         REF BY
           =====                   =======         ======
           tasksEvents             0000038F        osal_set_event (OSAL)
    -------------------------------------------------------------------------
<XDATA_ROM_C_FLASH> 1 (was XDATA_ROM_C_FLASH)
  Relative segment, address: CODE 00018019 - 00018019 (0x1 bytes), align: 0
  Segment part 12.            Intra module refs:   tasksCnt

    *************************************************************************

  FILE NAME : C:\ZStack-CC2530-2.5.1a\Projects\zstack\Samples\Òº¾§ÏÔÊ¾Ä£×é¿ØÖÆÊµ¼ù\CC2530DB\CoordinatorEB\Obj\OSAL_Math.r51
    *************************************************************************

  FILE NAME : C:\ZStack-CC2530-2.5.1a\Projects\zstack\Samples\Òº¾§ÏÔÊ¾Ä£×é¿ØÖÆÊµ¼ù\CC2530DB\CoordinatorEB\Obj\OSAL_Memory.r51
  PROGRAM MODULE, NAME : OSAL_Memory

  SEGMENTS IN THE MODULE
  ======================
<XDATA_N> 1 (was XDATA_N)
  Relative segment, address: XDATA 0000062C - 0000122B (0xc00 bytes), align: 0
  Segment part 7.             Intra module refs:   osal_mem_alloc
                                                   osal_mem_free
           LOCAL                   ADDRESS         
           =====                   =======         
           theHeap                 0000062C 
    -------------------------------------------------------------------------
<XDATA_N> 1 (was XDATA_N)
  Relative segment, address: XDATA 0000122C - 0000122D (0x2 bytes), align: 0
  Segment part 8.             Intra module refs:   osal_mem_alloc
                                                   osal_mem_free
           LOCAL                   ADDRESS         
           =====                   =======         
           ff1                     0000122C 
    -------------------------------------------------------------------------
XDATA_Z
  Relative segment, address: XDATA 00000391 - 00000391 (0x1 bytes), align: 0
  Segment part 9.             Intra module refs:   osal_mem_alloc
           LOCAL                   ADDRESS         
           =====                   =======         
           osalMemStat             00000391 
    -------------------------------------------------------------------------
<BANKED_CODE,BANK_RELAYS..> 1 (was BANKED_CODE)
  Relative segment, address: CODE 00002C6F - 00002DBE (0x150 bytes), align: 0
  Segment part 14.            Intra module refs:   osal_mem_alloc::?relay
           ENTRY                   ADDRESS         REF BY
           =====                   =======         ======
           osal_mem_alloc          00002C6F 
               XSTACK = 0000000A ( 0000000D )
    -------------------------------------------------------------------------
<BANKED_CODE,BANK_RELAYS..> 1 (was BANKED_CODE)
  Relative segment, address: CODE 00002DBF - 00002E21 (0x63 bytes), align: 0
  Segment part 16.            Intra module refs:   osal_mem_free::?relay
           ENTRY                   ADDRESS         REF BY
           =====                   =======         ======
           osal_mem_free           00002DBF 
               calls direct
               XSTACK = 0000000A ( 00000009 )
    -------------------------------------------------------------------------
<BANKED_CODE,BANK_RELAYS..> 1 (was BANK_RELAYS)
  Relative segment, address: CODE 000008FA - 000008FF (0x6 bytes), align: 0
  Segment part 15.
           ENTRY                   ADDRESS         REF BY
           =====                   =======         ======
           osal_mem_alloc::?relay
                                   000008FA        osalAddTimer (OSAL_Timers)
                                                   osal_msg_allocate (OSAL)
    -------------------------------------------------------------------------
<BANKED_CODE,BANK_RELAYS..> 1 (was BANK_RELAYS)
  Relative segment, address: CODE 000008F4 - 000008F9 (0x6 bytes), align: 0
  Segment part 17.
           ENTRY                   ADDRESS         REF BY
           =====                   =======         ======
           osal_mem_free::?relay   000008F4        MAC_CbackEvent (zmac_cb)
                                                   mac_msg_deallocate (mac_beacon)
                                                   osal_msg_deallocate (OSAL)

    *************************************************************************

  FILE NAME : C:\ZStack-CC2530-2.5.1a\Projects\zstack\Samples\Òº¾§ÏÔÊ¾Ä£×é¿ØÖÆÊµ¼ù\CC2530DB\CoordinatorEB\Obj\OSAL_Nv.r51
    *************************************************************************

  FILE NAME : C:\ZStack-CC2530-2.5.1a\Projects\zstack\Samples\Òº¾§ÏÔÊ¾Ä£×é¿ØÖÆÊµ¼ù\CC2530DB\CoordinatorEB\Obj\OSAL_PwrMgr.r51
    *************************************************************************

  FILE NAME : C:\ZStack-CC2530-2.5.1a\Projects\zstack\Samples\Òº¾§ÏÔÊ¾Ä£×é¿ØÖÆÊµ¼ù\CC2530DB\CoordinatorEB\Obj\OSAL_Timers.r51
  PROGRAM MODULE, NAME : OSAL_Timers

  SEGMENTS IN THE MODULE
  ======================
XDATA_Z
  Relative segment, address: XDATA 00000392 - 00000393 (0x2 bytes), align: 0
  Segment part 7.             Intra module refs:   osalAddTimer
                                                   osalFindTimer
           ENTRY                   ADDRESS         REF BY
           =====                   =======         ======
           timerHead               00000392 
    -------------------------------------------------------------------------
<BANKED_CODE,BANK_RELAYS..> 1 (was BANKED_CODE)
  Relative segment, address: CODE 0000325A - 000032EC (0x93 bytes), align: 0
  Segment part 12.            Intra module refs:   osalAddTimer::?relay
           ENTRY                   ADDRESS         REF BY
           =====                   =======         ======
           osalAddTimer            0000325A 
               calls direct
               XSTACK = 0000000C ( 0000000E )
               ISTACK = 00000000 ( 00000001 )
    -------------------------------------------------------------------------
<BANKED_CODE,BANK_RELAYS..> 1 (was BANKED_CODE)
  Relative segment, address: CODE 000032ED - 000032F6 (0xa bytes), align: 0
  Segment part 14.            Intra module refs:   osalAddTimer
           LOCAL                   ADDRESS         
           =====                   =======         
           ?Subroutine3            000032ED 
    -------------------------------------------------------------------------
<BANKED_CODE,BANK_RELAYS..> 1 (was BANKED_CODE)
  Relative segment, address: CODE 000032F7 - 00003331 (0x3b bytes), align: 0
  Segment part 15.            Intra module refs:   osalFindTimer::?relay
           ENTRY                   ADDRESS         REF BY
           =====                   =======         ======
           osalFindTimer           000032F7 
               XSTACK = 0000000E ( 00000000 )
               ISTACK = 00000000 ( 00000002 )
    -------------------------------------------------------------------------
<BANKED_CODE,BANK_RELAYS..> 1 (was BANKED_CODE)
  Relative segment, address: CODE 00003332 - 00003338 (0x7 bytes), align: 0
  Segment part 19.            Intra module refs:   osalFindTimer
           LOCAL                   ADDRESS         
           =====                   =======         
           ?Subroutine0            00003332 
    -------------------------------------------------------------------------
<BANKED_CODE,BANK_RELAYS..> 1 (was BANKED_CODE)
  Relative segment, address: CODE 00003339 - 0000335D (0x25 bytes), align: 0
  Segment part 20.            Intra module refs:   osal_start_timerEx::?relay
           ENTRY                   ADDRESS         REF BY
           =====                   =======         ======
           osal_start_timerEx      00003339 
               calls direct
               XSTACK = 00000000 ( 0000000A )
    -------------------------------------------------------------------------
<BANKED_CODE,BANK_RELAYS..> 1 (was BANKED_CODE)
  Relative segment, address: CODE 0000335E - 00003365 (0x8 bytes), align: 0
  Segment part 38.            Intra module refs:   osalAddTimer
    -------------------------------------------------------------------------
<XDATA_ROM_C> 1 (was XDATA_ROM_C)
  Relative segment, address: CONST 00008011 - 00008014 (0x4 bytes), align: 0
  Segment part 9.             Intra module refs:   halAssertHazardLights (hal_assert)
                                                   macBackoffTimerTriggerCallback (mac_beacon)
                                                   macTimerRecalcUnaligned (mac_beacon)
           ENTRY                   ADDRESS         REF BY
           =====                   =======         ======
           __Constant_0            00008011 
    -------------------------------------------------------------------------
<BANKED_CODE,BANK_RELAYS..> 1 (was BANK_RELAYS)
  Relative segment, address: CODE 000007E0 - 000007E5 (0x6 bytes), align: 0
  Segment part 13.            Intra module refs:   osal_start_timerEx
           ENTRY                   ADDRESS         REF BY
           =====                   =======         ======
           osalAddTimer::?relay    000007E0 
    -------------------------------------------------------------------------
<BANKED_CODE,BANK_RELAYS..> 1 (was BANK_RELAYS)
  Relative segment, address: CODE 000006B4 - 000006B9 (0x6 bytes), align: 0
  Segment part 16.            Intra module refs:   osalAddTimer
           ENTRY                   ADDRESS         REF BY
           =====                   =======         ======
           osalFindTimer::?relay   000006B4 
    -------------------------------------------------------------------------
<BANKED_CODE,BANK_RELAYS..> 1 (was BANK_RELAYS)
  Relative segment, address: CODE 000006BA - 000006BF (0x6 bytes), align: 0
  Segment part 21.
           ENTRY                   ADDRESS         REF BY
           =====                   =======         ======
           osal_start_timerEx::?relay
                                   000006BA        halProcessKeyInterrupt (hal_key)
    -------------------------------------------------------------------------
<XDATA_ROM_C_FLASH> 1 (was XDATA_ROM_C_FLASH)
  Relative segment, address: CODE 00018011 - 00018014 (0x4 bytes), align: 0
  Segment part 41.            Intra module refs:   __Constant_0

    *************************************************************************

  FILE NAME : C:\ZStack-CC2530-2.5.1a\Projects\zstack\Samples\Òº¾§ÏÔÊ¾Ä£×é¿ØÖÆÊµ¼ù\CC2530DB\CoordinatorEB\Obj\OnBoard.r51
  PROGRAM MODULE, NAME : OnBoard

  SEGMENTS IN THE MODULE
  ======================
SFR_AN
  Relative segment, address: DATA 000000D6 - 000000D6 (0x1 bytes), align: 0
  Segment part 3. ROOT.
           ENTRY                   ADDRESS         REF BY
           =====                   =======         ======
           DMAARM                  000000D6 

    *************************************************************************

  FILE NAME : C:\ZStack-CC2530-2.5.1a\Projects\zstack\Samples\Òº¾§ÏÔÊ¾Ä£×é¿ØÖÆÊµ¼ù\CC2530DB\CoordinatorEB\Obj\ZDApp.r51
  PROGRAM MODULE, NAME : ZDApp

  SEGMENTS IN THE MODULE
  ======================
<XDATA_ROM_C> 1 (was XDATA_ROM_C)
  Relative segment, address: CONST 00008005 - 00008008 (0x4 bytes), align: 0
  Segment part 34.            Intra module refs:   halAssertHazardLights (hal_assert)
           ENTRY                   ADDRESS         REF BY
           =====                   =======         ======
           __Constant_1            00008005 
    -------------------------------------------------------------------------
<XDATA_ROM_C_FLASH> 1 (was XDATA_ROM_C_FLASH)
  Relative segment, address: CODE 00018005 - 00018008 (0x4 bytes), align: 0
  Segment part 221.           Intra module refs:   __Constant_1

    *************************************************************************

  FILE NAME : C:\ZStack-CC2530-2.5.1a\Projects\zstack\Samples\Òº¾§ÏÔÊ¾Ä£×é¿ØÖÆÊµ¼ù\CC2530DB\CoordinatorEB\Obj\ZDConfig.r51
    *************************************************************************

  FILE NAME : C:\ZStack-CC2530-2.5.1a\Projects\zstack\Samples\Òº¾§ÏÔÊ¾Ä£×é¿ØÖÆÊµ¼ù\CC2530DB\CoordinatorEB\Obj\ZDNwkMgr.r51
    *************************************************************************

  FILE NAME : C:\ZStack-CC2530-2.5.1a\Projects\zstack\Samples\Òº¾§ÏÔÊ¾Ä£×é¿ØÖÆÊµ¼ù\CC2530DB\CoordinatorEB\Obj\ZDObject.r51
    *************************************************************************

  FILE NAME : C:\ZStack-CC2530-2.5.1a\Projects\zstack\Samples\Òº¾§ÏÔÊ¾Ä£×é¿ØÖÆÊµ¼ù\CC2530DB\CoordinatorEB\Obj\ZDProfile.r51
    *************************************************************************

  FILE NAME : C:\ZStack-CC2530-2.5.1a\Projects\zstack\Samples\Òº¾§ÏÔÊ¾Ä£×é¿ØÖÆÊµ¼ù\CC2530DB\CoordinatorEB\Obj\ZDSecMgr.r51
    *************************************************************************

  FILE NAME : C:\ZStack-CC2530-2.5.1a\Projects\zstack\Samples\Òº¾§ÏÔÊ¾Ä£×é¿ØÖÆÊµ¼ù\CC2530DB\CoordinatorEB\Obj\ZGlobals.r51
    *************************************************************************

  FILE NAME : C:\ZStack-CC2530-2.5.1a\Projects\zstack\Samples\Òº¾§ÏÔÊ¾Ä£×é¿ØÖÆÊµ¼ù\CC2530DB\CoordinatorEB\Obj\ZMain.r51
  PROGRAM MODULE, NAME : ZMain

  SEGMENTS IN THE MODULE
  ======================
SFR_AN
  Relative segment, address: DATA 00000080 - 00000080 (0x1 bytes), align: 0
  Segment part 1. ROOT.       Intra module refs:   MAC_RfFrontendSetup (mac_rffrontend)
                                                   halAssertHazardLights (hal_assert)
                                                   main
           ENTRY                   ADDRESS         REF BY
           =====                   =======         ======
           _A_P0                   00000080 
           LOCAL                   ADDRESS         
           =====                   =======         
           P0                      00000080 
    -------------------------------------------------------------------------
SFR_AN
  Relative segment, address: DATA 0000008F - 0000008F (0x1 bytes), align: 0
  Segment part 2. ROOT.       Intra module refs:   halAssertHazardLights (hal_assert)
                                                   main
           ENTRY                   ADDRESS         REF BY
           =====                   =======         ======
           P0INP                   0000008F 
    -------------------------------------------------------------------------
SFR_AN
  Relative segment, address: DATA 0000009E - 0000009E (0x1 bytes), align: 0
  Segment part 4. ROOT.       Intra module refs:   halAssertHazardLights (hal_assert)
                                                   main
           ENTRY                   ADDRESS         REF BY
           =====                   =======         ======
           CLKCONSTA               0000009E 
    -------------------------------------------------------------------------
SFR_AN
  Relative segment, address: DATA 000000BE - 000000BE (0x1 bytes), align: 0
  Segment part 5. ROOT.       Intra module refs:   halAssertHazardLights (hal_assert)
                                                   main
           ENTRY                   ADDRESS         REF BY
           =====                   =======         ======
           SLEEPCMD                000000BE 
    -------------------------------------------------------------------------
SFR_AN
  Relative segment, address: DATA 000000C6 - 000000C6 (0x1 bytes), align: 0
  Segment part 6. ROOT.       Intra module refs:   halAssertHazardLights (hal_assert)
                                                   main
           ENTRY                   ADDRESS         REF BY
           =====                   =======         ======
           CLKCONCMD               000000C6 
    -------------------------------------------------------------------------
SFR_AN
  Relative segment, address: DATA 000000FD - 000000FD (0x1 bytes), align: 0
  Segment part 7. ROOT.       Intra module refs:   halAssertHazardLights (hal_assert)
                                                   main
           ENTRY                   ADDRESS         REF BY
           =====                   =======         ======
           P0DIR                   000000FD 
    -------------------------------------------------------------------------
SFR_AN
  Relative segment, address: DATA 000000FE - 000000FE (0x1 bytes), align: 0
  Segment part 8. ROOT.       Intra module refs:   halAssertHazardLights (hal_assert)
                                                   main
           ENTRY                   ADDRESS         REF BY
           =====                   =======         ======
           P1DIR                   000000FE 
    -------------------------------------------------------------------------
<BANKED_CODE,BANK_RELAYS..> 1 (was BANKED_CODE)
  Relative segment, address: CODE 000036CE - 000036D8 (0xb bytes), align: 0
  Segment part 14.
           ENTRY                   ADDRESS         REF BY
           =====                   =======         ======
           main                    000036CE        ?call_main (?cmain)

    *************************************************************************

  FILE NAME : C:\ZStack-CC2530-2.5.1a\Projects\zstack\Samples\Òº¾§ÏÔÊ¾Ä£×é¿ØÖÆÊµ¼ù\CC2530DB\CoordinatorEB\Obj\chipcon_cstartup.r51
  PROGRAM MODULE, NAME : CSTARTUP

  SEGMENTS IN THE MODULE
  ======================
REGISTERS
  Relative segment, address: DATA 00000000, align: 0
  Segment part 0.             Intra module refs:   Segment part 6
           ENTRY                   ADDRESS         REF BY
           =====                   =======         ======
           ?REGISTERS              00000000 
    -------------------------------------------------------------------------
ISTACK
  Relative segment, address: IDATA 00000040, align: 0
  Segment part 1.             Intra module refs:   Segment part 6
           ENTRY                   ADDRESS         REF BY
           =====                   =======         ======
           ?ISTACK_START           00000040 
    -------------------------------------------------------------------------
XSTACK
  Relative segment, address: XDATA 00000001, align: 0
  Segment part 3.             Intra module refs:   ?RESET_XSP
           ENTRY                   ADDRESS         REF BY
           =====                   =======         ======
           ?XSTACK_START           00000001 
    -------------------------------------------------------------------------
INTVEC
  Common segment, address: CODE 00000000 - 00000002 (0x3 bytes), align: 0
  Segment part 5. ROOT.       Intra module refs:   Segment part 6
           LOCAL                   ADDRESS         
           =====                   =======         
           ?reset_vector           00000000 
    -------------------------------------------------------------------------
<BANKED_CODE,BANK_RELAYS..> 1 (was CSTART)
  Relative segment, address: CODE 0000064C - 00000651 (0x6 bytes), align: 0
  Segment part 6. ROOT.       Intra module refs:   ?reset_vector
           ENTRY                   ADDRESS         REF BY
           =====                   =======         ======
           __program_start         0000064C        Absolute parts (?ABS_ENTRY_MOD)
           ?RESET_SP               0000064F 
    -------------------------------------------------------------------------
<BANKED_CODE,BANK_RELAYS..> 1 (was CSTART)
  Relative segment, address: CODE 00000652 - 00000657 (0x6 bytes), align: 0
  Segment part 8.
           ENTRY                   ADDRESS         REF BY
           =====                   =======         ======
           ?RESET_XSP              00000652        ?XSP (VIRTUAL_REGISTERS)
    -------------------------------------------------------------------------
<BANKED_CODE,BANK_RELAYS..> 1 (was CSTART)
  Relative segment, address: CODE 00000658 - 00000658 (0x1 bytes), align: 0
  Segment part 9.
           ENTRY                   ADDRESS         REF BY
           =====                   =======         ======
           ?RESET_CODE_BANK        00000658        Absolute parts (?BANKED_CODE_SUPPORT)
    -------------------------------------------------------------------------
<BANKED_CODE,BANK_RELAYS..> 1 (was CSTART)
  Relative segment, address: CODE 00000659 - 0000065B (0x3 bytes), align: 0
  Segment part 11.            Intra module refs:   Absolute parts
           LOCAL                   ADDRESS         
           =====                   =======         
           __call_main             00000659 

    -------------------------------------------------------------------------
  LIBRARY MODULE, NAME : VIRTUAL_REGISTERS

  SEGMENTS IN THE MODULE
  ======================
BREG
  Relative segment, address: BIT 00000020.0 - 00000020.7 (0x8 bits), align: 0
  Segment part 0.
           ENTRY                   ADDRESS         REF BY
           =====                   =======         ======
           ?B0                     00000020.0      Absolute parts (CSTARTUP)
    -------------------------------------------------------------------------
VREG
  Relative segment, address: DATA 00000008, align: 0
  Segment part 1.
           ENTRY                   ADDRESS         REF BY
           =====                   =======         ======
           ?V0                     00000008        ?BANKED_ENTER_XDATA (?BANKED_ENTER_XDATA)
                                                   ?BANKED_LEAVE_XDATA (?BANKED_LEAVE_XDATA)
                                                   ?INTERRUPT_ENTER_XSP (?INTERRUPT_ENTER_XSP)
                                                   ?INTERRUPT_LEAVE_XSP (?INTERRUPT_LEAVE_XSP)
                                                   ?Subroutine0 (mac_pib)
                                                   ?Subroutine10 (zmac_cb)
                                                   ?Subroutine11 (zmac_cb)
                                                   ?Subroutine14 (zmac_cb)
                                                   ?Subroutine15 (zmac_cb)
                                                   ?Subroutine23 (mac_rx)
                                                   ?Subroutine3 (mac_backoff_timer)
                                                   ?Subroutine3 (mac_mcu)
                                                   ?Subroutine4 (mac_backoff_timer)
                                                   ?Subroutine4 (mac_mcu)
                                                   ?Subroutine7 (mac_mcu)
                                                   ?Subroutine8 (mac_mcu)
                                                   ?Subroutine9 (zmac_cb)
                                                   ?UL_GE_X (?UL_GE_X)
                                                   MAC_CbackEvent (zmac_cb)
                                                   MAC_MlmeGetReq (mac_pib)
                                                   Segment part 532 (mac_beacon)
                                                   Segment part 798 (mac_beacon)
                                                   Segment part 810 (mac_beacon)
                                                   ZMacLqiAdjust (zmac_cb)
                                                   cspReadCountSymbols (mac_csp_tx)
                                                   halAssertHazardLights (hal_assert)
                                                   halSetMaxSleepLoopTime (hal_sleep)
                                                   macBackoffTimerCapture (mac_backoff_timer)
                                                   macBackoffTimerCount (mac_backoff_timer)
                                                   macBackoffTimerRolloverCallback (mac_beacon)
                                                   macBackoffTimerSetRollover (mac_backoff_timer)
                                                   macBackoffTimerSetTrigger (mac_backoff_timer)
                                                   macBackoffTimerTriggerCallback (mac_beacon)
                                                   macCbackForEvent (mac_beacon)
                                                   macCspTxGoSlotted (mac_csp_tx)
                                                   macCspTxRequestAckTimeoutCallback (mac_csp_tx)
                                                   macMcuOverflowSetCompare (mac_mcu)
                                                   macMcuOverflowSetPeriod (mac_mcu)
                                                   macMcuTimer2Isr (mac_mcu)
                                                   macMcuTimerCapture (mac_mcu)
                                                   macMemReadRxFifo (mac_mem)
                                                   macMemWriteTxFifo (mac_mem)
                                                   macSecCpy (mac_beacon)
                                                   macTimerCancel (mac_beacon)
                                                   macTimerRecalcUnaligned (mac_beacon)
                                                   macTimerUpdateBackoffTimer (mac_beacon)
                                                   macTxAckReceivedCallback (mac_tx)
                                                   macTxTimestampCallback (mac_tx)
                                                   mac_msg_deallocate (mac_beacon)
                                                   osalAddTimer (OSAL_Timers)
                                                   osal_mem_alloc (OSAL_Memory)
                                                   osal_memcpy (OSAL)
                                                   osal_msg_allocate (OSAL)
                                                   osal_msg_enqueue_max (OSAL)
                                                   osal_start_timerEx (OSAL_Timers)
                                                   rxFcsIsr (mac_rx)
                                                   rxStartIsr (mac_rx)
                                                   sAddrExtCpy (saddr)
                                                   txCsmaPrep (mac_tx)
    -------------------------------------------------------------------------
XSP
  Relative segment, address: DATA 00000018 - 00000019 (0x2 bytes), align: 0
  Segment part 3.
           ENTRY                   ADDRESS         REF BY
           =====                   =======         ======
           ?XSP                    00000018        ?ADD_XSTACK_DISP0_8 (?ADD_XSTACK_DISP8)
                                                   ?ALLOC_XSTACK8 (?ALLOC_XSTACK8)
                                                   ?BANKED_ENTER_XDATA (?BANKED_ENTER_XDATA)
                                                   ?BANKED_LEAVE_XDATA (?BANKED_LEAVE_XDATA)
                                                   ?DEALLOC_XSTACK8 (?DEALLOC_XSTACK8)
                                                   ?INTERRUPT_ENTER_XSP (?INTERRUPT_ENTER_XSP)
                                                   ?INTERRUPT_LEAVE_XSP (?INTERRUPT_LEAVE_XSP)
                                                   ?PUSH_XSTACK8_X (?PUSH_XSTACK8_X)
                                                   ?RESET_XSP (CSTARTUP)
                                                   ?Subroutine0 (mac_mcu)
                                                   ?Subroutine13 (mac_rx)
                                                   ?Subroutine20 (zmac_cb)
                                                   ?Subroutine3 (mac_mcu)
                                                   ?Subroutine5 (mac_mcu)
                                                   ?Subroutine8 (zmac_cb)
                                                   ?Subroutine9 (mac_mcu)
                                                   ?XSTACK_DISP0_8 (?XSTACK_DISP8)
                                                   MAC_CbackEvent (zmac_cb)
                                                   Segment part 342 (mac_beacon)
                                                   Segment part 383 (mac_beacon)
                                                   Segment part 472 (mac_beacon)
                                                   Segment part 746 (mac_beacon)
                                                   halAssertHazardLights (hal_assert)
                                                   macCbackForEvent (mac_beacon)
                                                   macMcuOverflowSetCompare (mac_mcu)
                                                   macMcuOverflowSetPeriod (mac_mcu)
                                                   macRxCompleteCallback (mac_beacon)
                                                   rxAddrIsr (mac_rx)
                                                   rxStartIsr (mac_rx)

    *************************************************************************

  FILE NAME : C:\ZStack-CC2530-2.5.1a\Projects\zstack\Samples\Òº¾§ÏÔÊ¾Ä£×é¿ØÖÆÊµ¼ù\CC2530DB\CoordinatorEB\Obj\hal_adc.r51
  PROGRAM MODULE, NAME : hal_adc

  SEGMENTS IN THE MODULE
  ======================
SFR_AN
  Relative segment, address: DATA 000000B4 - 000000B4 (0x1 bytes), align: 0
  Segment part 1. ROOT.       Intra module refs:   macMcuRandomByte (mac_mcu)
           ENTRY                   ADDRESS         REF BY
           =====                   =======         ======
           ADCCON1                 000000B4 
    -------------------------------------------------------------------------
SFR_AN
  Relative segment, address: DATA 000000B6 - 000000B6 (0x1 bytes), align: 0
  Segment part 2. ROOT.
           ENTRY                   ADDRESS         REF BY
           =====                   =======         ======
           ADCCON3                 000000B6 
    -------------------------------------------------------------------------
SFR_AN
  Relative segment, address: DATA 000000BA - 000000BA (0x1 bytes), align: 0
  Segment part 3. ROOT.
           ENTRY                   ADDRESS         REF BY
           =====                   =======         ======
           ADCL                    000000BA 
    -------------------------------------------------------------------------
SFR_AN
  Relative segment, address: DATA 000000BB - 000000BB (0x1 bytes), align: 0
  Segment part 4. ROOT.
           ENTRY                   ADDRESS         REF BY
           =====                   =======         ======
           ADCH                    000000BB 
    -------------------------------------------------------------------------
SFR_AN
  Relative segment, address: DATA 000000F2 - 000000F2 (0x1 bytes), align: 0
  Segment part 5. ROOT.
           ENTRY                   ADDRESS         REF BY
           =====                   =======         ======
           ADCCFG                  000000F2 

    *************************************************************************

  FILE NAME : C:\ZStack-CC2530-2.5.1a\Projects\zstack\Samples\Òº¾§ÏÔÊ¾Ä£×é¿ØÖÆÊµ¼ù\CC2530DB\CoordinatorEB\Obj\hal_assert.r51
  PROGRAM MODULE, NAME : hal_assert

  SEGMENTS IN THE MODULE
  ======================
SFR_AN
  Relative segment, address: DATA 00000090 - 00000090 (0x1 bytes), align: 0
  Segment part 3. ROOT.       Intra module refs:   halAssertHazardLights
           ENTRY                   ADDRESS         REF BY
           =====                   =======         ======
           _A_P1                   00000090 
           LOCAL                   ADDRESS         
           =====                   =======         
           P1                      00000090 
    -------------------------------------------------------------------------
<BANKED_CODE,BANK_RELAYS..> 1 (was BANKED_CODE)
  Relative segment, address: CODE 00002E22 - 00002E2F (0xe bytes), align: 0
  Segment part 19.            Intra module refs:   halAssertHandler::?relay
           ENTRY                   ADDRESS         REF BY
           =====                   =======         ======
           halAssertHandler        00002E22 
               calls direct
               ISTACK = 00000000 ( 00000002 )
    -------------------------------------------------------------------------
<BANKED_CODE,BANK_RELAYS..> 1 (was BANKED_CODE)
  Relative segment, address: CODE 00002E30 - 00002F98 (0x169 bytes), align: 0
  Segment part 21.            Intra module refs:   halAssertHazardLights::?relay
           ENTRY                   ADDRESS         REF BY
           =====                   =======         ======
           halAssertHazardLights   00002E30 
               calls direct
               XSTACK = 00000000 ( 00000016 )
               ISTACK = 00000000 ( 00000002 )
    -------------------------------------------------------------------------
<BANKED_CODE,BANK_RELAYS..> 1 (was BANKED_CODE)
  Relative segment, address: CODE 00002F99 - 00002FAD (0x15 bytes), align: 0
  Segment part 23.            Intra module refs:   halAssertHazardLights
           LOCAL                   ADDRESS         
           =====                   =======         
           ?Subroutine0            00002F99 
    -------------------------------------------------------------------------
<XDATA_ROM_C> 1 (was XDATA_ROM_C)
  Relative segment, address: CONST 00008009 - 0000800C (0x4 bytes), align: 0
  Segment part 18.            Intra module refs:   halAssertHazardLights
           ENTRY                   ADDRESS         REF BY
           =====                   =======         ======
           __Constant_5800         00008009 
    -------------------------------------------------------------------------
<BANKED_CODE,BANK_RELAYS..> 1 (was BANK_RELAYS)
  Relative segment, address: CODE 000006C0 - 000006C5 (0x6 bytes), align: 0
  Segment part 20.
           ENTRY                   ADDRESS         REF BY
           =====                   =======         ======
           halAssertHandler::?relay
                                   000006C0        cspPrepForTxProgram (mac_csp_tx)
                                                   macBackoffTimerSetRollover (mac_backoff_timer)
                                                   macBackoffTimerSetTrigger (mac_backoff_timer)
                                                   macBackoffTimerTriggerCallback (mac_beacon)
                                                   macCspTxRequestAckTimeoutCallback (mac_csp_tx)
                                                   macCspTxStopIsr (mac_csp_tx)
                                                   macMcuOverflowSetCompare (mac_mcu)
                                                   macMcuOverflowSetPeriod (mac_mcu)
                                                   macMemReadRxFifo (mac_mem)
                                                   macMemWriteTxFifo (mac_mem)
                                                   macRadioSetChannel (mac_radio)
                                                   macRadioUpdateChannel (mac_radio)
                                                   macTimerRecalcUnaligned (mac_beacon)
                                                   macTxChannelBusyCallback (mac_tx)
                                                   macTxFrame (mac_tx)
                                                   macTxStartQueuedFrame (mac_tx)
                                                   macTxTimestampCallback (mac_tx)
                                                   mac_msg_deallocate (mac_beacon)
                                                   osal_mem_free (OSAL_Memory)
                                                   rxAddrIsr (mac_rx)
                                                   rxDiscardFrame (mac_rx)
                                                   rxStartIsr (mac_rx)
    -------------------------------------------------------------------------
<BANKED_CODE,BANK_RELAYS..> 1 (was BANK_RELAYS)
  Relative segment, address: CODE 000006C6 - 000006CB (0x6 bytes), align: 0
  Segment part 22.            Intra module refs:   halAssertHandler
           ENTRY                   ADDRESS         REF BY
           =====                   =======         ======
           halAssertHazardLights::?relay
                                   000006C6 
    -------------------------------------------------------------------------
<XDATA_ROM_C_FLASH> 1 (was XDATA_ROM_C_FLASH)
  Relative segment, address: CODE 00018009 - 0001800C (0x4 bytes), align: 0
  Segment part 26.            Intra module refs:   __Constant_5800

    *************************************************************************

  FILE NAME : C:\ZStack-CC2530-2.5.1a\Projects\zstack\Samples\Òº¾§ÏÔÊ¾Ä£×é¿ØÖÆÊµ¼ù\CC2530DB\CoordinatorEB\Obj\hal_dma.r51
  PROGRAM MODULE, NAME : hal_dma

  SEGMENTS IN THE MODULE
  ======================
SFR_AN
  Relative segment, address: DATA 000000B8 - 000000B8 (0x1 bytes), align: 0
  Segment part 2. ROOT.
           ENTRY                   ADDRESS         REF BY
           =====                   =======         ======
           _A_IEN1                 000000B8 
           LOCAL                   ADDRESS         
           =====                   =======         
           IEN1                    000000B8 
    -------------------------------------------------------------------------
SFR_AN
  Relative segment, address: DATA 000000C0 - 000000C0 (0x1 bytes), align: 0
  Segment part 3. ROOT.       Intra module refs:   halDmaIsr
                                                   halKeyPort0Isr (hal_key)
                                                   halSleepTimerIsr (hal_sleep)
           ENTRY                   ADDRESS         REF BY
           =====                   =======         ======
           _A_IRCON                000000C0 
           LOCAL                   ADDRESS         
           =====                   =======         
           IRCON                   000000C0 
    -------------------------------------------------------------------------
SFR_AN
  Relative segment, address: DATA 000000D1 - 000000D1 (0x1 bytes), align: 0
  Segment part 4. ROOT.       Intra module refs:   HalUARTIsrDMA (hal_uart)
                                                   halDmaIsr
           ENTRY                   ADDRESS         REF BY
           =====                   =======         ======
           DMAIRQ                  000000D1 
    -------------------------------------------------------------------------
SFR_AN
  Relative segment, address: DATA 000000D2 - 000000D2 (0x1 bytes), align: 0
  Segment part 5. ROOT.
           ENTRY                   ADDRESS         REF BY
           =====                   =======         ======
           DMA1CFGL                000000D2 
    -------------------------------------------------------------------------
SFR_AN
  Relative segment, address: DATA 000000D3 - 000000D3 (0x1 bytes), align: 0
  Segment part 6. ROOT.
           ENTRY                   ADDRESS         REF BY
           =====                   =======         ======
           DMA1CFGH                000000D3 
    -------------------------------------------------------------------------
SFR_AN
  Relative segment, address: DATA 000000D4 - 000000D4 (0x1 bytes), align: 0
  Segment part 7. ROOT.
           ENTRY                   ADDRESS         REF BY
           =====                   =======         ======
           DMA0CFGL                000000D4 
    -------------------------------------------------------------------------
SFR_AN
  Relative segment, address: DATA 000000D5 - 000000D5 (0x1 bytes), align: 0
  Segment part 8. ROOT.
           ENTRY                   ADDRESS         REF BY
           =====                   =======         ======
           DMA0CFGH                000000D5 
    -------------------------------------------------------------------------
<BANKED_CODE,BANK_RELAYS..> 1 (was NEAR_CODE)
  Relative segment, address: CODE 00000459 - 0000047B (0x23 bytes), align: 0
  Segment part 19.            Intra module refs:   halDmaIsr::??INTVEC 67
           ENTRY                   ADDRESS         REF BY
           =====                   =======         ======
           halDmaIsr               00000459 
               interrupt function
               calls direct
               XSTACK = 00000000 ( 0000000E )
    -------------------------------------------------------------------------
INTVEC
  Common segment, address: CODE 00000000 - 00000045 (0x46 bytes), align: 0
  Segment part 9. ROOT.
           ENTRY                   ADDRESS         REF BY
           =====                   =======         ======
           halDmaIsr::??INTVEC 67
                                   00000043 

    *************************************************************************

  FILE NAME : C:\ZStack-CC2530-2.5.1a\Projects\zstack\Samples\Òº¾§ÏÔÊ¾Ä£×é¿ØÖÆÊµ¼ù\CC2530DB\CoordinatorEB\Obj\hal_drivers.r51
  PROGRAM MODULE, NAME : hal_drivers

  SEGMENTS IN THE MODULE
  ======================
XDATA_Z
  Relative segment, address: XDATA 00000394 - 00000394 (0x1 bytes), align: 0
  Segment part 6.
           ENTRY                   ADDRESS         REF BY
           =====                   =======         ======
           Hal_TaskID              00000394        halProcessKeyInterrupt (hal_key)

    *************************************************************************

  FILE NAME : C:\ZStack-CC2530-2.5.1a\Projects\zstack\Samples\Òº¾§ÏÔÊ¾Ä£×é¿ØÖÆÊµ¼ù\CC2530DB\CoordinatorEB\Obj\hal_flash.r51
  PROGRAM MODULE, NAME : hal_flash

  SEGMENTS IN THE MODULE
  ======================
SFR_AN
  Relative segment, address: DATA 000000C7 - 000000C7 (0x1 bytes), align: 0
  Segment part 2. ROOT.       Intra module refs:   __low_level_init (hal_startup)
           ENTRY                   ADDRESS         REF BY
           =====                   =======         ======
           MEMCTR                  000000C7 

    *************************************************************************

  FILE NAME : C:\ZStack-CC2530-2.5.1a\Projects\zstack\Samples\Òº¾§ÏÔÊ¾Ä£×é¿ØÖÆÊµ¼ù\CC2530DB\CoordinatorEB\Obj\hal_key.r51
  PROGRAM MODULE, NAME : hal_key

  SEGMENTS IN THE MODULE
  ======================
SFR_AN
  Relative segment, address: DATA 00000089 - 00000089 (0x1 bytes), align: 0
  Segment part 2. ROOT.       Intra module refs:   halKeyPort0Isr
                                                   halProcessKeyInterrupt
           ENTRY                   ADDRESS         REF BY
           =====                   =======         ======
           P0IFG                   00000089 
    -------------------------------------------------------------------------
SFR_AN
  Relative segment, address: DATA 0000008B - 0000008B (0x1 bytes), align: 0
  Segment part 3. ROOT.       Intra module refs:   halKeyPort2Isr
                                                   halProcessKeyInterrupt
           ENTRY                   ADDRESS         REF BY
           =====                   =======         ======
           P2IFG                   0000008B 
    -------------------------------------------------------------------------
SFR_AN
  Relative segment, address: DATA 0000008C - 0000008C (0x1 bytes), align: 0
  Segment part 4. ROOT.
           ENTRY                   ADDRESS         REF BY
           =====                   =======         ======
           PICTL                   0000008C 
    -------------------------------------------------------------------------
SFR_AN
  Relative segment, address: DATA 0000009A - 0000009A (0x1 bytes), align: 0
  Segment part 5. ROOT.
           ENTRY                   ADDRESS         REF BY
           =====                   =======         ======
           IEN2                    0000009A 
    -------------------------------------------------------------------------
SFR_AN
  Relative segment, address: DATA 000000A0 - 000000A0 (0x1 bytes), align: 0
  Segment part 6. ROOT.
           ENTRY                   ADDRESS         REF BY
           =====                   =======         ======
           _A_P2                   000000A0 
           LOCAL                   ADDRESS         
           =====                   =======         
           P2                      000000A0 
    -------------------------------------------------------------------------
SFR_AN
  Relative segment, address: DATA 000000AB - 000000AB (0x1 bytes), align: 0
  Segment part 8. ROOT.
           ENTRY                   ADDRESS         REF BY
           =====                   =======         ======
           P0IEN                   000000AB 
    -------------------------------------------------------------------------
SFR_AN
  Relative segment, address: DATA 000000AC - 000000AC (0x1 bytes), align: 0
  Segment part 9. ROOT.
           ENTRY                   ADDRESS         REF BY
           =====                   =======         ======
           P2IEN                   000000AC 
    -------------------------------------------------------------------------
SFR_AN
  Relative segment, address: DATA 000000E8 - 000000E8 (0x1 bytes), align: 0
  Segment part 12. ROOT.      Intra module refs:   halKeyPort2Isr
           ENTRY                   ADDRESS         REF BY
           =====                   =======         ======
           _A_IRCON2               000000E8 
           LOCAL                   ADDRESS         
           =====                   =======         
           IRCON2                  000000E8 
    -------------------------------------------------------------------------
SFR_AN
  Relative segment, address: DATA 000000F3 - 000000F3 (0x1 bytes), align: 0
  Segment part 13. ROOT.
           ENTRY                   ADDRESS         REF BY
           =====                   =======         ======
           P0SEL                   000000F3 
    -------------------------------------------------------------------------
SFR_AN
  Relative segment, address: DATA 000000F5 - 000000F5 (0x1 bytes), align: 0
  Segment part 14. ROOT.
           ENTRY                   ADDRESS         REF BY
           =====                   =======         ======
           P2SEL                   000000F5 
    -------------------------------------------------------------------------
SFR_AN
  Relative segment, address: DATA 000000FF - 000000FF (0x1 bytes), align: 0
  Segment part 16. ROOT.
           ENTRY                   ADDRESS         REF BY
           =====                   =======         ======
           P2DIR                   000000FF 
    -------------------------------------------------------------------------
<BANKED_CODE,BANK_RELAYS..> 1 (was BANKED_CODE)
  Relative segment, address: CODE 000035EB - 0000361A (0x30 bytes), align: 0
  Segment part 39.            Intra module refs:   halProcessKeyInterrupt::?relay
           ENTRY                   ADDRESS         REF BY
           =====                   =======         ======
           halProcessKeyInterrupt
                                   000035EB 
               calls direct
               XSTACK = 0000000E ( 00000000 )
               ISTACK = 00000000 ( 00000002 )
    -------------------------------------------------------------------------
<BANKED_CODE,BANK_RELAYS..> 1 (was BANKED_CODE)
  Relative segment, address: CODE 0000361B - 00003621 (0x7 bytes), align: 0
  Segment part 41.            Intra module refs:   halProcessKeyInterrupt
           LOCAL                   ADDRESS         
           =====                   =======         
           ?Subroutine0            0000361B 
    -------------------------------------------------------------------------
<BANKED_CODE,BANK_RELAYS..> 1 (was NEAR_CODE)
  Relative segment, address: CODE 000003E8 - 00000403 (0x1c bytes), align: 0
  Segment part 46.            Intra module refs:   halKeyPort0Isr::??INTVEC 107
           ENTRY                   ADDRESS         REF BY
           =====                   =======         ======
           halKeyPort0Isr          000003E8 
               interrupt function
               calls direct
               XSTACK = 00000000 ( 0000000E )
    -------------------------------------------------------------------------
<BANKED_CODE,BANK_RELAYS..> 1 (was NEAR_CODE)
  Relative segment, address: CODE 00000404 - 0000040D (0xa bytes), align: 0
  Segment part 47.            Intra module refs:   halKeyPort0Isr
                                                   halKeyPort2Isr
           LOCAL                   ADDRESS         
           =====                   =======         
           ?Subroutine2            00000404 
    -------------------------------------------------------------------------
<BANKED_CODE,BANK_RELAYS..> 1 (was NEAR_CODE)
  Relative segment, address: CODE 0000040E - 0000042B (0x1e bytes), align: 0
  Segment part 48.            Intra module refs:   halKeyPort2Isr::??INTVEC 51
           ENTRY                   ADDRESS         REF BY
           =====                   =======         ======
           halKeyPort2Isr          0000040E 
               interrupt function
               calls direct
               XSTACK = 00000000 ( 0000000E )
    -------------------------------------------------------------------------
INTVEC
  Common segment, address: CODE 00000000 - 00000035 (0x36 bytes), align: 0
  Segment part 17. ROOT.
           ENTRY                   ADDRESS         REF BY
           =====                   =======         ======
           halKeyPort2Isr::??INTVEC 51
                                   00000033 
    -------------------------------------------------------------------------
INTVEC
  Common segment, address: CODE 00000000 - 0000006D (0x6e bytes), align: 0
  Segment part 18. ROOT.
           ENTRY                   ADDRESS         REF BY
           =====                   =======         ======
           halKeyPort0Isr::??INTVEC 107
                                   0000006B 
    -------------------------------------------------------------------------
<BANKED_CODE,BANK_RELAYS..> 1 (was BANK_RELAYS)
  Relative segment, address: CODE 000006CC - 000006D1 (0x6 bytes), align: 0
  Segment part 40.            Intra module refs:   halKeyPort0Isr
                                                   halKeyPort2Isr
           ENTRY                   ADDRESS         REF BY
           =====                   =======         ======
           halProcessKeyInterrupt::?relay
                                   000006CC 

    *************************************************************************

  FILE NAME : C:\ZStack-CC2530-2.5.1a\Projects\zstack\Samples\Òº¾§ÏÔÊ¾Ä£×é¿ØÖÆÊµ¼ù\CC2530DB\CoordinatorEB\Obj\hal_lcd.r51
  PROGRAM MODULE, NAME : hal_lcd

  SEGMENTS IN THE MODULE
  ======================
SFR_AN
  Relative segment, address: DATA 000000F1 - 000000F1 (0x1 bytes), align: 0
  Segment part 3. ROOT.
           ENTRY                   ADDRESS         REF BY
           =====                   =======         ======
           PERCFG                  000000F1 
    -------------------------------------------------------------------------
SFR_AN
  Relative segment, address: DATA 000000F4 - 000000F4 (0x1 bytes), align: 0
  Segment part 5. ROOT.
           ENTRY                   ADDRESS         REF BY
           =====                   =======         ======
           P1SEL                   000000F4 
    -------------------------------------------------------------------------
SFR_AN
  Relative segment, address: DATA 000000F8 - 000000F8 (0x1 bytes), align: 0
  Segment part 6. ROOT.
           ENTRY                   ADDRESS         REF BY
           =====                   =======         ======
           _A_U1CSR                000000F8 
           LOCAL                   ADDRESS         
           =====                   =======         
           U1CSR                   000000F8 
    -------------------------------------------------------------------------
SFR_AN
  Relative segment, address: DATA 000000F9 - 000000F9 (0x1 bytes), align: 0
  Segment part 7. ROOT.
           ENTRY                   ADDRESS         REF BY
           =====                   =======         ======
           U1DBUF                  000000F9 
    -------------------------------------------------------------------------
SFR_AN
  Relative segment, address: DATA 000000FA - 000000FA (0x1 bytes), align: 0
  Segment part 8. ROOT.
           ENTRY                   ADDRESS         REF BY
           =====                   =======         ======
           U1BAUD                  000000FA 
    -------------------------------------------------------------------------
SFR_AN
  Relative segment, address: DATA 000000FB - 000000FB (0x1 bytes), align: 0
  Segment part 9. ROOT.
           ENTRY                   ADDRESS         REF BY
           =====                   =======         ======
           U1UCR                   000000FB 
    -------------------------------------------------------------------------
SFR_AN
  Relative segment, address: DATA 000000FC - 000000FC (0x1 bytes), align: 0
  Segment part 10. ROOT.
           ENTRY                   ADDRESS         REF BY
           =====                   =======         ======
           U1GCR                   000000FC 

    *************************************************************************

  FILE NAME : C:\ZStack-CC2530-2.5.1a\Projects\zstack\Samples\Òº¾§ÏÔÊ¾Ä£×é¿ØÖÆÊµ¼ù\CC2530DB\CoordinatorEB\Obj\hal_led.r51
  PROGRAM MODULE, NAME : hal_led

  SEGMENTS IN THE MODULE
  ======================

    *************************************************************************

  FILE NAME : C:\ZStack-CC2530-2.5.1a\Projects\zstack\Samples\Òº¾§ÏÔÊ¾Ä£×é¿ØÖÆÊµ¼ù\CC2530DB\CoordinatorEB\Obj\hal_sleep.r51
  PROGRAM MODULE, NAME : hal_sleep

  SEGMENTS IN THE MODULE
  ======================
SFR_AN
  Relative segment, address: DATA 00000087 - 00000087 (0x1 bytes), align: 0
  Segment part 1. ROOT.
           ENTRY                   ADDRESS         REF BY
           =====                   =======         ======
           PCON                    00000087 
    -------------------------------------------------------------------------
SFR_AN
  Relative segment, address: DATA 00000095 - 00000095 (0x1 bytes), align: 0
  Segment part 2. ROOT.       Intra module refs:   HalUARTIsrDMA (hal_uart)
           ENTRY                   ADDRESS         REF BY
           =====                   =======         ======
           ST0                     00000095 
    -------------------------------------------------------------------------
SFR_AN
  Relative segment, address: DATA 00000096 - 00000096 (0x1 bytes), align: 0
  Segment part 3. ROOT.
           ENTRY                   ADDRESS         REF BY
           =====                   =======         ======
           ST1                     00000096 
    -------------------------------------------------------------------------
SFR_AN
  Relative segment, address: DATA 00000097 - 00000097 (0x1 bytes), align: 0
  Segment part 4. ROOT.
           ENTRY                   ADDRESS         REF BY
           =====                   =======         ======
           ST2                     00000097 
    -------------------------------------------------------------------------
SFR_AN
  Relative segment, address: DATA 000000AD - 000000AD (0x1 bytes), align: 0
  Segment part 7. ROOT.
           ENTRY                   ADDRESS         REF BY
           =====                   =======         ======
           STLOAD                  000000AD 
    -------------------------------------------------------------------------
XDATA_I
  Relative segment, address: XDATA 00000627 - 0000062A (0x4 bytes), align: 0
  Segment part 17.            Intra module refs:   halSetMaxSleepLoopTime
           LOCAL                   ADDRESS         
           =====                   =======         
           maxSleepLoopTime        00000627 
    -------------------------------------------------------------------------
<BANKED_CODE,BANK_RELAYS..> 1 (was BANKED_CODE)
  Relative segment, address: CODE 00003654 - 00003675 (0x22 bytes), align: 0
  Segment part 32.            Intra module refs:   halSetMaxSleepLoopTime::?relay
           ENTRY                   ADDRESS         REF BY
           =====                   =======         ======
           halSetMaxSleepLoopTime
                                   00003654 
               XSTACK = 00000000 ( 0000000C )
    -------------------------------------------------------------------------
<BANKED_CODE,BANK_RELAYS..> 1 (was NEAR_CODE)
  Relative segment, address: CODE 00000529 - 00000541 (0x19 bytes), align: 0
  Segment part 45.            Intra module refs:   halSleepTimerIsr::??INTVEC 43
           ENTRY                   ADDRESS         REF BY
           =====                   =======         ======
           halSleepTimerIsr        00000529 
               interrupt function
               ISTACK = 00000000 ( 00000003 )
    -------------------------------------------------------------------------
INTVEC
  Common segment, address: CODE 00000000 - 0000002D (0x2e bytes), align: 0
  Segment part 11. ROOT.
           ENTRY                   ADDRESS         REF BY
           =====                   =======         ======
           halSleepTimerIsr::??INTVEC 43
                                   0000002B 
    -------------------------------------------------------------------------
XDATA_ID
  Relative segment, address: CODE 00000096 - 00000099 (0x4 bytes), align: 0
  Segment part 18.            Intra module refs:   maxSleepLoopTime
    -------------------------------------------------------------------------
<XDATA_ROM_C> 1 (was XDATA_ROM_C)
  Relative segment, address: CONST 0000800D - 00008010 (0x4 bytes), align: 0
  Segment part 22.            Intra module refs:   halSetMaxSleepLoopTime
           ENTRY                   ADDRESS         REF BY
           =====                   =======         ======
           __Constant_fffffffe     0000800D 
    -------------------------------------------------------------------------
<BANKED_CODE,BANK_RELAYS..> 1 (was BANK_RELAYS)
  Relative segment, address: CODE 000006D2 - 000006D7 (0x6 bytes), align: 0
  Segment part 33.
           ENTRY                   ADDRESS         REF BY
           =====                   =======         ======
           halSetMaxSleepLoopTime::?relay
                                   000006D2        macMcuOverflowSetPeriod (mac_mcu)
    -------------------------------------------------------------------------
<XDATA_ROM_C_FLASH> 1 (was XDATA_ROM_C_FLASH)
  Relative segment, address: CODE 0001800D - 00018010 (0x4 bytes), align: 0
  Segment part 46.            Intra module refs:   __Constant_fffffffe

    *************************************************************************

  FILE NAME : C:\ZStack-CC2530-2.5.1a\Projects\zstack\Samples\Òº¾§ÏÔÊ¾Ä£×é¿ØÖÆÊµ¼ù\CC2530DB\CoordinatorEB\Obj\hal_startup.r51
  PROGRAM MODULE, NAME : hal_startup

  SEGMENTS IN THE MODULE
  ======================
<BANKED_CODE,BANK_RELAYS..> 1 (was CSTART)
  Relative segment, address: CODE 0000069F - 000006A9 (0xb bytes), align: 0
  Segment part 7. ROOT.
           ENTRY                   ADDRESS         REF BY
           =====                   =======         ======
           __low_level_init        0000069F        __low_level_init_call (?cmain)

    *************************************************************************

  FILE NAME : C:\ZStack-CC2530-2.5.1a\Projects\zstack\Samples\Òº¾§ÏÔÊ¾Ä£×é¿ØÖÆÊµ¼ù\CC2530DB\CoordinatorEB\Obj\hal_timer.r51
    *************************************************************************

  FILE NAME : C:\ZStack-CC2530-2.5.1a\Projects\zstack\Samples\Òº¾§ÏÔÊ¾Ä£×é¿ØÖÆÊµ¼ù\CC2530DB\CoordinatorEB\Obj\hal_uart.r51
  PROGRAM MODULE, NAME : hal_uart

  SEGMENTS IN THE MODULE
  ======================
SFR_AN
  Relative segment, address: DATA 00000086 - 00000086 (0x1 bytes), align: 0
  Segment part 2. ROOT.
           ENTRY                   ADDRESS         REF BY
           =====                   =======         ======
           U0CSR                   00000086 
    -------------------------------------------------------------------------
SFR_AN
  Relative segment, address: DATA 000000C2 - 000000C2 (0x1 bytes), align: 0
  Segment part 6. ROOT.
           ENTRY                   ADDRESS         REF BY
           =====                   =======         ======
           U0BAUD                  000000C2 
    -------------------------------------------------------------------------
SFR_AN
  Relative segment, address: DATA 000000C4 - 000000C4 (0x1 bytes), align: 0
  Segment part 7. ROOT.
           ENTRY                   ADDRESS         REF BY
           =====                   =======         ======
           U0UCR                   000000C4 
    -------------------------------------------------------------------------
SFR_AN
  Relative segment, address: DATA 000000C5 - 000000C5 (0x1 bytes), align: 0
  Segment part 8. ROOT.
           ENTRY                   ADDRESS         REF BY
           =====                   =======         ======
           U0GCR                   000000C5 
    -------------------------------------------------------------------------
SFR_AN
  Relative segment, address: DATA 000000D7 - 000000D7 (0x1 bytes), align: 0
  Segment part 11. ROOT.
           ENTRY                   ADDRESS         REF BY
           =====                   =======         ======
           DMAREQ                  000000D7 
    -------------------------------------------------------------------------
XDATA_Z
  Relative segment, address: XDATA 00000395 - 000005A2 (0x20e bytes), align: 0
  Segment part 22.            Intra module refs:   ?Subroutine13
                                                   ?Subroutine16
                                                   HalUARTIsrDMA
           LOCAL                   ADDRESS         
           =====                   =======         
           dmaCfg                  00000395 
    -------------------------------------------------------------------------
<BANKED_CODE,BANK_RELAYS..> 1 (was BANKED_CODE)
  Relative segment, address: CODE 0000354A - 00003574 (0x2b bytes), align: 0
  Segment part 46.            Intra module refs:   HalUARTIsrDMA::?relay
           ENTRY                   ADDRESS         REF BY
           =====                   =======         ======
           HalUARTIsrDMA           0000354A 
               XSTACK = 0000000A ( 00000000 )
               ISTACK = 00000000 ( 00000002 )
    -------------------------------------------------------------------------
<BANKED_CODE,BANK_RELAYS..> 1 (was BANKED_CODE)
  Relative segment, address: CODE 00003575 - 00003577 (0x3 bytes), align: 0
  Segment part 48.            Intra module refs:   HalUARTIsrDMA
           LOCAL                   ADDRESS         
           =====                   =======         
           ?Subroutine11           00003575 
    -------------------------------------------------------------------------
<BANKED_CODE,BANK_RELAYS..> 1 (was BANKED_CODE)
  Relative segment, address: CODE 00003578 - 0000357B (0x4 bytes), align: 0
  Segment part 49.            Intra module refs:   ?Subroutine11
    -------------------------------------------------------------------------
<BANKED_CODE,BANK_RELAYS..> 1 (was BANKED_CODE)
  Relative segment, address: CODE 0000357C - 00003587 (0xc bytes), align: 0
  Segment part 50.            Intra module refs:   ?Subroutine13
                                                   Segment part 49
           LOCAL                   ADDRESS         
           =====                   =======         
           ?Subroutine16           0000357C 
    -------------------------------------------------------------------------
<BANKED_CODE,BANK_RELAYS..> 1 (was BANKED_CODE)
  Relative segment, address: CODE 00003588 - 0000358C (0x5 bytes), align: 0
  Segment part 51.            Intra module refs:   HalUARTIsrDMA
           LOCAL                   ADDRESS         
           =====                   =======         
           ?Subroutine3            00003588 
    -------------------------------------------------------------------------
<BANKED_CODE,BANK_RELAYS..> 1 (was BANKED_CODE)
  Relative segment, address: CODE 0000358D - 00003596 (0xa bytes), align: 0
  Segment part 52.            Intra module refs:   ?Subroutine3
           LOCAL                   ADDRESS         
           =====                   =======         
           ?Subroutine13           0000358D 
    -------------------------------------------------------------------------
<BANKED_CODE,BANK_RELAYS..> 1 (was BANKED_CODE)
  Relative segment, address: CODE 00003597 - 0000359D (0x7 bytes), align: 0
  Segment part 54.            Intra module refs:   HalUARTIsrDMA
    -------------------------------------------------------------------------
<BANKED_CODE,BANK_RELAYS..> 1 (was BANK_RELAYS)
  Relative segment, address: CODE 000006D8 - 000006DD (0x6 bytes), align: 0
  Segment part 47.
           ENTRY                   ADDRESS         REF BY
           =====                   =======         ======
           HalUARTIsrDMA::?relay   000006D8        halDmaIsr (hal_dma)

    *************************************************************************

  FILE NAME : C:\ZStack-CC2530-2.5.1a\Projects\zstack\Samples\Òº¾§ÏÔÊ¾Ä£×é¿ØÖÆÊµ¼ù\CC2530DB\CoordinatorEB\Obj\mac_autopend.r51
  PROGRAM MODULE, NAME : mac_autopend

  SEGMENTS IN THE MODULE
  ======================
XDATA_Z
  Relative segment, address: XDATA 000005A3 - 000005A3 (0x1 bytes), align: 0
  Segment part 6.
           ENTRY                   ADDRESS         REF BY
           =====                   =======         ======
           macSrcMatchIsEnabled    000005A3        rxFcsIsr (mac_rx)
                                                   rxStartIsr (mac_rx)
    -------------------------------------------------------------------------
XDATA_Z
  Relative segment, address: XDATA 000005A4 - 000005A4 (0x1 bytes), align: 0
  Segment part 10.            Intra module refs:   MAC_SrcMatchCheckAllPending
                                                   MAC_SrcMatchCheckResult
           ENTRY                   ADDRESS         REF BY
           =====                   =======         ======
           macSrcMatchIsAckAllPending
                                   000005A4 
    -------------------------------------------------------------------------
<BANKED_CODE,BANK_RELAYS..> 1 (was BANKED_CODE)
  Relative segment, address: CODE 00003622 - 00003633 (0x12 bytes), align: 0
  Segment part 19.            Intra module refs:   MAC_SrcMatchCheckAllPending::?relay
           ENTRY                   ADDRESS         REF BY
           =====                   =======         ======
           MAC_SrcMatchCheckAllPending
                                   00003622 
               ISTACK = 00000000 ( 00000002 )
    -------------------------------------------------------------------------
<BANKED_CODE,BANK_RELAYS..> 1 (was BANKED_CODE)
  Relative segment, address: CODE 00003634 - 0000363A (0x7 bytes), align: 0
  Segment part 21.            Intra module refs:   MAC_SrcMatchCheckAllPending
                                                   MAC_SrcMatchCheckResult
           LOCAL                   ADDRESS         
           =====                   =======         
           ?Subroutine0            00003634 
    -------------------------------------------------------------------------
<BANKED_CODE,BANK_RELAYS..> 1 (was BANKED_CODE)
  Relative segment, address: CODE 0000363B - 00003653 (0x19 bytes), align: 0
  Segment part 22.            Intra module refs:   MAC_SrcMatchCheckResult::?relay
           ENTRY                   ADDRESS         REF BY
           =====                   =======         ======
           MAC_SrcMatchCheckResult
                                   0000363B 
               ISTACK = 00000000 ( 00000002 )
    -------------------------------------------------------------------------
<BANKED_CODE,BANK_RELAYS..> 1 (was BANK_RELAYS)
  Relative segment, address: CODE 000006DE - 000006E3 (0x6 bytes), align: 0
  Segment part 20.
           ENTRY                   ADDRESS         REF BY
           =====                   =======         ======
           MAC_SrcMatchCheckAllPending::?relay
                                   000006DE        rxStartIsr (mac_rx)
    -------------------------------------------------------------------------
<BANKED_CODE,BANK_RELAYS..> 1 (was BANK_RELAYS)
  Relative segment, address: CODE 000006E4 - 000006E9 (0x6 bytes), align: 0
  Segment part 23.
           ENTRY                   ADDRESS         REF BY
           =====                   =======         ======
           MAC_SrcMatchCheckResult::?relay
                                   000006E4        rxFcsIsr (mac_rx)

    *************************************************************************

  FILE NAME : C:\ZStack-CC2530-2.5.1a\Projects\zstack\Samples\Òº¾§ÏÔÊ¾Ä£×é¿ØÖÆÊµ¼ù\CC2530DB\CoordinatorEB\Obj\mac_backoff_timer.r51
  PROGRAM MODULE, NAME : mac_backoff_timer

  SEGMENTS IN THE MODULE
  ======================
SFR_AN
  Relative segment, address: DATA 000000A1 - 000000A1 (0x1 bytes), align: 0
  Segment part 1. ROOT.       Intra module refs:   macBackoffTimerSetTrigger
                                                   macCspTxGoCsma (mac_csp_tx)
                                                   macCspTxRequestAckTimeoutCallback (mac_csp_tx)
                                                   macMcuOverflowSetCompare (mac_mcu)
                                                   macMcuOverflowSetPeriod (mac_mcu)
                                                   macMcuTimer2Isr (mac_mcu)
           ENTRY                   ADDRESS         REF BY
           =====                   =======         ======
           T2IRQF                  000000A1 
    -------------------------------------------------------------------------
SFR_AN
  Relative segment, address: DATA 000000A7 - 000000A7 (0x1 bytes), align: 0
  Segment part 2. ROOT.       Intra module refs:   macMcuOverflowSetCompare (mac_mcu)
                                                   macMcuOverflowSetPeriod (mac_mcu)
                                                   macMcuTimer2Isr (mac_mcu)
           ENTRY                   ADDRESS         REF BY
           =====                   =======         ======
           T2IRQM                  000000A7 
    -------------------------------------------------------------------------
XDATA_Z
  Relative segment, address: XDATA 000005A5 - 000005A8 (0x4 bytes), align: 0
  Segment part 9.             Intra module refs:   macBackoffTimerCapture
                                                   macBackoffTimerCount
                                                   macBackoffTimerSetRollover
                                                   macBackoffTimerSetTrigger
                                                   macGetBackOffTimerRollover
           LOCAL                   ADDRESS         
           =====                   =======         
           backoffTimerRollover    000005A5 
    -------------------------------------------------------------------------
XDATA_Z
  Relative segment, address: XDATA 000005A9 - 000005AC (0x4 bytes), align: 0
  Segment part 10.            Intra module refs:   macBackoffTimerSetTrigger
           LOCAL                   ADDRESS         
           =====                   =======         
           backoffTimerTrigger     000005A9 
    -------------------------------------------------------------------------
<BANKED_CODE,BANK_RELAYS..> 1 (was BANKED_CODE)
  Relative segment, address: CODE 0000312C - 0000312E (0x3 bytes), align: 0
  Segment part 19.            Intra module refs:   macGetBackOffTimerRollover
           LOCAL                   ADDRESS         
           =====                   =======         
           ?Subroutine0            0000312C 
    -------------------------------------------------------------------------
<BANKED_CODE,BANK_RELAYS..> 1 (was BANKED_CODE)
  Relative segment, address: CODE 0000312F - 00003135 (0x7 bytes), align: 0
  Segment part 20.            Intra module refs:   ?Subroutine0
                                                   macBackoffTimerCompareIsr
                                                   macBackoffTimerPeriodIsr
    -------------------------------------------------------------------------
<BANKED_CODE,BANK_RELAYS..> 1 (was BANKED_CODE)
  Relative segment, address: CODE 00003136 - 00003168 (0x33 bytes), align: 0
  Segment part 21.            Intra module refs:   macBackoffTimerSetRollover::?relay
           ENTRY                   ADDRESS         REF BY
           =====                   =======         ======
           macBackoffTimerSetRollover
                                   00003136 
               calls direct
               XSTACK = 00000000 ( 00000010 )
    -------------------------------------------------------------------------
<BANKED_CODE,BANK_RELAYS..> 1 (was BANKED_CODE)
  Relative segment, address: CODE 00003169 - 00003194 (0x2c bytes), align: 0
  Segment part 25.            Intra module refs:   macBackoffTimerCount::?relay
           ENTRY                   ADDRESS         REF BY
           =====                   =======         ======
           macBackoffTimerCount    00003169 
               calls direct
               XSTACK = 00000000 ( 0000000C )
    -------------------------------------------------------------------------
<BANKED_CODE,BANK_RELAYS..> 1 (was BANKED_CODE)
  Relative segment, address: CODE 00003195 - 00003199 (0x5 bytes), align: 0
  Segment part 27.            Intra module refs:   macBackoffTimerCapture
                                                   macBackoffTimerCount
           LOCAL                   ADDRESS         
           =====                   =======         
           ?Subroutine2            00003195 
    -------------------------------------------------------------------------
<BANKED_CODE,BANK_RELAYS..> 1 (was BANKED_CODE)
  Relative segment, address: CODE 0000319A - 000031C7 (0x2e bytes), align: 0
  Segment part 28.            Intra module refs:   macBackoffTimerCapture::?relay
           ENTRY                   ADDRESS         REF BY
           =====                   =======         ======
           macBackoffTimerCapture
                                   0000319A 
               calls direct
               XSTACK = 00000000 ( 0000000C )
    -------------------------------------------------------------------------
<BANKED_CODE,BANK_RELAYS..> 1 (was BANKED_CODE)
  Relative segment, address: CODE 000031C8 - 00003217 (0x50 bytes), align: 0
  Segment part 32.            Intra module refs:   macBackoffTimerSetTrigger::?relay
           ENTRY                   ADDRESS         REF BY
           =====                   =======         ======
           macBackoffTimerSetTrigger
                                   000031C8 
               calls direct, is recursive
               XSTACK = 00000000 ( 00000010 )
    -------------------------------------------------------------------------
<BANKED_CODE,BANK_RELAYS..> 1 (was BANKED_CODE)
  Relative segment, address: CODE 00003218 - 0000321F (0x8 bytes), align: 0
  Segment part 34.            Intra module refs:   macBackoffTimerSetRollover
                                                   macBackoffTimerSetTrigger
           LOCAL                   ADDRESS         
           =====                   =======         
           ?Subroutine3            00003218 
    -------------------------------------------------------------------------
<BANKED_CODE,BANK_RELAYS..> 1 (was BANKED_CODE)
  Relative segment, address: CODE 00003220 - 00003224 (0x5 bytes), align: 0
  Segment part 35.            Intra module refs:   macBackoffTimerSetRollover
           LOCAL                   ADDRESS         
           =====                   =======         
           ?Subroutine1            00003220 
    -------------------------------------------------------------------------
<BANKED_CODE,BANK_RELAYS..> 1 (was BANKED_CODE)
  Relative segment, address: CODE 00003225 - 00003229 (0x5 bytes), align: 0
  Segment part 36.            Intra module refs:   ?Subroutine1
                                                   macBackoffTimerSetTrigger
    -------------------------------------------------------------------------
<BANKED_CODE,BANK_RELAYS..> 1 (was BANKED_CODE)
  Relative segment, address: CODE 0000322A - 0000322C (0x3 bytes), align: 0
  Segment part 37.            Intra module refs:   macBackoffTimerCancelTrigger::?relay
           ENTRY                   ADDRESS         REF BY
           =====                   =======         ======
           macBackoffTimerCancelTrigger
                                   0000322A 
    -------------------------------------------------------------------------
<BANKED_CODE,BANK_RELAYS..> 1 (was BANKED_CODE)
  Relative segment, address: CODE 0000322D - 00003238 (0xc bytes), align: 0
  Segment part 41.            Intra module refs:   ?Subroutine3
           LOCAL                   ADDRESS         
           =====                   =======         
           ?Subroutine4            0000322D 
    -------------------------------------------------------------------------
<BANKED_CODE,BANK_RELAYS..> 1 (was BANKED_CODE)
  Relative segment, address: CODE 00003239 - 00003242 (0xa bytes), align: 0
  Segment part 42.            Intra module refs:   macBackoffTimerCompareIsr::?relay
           ENTRY                   ADDRESS         REF BY
           =====                   =======         ======
           macBackoffTimerCompareIsr
                                   00003239 
               calls direct
               ISTACK = 00000000 ( 00000002 )
    -------------------------------------------------------------------------
<BANKED_CODE,BANK_RELAYS..> 1 (was BANKED_CODE)
  Relative segment, address: CODE 00003243 - 0000324F (0xd bytes), align: 0
  Segment part 44.            Intra module refs:   macBackoffTimerPeriodIsr::?relay
           ENTRY                   ADDRESS         REF BY
           =====                   =======         ======
           macBackoffTimerPeriodIsr
                                   00003243 
               calls direct
               ISTACK = 00000000 ( 00000002 )
    -------------------------------------------------------------------------
<BANKED_CODE,BANK_RELAYS..> 1 (was BANKED_CODE)
  Relative segment, address: CODE 00003250 - 00003259 (0xa bytes), align: 0
  Segment part 46.            Intra module refs:   macGetBackOffTimerRollover::?relay
           ENTRY                   ADDRESS         REF BY
           =====                   =======         ======
           macGetBackOffTimerRollover
                                   00003250 
               ISTACK = 00000000 ( 00000002 )
    -------------------------------------------------------------------------
<BANKED_CODE,BANK_RELAYS..> 1 (was BANK_RELAYS)
  Relative segment, address: CODE 000006EA - 000006EF (0x6 bytes), align: 0
  Segment part 22.
           ENTRY                   ADDRESS         REF BY
           =====                   =======         ======
           macBackoffTimerSetRollover::?relay
                                   000006EA        macBackoffTimerRolloverCallback (mac_beacon)
    -------------------------------------------------------------------------
<BANKED_CODE,BANK_RELAYS..> 1 (was BANK_RELAYS)
  Relative segment, address: CODE 000006F0 - 000006F5 (0x6 bytes), align: 0
  Segment part 26.
           ENTRY                   ADDRESS         REF BY
           =====                   =======         ======
           macBackoffTimerCount::?relay
                                   000006F0        Segment part 798 (mac_beacon)
    -------------------------------------------------------------------------
<BANKED_CODE,BANK_RELAYS..> 1 (was BANK_RELAYS)
  Relative segment, address: CODE 000006F6 - 000006FB (0x6 bytes), align: 0
  Segment part 29.
           ENTRY                   ADDRESS         REF BY
           =====                   =======         ======
           macBackoffTimerCapture::?relay
                                   000006F6        macTxTimestampCallback (mac_tx)
    -------------------------------------------------------------------------
<BANKED_CODE,BANK_RELAYS..> 1 (was BANK_RELAYS)
  Relative segment, address: CODE 000006FC - 00000701 (0x6 bytes), align: 0
  Segment part 33.
           ENTRY                   ADDRESS         REF BY
           =====                   =======         ======
           macBackoffTimerSetTrigger::?relay
                                   000006FC        macTimerUpdateBackoffTimer (mac_beacon)
    -------------------------------------------------------------------------
<BANKED_CODE,BANK_RELAYS..> 1 (was BANK_RELAYS)
  Relative segment, address: CODE 00000702 - 00000707 (0x6 bytes), align: 0
  Segment part 38.
           ENTRY                   ADDRESS         REF BY
           =====                   =======         ======
           macBackoffTimerCancelTrigger::?relay
                                   00000702        macTimerUpdateBackoffTimer (mac_beacon)
    -------------------------------------------------------------------------
<BANKED_CODE,BANK_RELAYS..> 1 (was BANK_RELAYS)
  Relative segment, address: CODE 00000708 - 0000070D (0x6 bytes), align: 0
  Segment part 43.
           ENTRY                   ADDRESS         REF BY
           =====                   =======         ======
           macBackoffTimerCompareIsr::?relay
                                   00000708        macMcuTimer2Isr (mac_mcu)
    -------------------------------------------------------------------------
<BANKED_CODE,BANK_RELAYS..> 1 (was BANK_RELAYS)
  Relative segment, address: CODE 0000070E - 00000713 (0x6 bytes), align: 0
  Segment part 45.
           ENTRY                   ADDRESS         REF BY
           =====                   =======         ======
           macBackoffTimerPeriodIsr::?relay
                                   0000070E        macMcuTimer2Isr (mac_mcu)
    -------------------------------------------------------------------------
<BANKED_CODE,BANK_RELAYS..> 1 (was BANK_RELAYS)
  Relative segment, address: CODE 00000714 - 00000719 (0x6 bytes), align: 0
  Segment part 47.
           ENTRY                   ADDRESS         REF BY
           =====                   =======         ======
           macGetBackOffTimerRollover::?relay
                                   00000714        ?Subroutine8 (mac_mcu)

    *************************************************************************

  FILE NAME : C:\ZStack-CC2530-2.5.1a\Projects\zstack\Samples\Òº¾§ÏÔÊ¾Ä£×é¿ØÖÆÊµ¼ù\CC2530DB\CoordinatorEB\Obj\mac_cfg.r51
  PROGRAM MODULE, NAME : mac_cfg

  SEGMENTS IN THE MODULE
  ======================
<XDATA_ROM_C> 1 (was XDATA_ROM_C)
  Relative segment, address: CONST 00008000 - 00008004 (0x5 bytes), align: 0
  Segment part 6.
           ENTRY                   ADDRESS         REF BY
           =====                   =======         ======
           macCfg                  00008000        macDataRxMemAlloc (mac_beacon)
    -------------------------------------------------------------------------
<XDATA_ROM_C_FLASH> 1 (was XDATA_ROM_C_FLASH)
  Relative segment, address: CODE 00018000 - 00018004 (0x5 bytes), align: 0
  Segment part 7.             Intra module refs:   macCfg

    *************************************************************************

  FILE NAME : C:\ZStack-CC2530-2.5.1a\Projects\zstack\Samples\Òº¾§ÏÔÊ¾Ä£×é¿ØÖÆÊµ¼ù\CC2530DB\CoordinatorEB\Obj\mac_csp_tx.r51
  PROGRAM MODULE, NAME : mac_csp_tx

  SEGMENTS IN THE MODULE
  ======================
SFR_AN
  Relative segment, address: DATA 00000091 - 00000091 (0x1 bytes), align: 0
  Segment part 1. ROOT.       Intra module refs:   cspPrepForTxProgram
                                                   macCspTxRequestAckTimeoutCallback
                                                   macMcuRfIsr (mac_mcu)
                                                   rxStartIsr (mac_rx)
           ENTRY                   ADDRESS         REF BY
           =====                   =======         ======
           RFIRQF1                 00000091 
    -------------------------------------------------------------------------
SFR_AN
  Relative segment, address: DATA 0000009B - 0000009B (0x1 bytes), align: 0
  Segment part 2. ROOT.       Intra module refs:   cspPrepForTxProgram
                                                   macCspTxRequestAckTimeoutCallback
                                                   macMcuRfIsr (mac_mcu)
                                                   macRxOff (mac_rx_onoff)
                                                   rxHaltCleanupFinalStep (mac_rx)
                                                   rxStartIsr (mac_rx)
           ENTRY                   ADDRESS         REF BY
           =====                   =======         ======
           S1CON                   0000009B 
    -------------------------------------------------------------------------
SFR_AN
  Relative segment, address: DATA 0000009C - 0000009C (0x1 bytes), align: 0
  Segment part 3. ROOT.       Intra module refs:   cspPrepForTxProgram
           ENTRY                   ADDRESS         REF BY
           =====                   =======         ======
           T2CSPCFG                0000009C 
    -------------------------------------------------------------------------
SFR_AN
  Relative segment, address: DATA 000000A2 - 000000A2 (0x1 bytes), align: 0
  Segment part 5. ROOT.       Intra module refs:   cspReadCountSymbols
                                                   macCspTxGoCsma
                                                   macCspTxGoSlotted
                                                   macCspTxRequestAckTimeoutCallback
                                                   macMcuOverflowCount (mac_mcu)
                                                   macMcuTimerCapture (mac_mcu)
           ENTRY                   ADDRESS         REF BY
           =====                   =======         ======
           T2M0                    000000A2 
    -------------------------------------------------------------------------
SFR_AN
  Relative segment, address: DATA 000000A3 - 000000A3 (0x1 bytes), align: 0
  Segment part 6. ROOT.       Intra module refs:   cspReadCountSymbols
                                                   macCspTxGoCsma
                                                   macCspTxRequestAckTimeoutCallback
                                                   macMcuTimerCapture (mac_mcu)
           ENTRY                   ADDRESS         REF BY
           =====                   =======         ======
           T2M1                    000000A3 
    -------------------------------------------------------------------------
SFR_AN
  Relative segment, address: DATA 000000A4 - 000000A4 (0x1 bytes), align: 0
  Segment part 7. ROOT.       Intra module refs:   macCspTxGoSlotted
                                                   macMcuOverflowCapture (mac_mcu)
                                                   macMcuOverflowCount (mac_mcu)
                                                   macMcuOverflowSetCompare (mac_mcu)
                                                   macMcuOverflowSetPeriod (mac_mcu)
           ENTRY                   ADDRESS         REF BY
           =====                   =======         ======
           T2MOVF0                 000000A4 
    -------------------------------------------------------------------------
SFR_AN
  Relative segment, address: DATA 000000C3 - 000000C3 (0x1 bytes), align: 0
  Segment part 9. ROOT.       Intra module refs:   cspReadCountSymbols
                                                   macCspTxGoCsma
                                                   macCspTxGoSlotted
                                                   macCspTxRequestAckTimeoutCallback
                                                   macMcuOverflowCapture (mac_mcu)
                                                   macMcuOverflowCount (mac_mcu)
                                                   macMcuOverflowSetCompare (mac_mcu)
                                                   macMcuOverflowSetPeriod (mac_mcu)
                                                   macMcuTimerCapture (mac_mcu)
           ENTRY                   ADDRESS         REF BY
           =====                   =======         ======
           T2MSEL                  000000C3 
    -------------------------------------------------------------------------
SFR_AN
  Relative segment, address: DATA 000000E1 - 000000E1 (0x1 bytes), align: 0
  Segment part 10. ROOT.      Intra module refs:   cspPrepForTxProgram
                                                   macCspTxCancelAckTimeoutCallback
                                                   macCspTxGoCsma
                                                   macCspTxGoSlotted
                                                   macCspTxPrepCsmaSlotted
                                                   macCspTxPrepCsmaUnslotted
                                                   macCspTxPrepSlotted
                                                   macCspTxRequestAckTimeoutCallback
                                                   macRxHardDisable (mac_rx_onoff)
                                                   macRxOff (mac_rx_onoff)
                                                   macRxOn (mac_rx_onoff)
                                                   macTxFrame (mac_tx)
                                                   rxDone (mac_rx)
                                                   rxHaltCleanupFinalStep (mac_rx)
                                                   rxStartIsr (mac_rx)
           ENTRY                   ADDRESS         REF BY
           =====                   =======         ======
           RFST                    000000E1 
    -------------------------------------------------------------------------
<BANKED_CODE,BANK_RELAYS..> 1 (was BANKED_CODE)
  Relative segment, address: CODE 000025D4 - 000025DD (0xa bytes), align: 0
  Segment part 18.            Intra module refs:   macCspTxCancelAckTimeoutCallback
           LOCAL                   ADDRESS         
           =====                   =======         
           ?Subroutine1            000025D4 
    -------------------------------------------------------------------------
<BANKED_CODE,BANK_RELAYS..> 1 (was BANKED_CODE)
  Relative segment, address: CODE 000025DE - 00002603 (0x26 bytes), align: 0
  Segment part 19.            Intra module refs:   cspReadCountSymbols::?relay
           LOCAL                   ADDRESS         
           =====                   =======         
           cspReadCountSymbols     000025DE 
               XSTACK = 0000000B ( 00000000 )
               ISTACK = 00000000 ( 00000002 )
    -------------------------------------------------------------------------
<BANKED_CODE,BANK_RELAYS..> 1 (was BANKED_CODE)
  Relative segment, address: CODE 00002604 - 00002640 (0x3d bytes), align: 0
  Segment part 21.            Intra module refs:   cspPrepForTxProgram::?relay
           LOCAL                   ADDRESS         
           =====                   =======         
           cspPrepForTxProgram     00002604 
               calls direct
               ISTACK = 00000000 ( 00000002 )
    -------------------------------------------------------------------------
<BANKED_CODE,BANK_RELAYS..> 1 (was BANKED_CODE)
  Relative segment, address: CODE 00002641 - 0000264F (0xf bytes), align: 0
  Segment part 23.            Intra module refs:   macCspTxPrepCsmaUnslotted::?relay
           ENTRY                   ADDRESS         REF BY
           =====                   =======         ======
           macCspTxPrepCsmaUnslotted
                                   00002641 
               calls direct
               ISTACK = 00000000 ( 00000002 )
    -------------------------------------------------------------------------
<BANKED_CODE,BANK_RELAYS..> 1 (was BANKED_CODE)
  Relative segment, address: CODE 00002650 - 00002667 (0x18 bytes), align: 0
  Segment part 25.            Intra module refs:   macCspTxPrepCsmaSlotted::?relay
           ENTRY                   ADDRESS         REF BY
           =====                   =======         ======
           macCspTxPrepCsmaSlotted
                                   00002650 
               calls direct
               ISTACK = 00000000 ( 00000002 )
    -------------------------------------------------------------------------
<BANKED_CODE,BANK_RELAYS..> 1 (was BANKED_CODE)
  Relative segment, address: CODE 00002668 - 0000266E (0x7 bytes), align: 0
  Segment part 27.            Intra module refs:   macCspTxPrepCsmaSlotted
                                                   macCspTxPrepCsmaUnslotted
                                                   macCspTxPrepSlotted
           LOCAL                   ADDRESS         
           =====                   =======         
           ?Subroutine2            00002668 
    -------------------------------------------------------------------------
<BANKED_CODE,BANK_RELAYS..> 1 (was BANKED_CODE)
  Relative segment, address: CODE 0000266F - 000026B4 (0x46 bytes), align: 0
  Segment part 28.            Intra module refs:   macCspTxGoCsma::?relay
           ENTRY                   ADDRESS         REF BY
           =====                   =======         ======
           macCspTxGoCsma          0000266F 
               calls direct
               ISTACK = 00000000 ( 00000002 )
    -------------------------------------------------------------------------
<BANKED_CODE,BANK_RELAYS..> 1 (was BANKED_CODE)
  Relative segment, address: CODE 000026B5 - 000026BA (0x6 bytes), align: 0
  Segment part 30.            Intra module refs:   macCspTxPrepCsmaSlotted
                                                   macCspTxPrepCsmaUnslotted
           LOCAL                   ADDRESS         
           =====                   =======         
           ?Subroutine0            000026B5 
    -------------------------------------------------------------------------
<BANKED_CODE,BANK_RELAYS..> 1 (was BANKED_CODE)
  Relative segment, address: CODE 000026BB - 000026CF (0x15 bytes), align: 0
  Segment part 31.            Intra module refs:   ?Subroutine0
                                                   macCspTxPrepSlotted
    -------------------------------------------------------------------------
<BANKED_CODE,BANK_RELAYS..> 1 (was BANKED_CODE)
  Relative segment, address: CODE 000026D0 - 000026D6 (0x7 bytes), align: 0
  Segment part 32.            Intra module refs:   ?Subroutine1
                                                   Segment part 31
                                                   cspPrepForTxProgram
                                                   macCspForceTxDoneIfPending
                                                   macCspTxGoCsma
                                                   macCspTxIntIsr
                                                   macCspTxStopIsr
    -------------------------------------------------------------------------
<BANKED_CODE,BANK_RELAYS..> 1 (was BANKED_CODE)
  Relative segment, address: CODE 000026D7 - 000026DF (0x9 bytes), align: 0
  Segment part 33.            Intra module refs:   macCspTxPrepSlotted::?relay
           ENTRY                   ADDRESS         REF BY
           =====                   =======         ======
           macCspTxPrepSlotted     000026D7 
               calls direct
               ISTACK = 00000000 ( 00000002 )
    -------------------------------------------------------------------------
<BANKED_CODE,BANK_RELAYS..> 1 (was BANKED_CODE)
  Relative segment, address: CODE 000026E0 - 00002732 (0x53 bytes), align: 0
  Segment part 35.            Intra module refs:   macCspTxGoSlotted::?relay
           ENTRY                   ADDRESS         REF BY
           =====                   =======         ======
           macCspTxGoSlotted       000026E0 
               calls direct, is recursive
               XSTACK = 00000000 ( 00000009 )
    -------------------------------------------------------------------------
<BANKED_CODE,BANK_RELAYS..> 1 (was BANKED_CODE)
  Relative segment, address: CODE 00002733 - 0000273E (0xc bytes), align: 0
  Segment part 37.            Intra module refs:   macCspTxGoCsma
                                                   macCspTxGoSlotted
           LOCAL                   ADDRESS         
           =====                   =======         
           ?Subroutine3            00002733 
    -------------------------------------------------------------------------
<BANKED_CODE,BANK_RELAYS..> 1 (was BANKED_CODE)
  Relative segment, address: CODE 0000273F - 00002762 (0x24 bytes), align: 0
  Segment part 38.            Intra module refs:   macCspForceTxDoneIfPending::?relay
           ENTRY                   ADDRESS         REF BY
           =====                   =======         ======
           macCspForceTxDoneIfPending
                                   0000273F 
               calls direct
               ISTACK = 00000000 ( 00000002 )
    -------------------------------------------------------------------------
<BANKED_CODE,BANK_RELAYS..> 1 (was BANKED_CODE)
  Relative segment, address: CODE 00002763 - 00002821 (0xbf bytes), align: 0
  Segment part 40.            Intra module refs:   macCspTxRequestAckTimeoutCallback::?relay
           ENTRY                   ADDRESS         REF BY
           =====                   =======         ======
           macCspTxRequestAckTimeoutCallback
                                   00002763 
               calls direct
               XSTACK = 00000000 ( 0000000B )
    -------------------------------------------------------------------------
<BANKED_CODE,BANK_RELAYS..> 1 (was BANKED_CODE)
  Relative segment, address: CODE 00002822 - 0000282E (0xd bytes), align: 0
  Segment part 42.            Intra module refs:   macCspTxCancelAckTimeoutCallback::?relay
           ENTRY                   ADDRESS         REF BY
           =====                   =======         ======
           macCspTxCancelAckTimeoutCallback
                                   00002822 
               ISTACK = 00000000 ( 00000002 )
    -------------------------------------------------------------------------
<BANKED_CODE,BANK_RELAYS..> 1 (was BANKED_CODE)
  Relative segment, address: CODE 0000282F - 0000283F (0x11 bytes), align: 0
  Segment part 44.            Intra module refs:   macCspTxIntIsr::?relay
           ENTRY                   ADDRESS         REF BY
           =====                   =======         ======
           macCspTxIntIsr          0000282F 
               calls direct
               ISTACK = 00000000 ( 00000002 )
    -------------------------------------------------------------------------
<BANKED_CODE,BANK_RELAYS..> 1 (was BANKED_CODE)
  Relative segment, address: CODE 00002840 - 0000286D (0x2e bytes), align: 0
  Segment part 46.            Intra module refs:   macCspTxStopIsr::?relay
           ENTRY                   ADDRESS         REF BY
           =====                   =======         ======
           macCspTxStopIsr         00002840 
               calls direct
               ISTACK = 00000000 ( 00000002 )
    -------------------------------------------------------------------------
<BANKED_CODE,BANK_RELAYS..> 1 (was BANK_RELAYS)
  Relative segment, address: CODE 0000071A - 0000071F (0x6 bytes), align: 0
  Segment part 20.            Intra module refs:   macCspTxRequestAckTimeoutCallback
           LOCAL                   ADDRESS         
           =====                   =======         
           cspReadCountSymbols::?relay
                                   0000071A 
    -------------------------------------------------------------------------
<BANKED_CODE,BANK_RELAYS..> 1 (was BANK_RELAYS)
  Relative segment, address: CODE 00000720 - 00000725 (0x6 bytes), align: 0
  Segment part 22.            Intra module refs:   ?Subroutine2
           LOCAL                   ADDRESS         
           =====                   =======         
           cspPrepForTxProgram::?relay
                                   00000720 
    -------------------------------------------------------------------------
<BANKED_CODE,BANK_RELAYS..> 1 (was BANK_RELAYS)
  Relative segment, address: CODE 00000726 - 0000072B (0x6 bytes), align: 0
  Segment part 24.
           ENTRY                   ADDRESS         REF BY
           =====                   =======         ======
           macCspTxPrepCsmaUnslotted::?relay
                                   00000726        txCsmaPrep (mac_tx)
    -------------------------------------------------------------------------
<BANKED_CODE,BANK_RELAYS..> 1 (was BANK_RELAYS)
  Relative segment, address: CODE 0000072C - 00000731 (0x6 bytes), align: 0
  Segment part 26.
           ENTRY                   ADDRESS         REF BY
           =====                   =======         ======
           macCspTxPrepCsmaSlotted::?relay
                                   0000072C        txCsmaPrep (mac_tx)
    -------------------------------------------------------------------------
<BANKED_CODE,BANK_RELAYS..> 1 (was BANK_RELAYS)
  Relative segment, address: CODE 00000732 - 00000737 (0x6 bytes), align: 0
  Segment part 29.
           ENTRY                   ADDRESS         REF BY
           =====                   =======         ======
           macCspTxGoCsma::?relay
                                   00000732        txCsmaGo (mac_tx)
    -------------------------------------------------------------------------
<BANKED_CODE,BANK_RELAYS..> 1 (was BANK_RELAYS)
  Relative segment, address: CODE 00000738 - 0000073D (0x6 bytes), align: 0
  Segment part 34.
           ENTRY                   ADDRESS         REF BY
           =====                   =======         ======
           macCspTxPrepSlotted::?relay
                                   00000738        macTxFrame (mac_tx)
    -------------------------------------------------------------------------
<BANKED_CODE,BANK_RELAYS..> 1 (was BANK_RELAYS)
  Relative segment, address: CODE 0000073E - 00000743 (0x6 bytes), align: 0
  Segment part 36.
           ENTRY                   ADDRESS         REF BY
           =====                   =======         ======
           macCspTxGoSlotted::?relay
                                   0000073E        txGo (mac_tx)
    -------------------------------------------------------------------------
<BANKED_CODE,BANK_RELAYS..> 1 (was BANK_RELAYS)
  Relative segment, address: CODE 00000744 - 00000749 (0x6 bytes), align: 0
  Segment part 39.
           ENTRY                   ADDRESS         REF BY
           =====                   =======         ======
           macCspForceTxDoneIfPending::?relay
                                   00000744        rxStartIsr (mac_rx)
    -------------------------------------------------------------------------
<BANKED_CODE,BANK_RELAYS..> 1 (was BANK_RELAYS)
  Relative segment, address: CODE 0000074A - 0000074F (0x6 bytes), align: 0
  Segment part 41.
           ENTRY                   ADDRESS         REF BY
           =====                   =======         ======
           macCspTxRequestAckTimeoutCallback::?relay
                                   0000074A        macTxDoneCallback (mac_tx)
    -------------------------------------------------------------------------
<BANKED_CODE,BANK_RELAYS..> 1 (was BANK_RELAYS)
  Relative segment, address: CODE 00000750 - 00000755 (0x6 bytes), align: 0
  Segment part 43.
           ENTRY                   ADDRESS         REF BY
           =====                   =======         ======
           macCspTxCancelAckTimeoutCallback::?relay
                                   00000750        macTxAckNotReceivedCallback (mac_tx)
                                                   macTxAckReceivedCallback (mac_tx)
    -------------------------------------------------------------------------
<BANKED_CODE,BANK_RELAYS..> 1 (was BANK_RELAYS)
  Relative segment, address: CODE 00000756 - 0000075B (0x6 bytes), align: 0
  Segment part 45.            Intra module refs:   macCspForceTxDoneIfPending
           ENTRY                   ADDRESS         REF BY
           =====                   =======         ======
           macCspTxIntIsr::?relay
                                   00000756        macMcuRfIsr (mac_mcu)
    -------------------------------------------------------------------------
<BANKED_CODE,BANK_RELAYS..> 1 (was BANK_RELAYS)
  Relative segment, address: CODE 0000075C - 00000761 (0x6 bytes), align: 0
  Segment part 47.
           ENTRY                   ADDRESS         REF BY
           =====                   =======         ======
           macCspTxStopIsr::?relay
                                   0000075C        macMcuRfIsr (mac_mcu)

    *************************************************************************

  FILE NAME : C:\ZStack-CC2530-2.5.1a\Projects\zstack\Samples\Òº¾§ÏÔÊ¾Ä£×é¿ØÖÆÊµ¼ù\CC2530DB\CoordinatorEB\Obj\mac_low_level.r51
  PROGRAM MODULE, NAME : mac_low_level

  SEGMENTS IN THE MODULE
  ======================

    *************************************************************************

  FILE NAME : C:\ZStack-CC2530-2.5.1a\Projects\zstack\Samples\Òº¾§ÏÔÊ¾Ä£×é¿ØÖÆÊµ¼ù\CC2530DB\CoordinatorEB\Obj\mac_mcu.r51
  PROGRAM MODULE, NAME : mac_mcu

  SEGMENTS IN THE MODULE
  ======================
SFR_AN
  Relative segment, address: DATA 00000094 - 00000094 (0x1 bytes), align: 0
  Segment part 2. ROOT.
           ENTRY                   ADDRESS         REF BY
           =====                   =======         ======
           T2CTRL                  00000094 
    -------------------------------------------------------------------------
SFR_AN
  Relative segment, address: DATA 000000A5 - 000000A5 (0x1 bytes), align: 0
  Segment part 10. ROOT.      Intra module refs:   macMcuOverflowCapture
                                                   macMcuOverflowCount
                                                   macMcuOverflowSetCompare
                                                   macMcuOverflowSetPeriod
           ENTRY                   ADDRESS         REF BY
           =====                   =======         ======
           T2MOVF1                 000000A5 
    -------------------------------------------------------------------------
SFR_AN
  Relative segment, address: DATA 000000A6 - 000000A6 (0x1 bytes), align: 0
  Segment part 11. ROOT.      Intra module refs:   macMcuOverflowCapture
                                                   macMcuOverflowCount
                                                   macMcuOverflowSetCompare
                                                   macMcuOverflowSetPeriod
           ENTRY                   ADDRESS         REF BY
           =====                   =======         ======
           T2MOVF2                 000000A6 
    -------------------------------------------------------------------------
SFR_AN
  Relative segment, address: DATA 000000A9 - 000000A9 (0x1 bytes), align: 0
  Segment part 14. ROOT.
           ENTRY                   ADDRESS         REF BY
           =====                   =======         ======
           IP0                     000000A9 
    -------------------------------------------------------------------------
SFR_AN
  Relative segment, address: DATA 000000B9 - 000000B9 (0x1 bytes), align: 0
  Segment part 17. ROOT.
           ENTRY                   ADDRESS         REF BY
           =====                   =======         ======
           IP1                     000000B9 
    -------------------------------------------------------------------------
SFR_AN
  Relative segment, address: DATA 000000BC - 000000BC (0x1 bytes), align: 0
  Segment part 18. ROOT.
           ENTRY                   ADDRESS         REF BY
           =====                   =======         ======
           RNDL                    000000BC 
    -------------------------------------------------------------------------
SFR_AN
  Relative segment, address: DATA 000000BD - 000000BD (0x1 bytes), align: 0
  Segment part 19. ROOT.      Intra module refs:   macMcuRandomByte
           ENTRY                   ADDRESS         REF BY
           =====                   =======         ======
           RNDH                    000000BD 
    -------------------------------------------------------------------------
SFR_AN
  Relative segment, address: DATA 000000BF - 000000BF (0x1 bytes), align: 0
  Segment part 20. ROOT.      Intra module refs:   macMcuRfErrIsr
           ENTRY                   ADDRESS         REF BY
           =====                   =======         ======
           RFERRF                  000000BF 
    -------------------------------------------------------------------------
SFR_AN
  Relative segment, address: DATA 000000E9 - 000000E9 (0x1 bytes), align: 0
  Segment part 22. ROOT.      Intra module refs:   macMcuRfIsr
                                                   macRxOff (mac_rx_onoff)
                                                   rxHaltCleanupFinalStep (mac_rx)
           ENTRY                   ADDRESS         REF BY
           =====                   =======         ======
           RFIRQF0                 000000E9 
    -------------------------------------------------------------------------
XDATA_Z
  Relative segment, address: XDATA 000005AD - 000005AD (0x1 bytes), align: 0
  Segment part 31.
           ENTRY                   ADDRESS         REF BY
           =====                   =======         ======
           macChipVersion          000005AD        macCspTxGoCsma (mac_csp_tx)
                                                   macCspTxRequestAckTimeoutCallback (mac_csp_tx)
                                                   rxStartIsr (mac_rx)
    -------------------------------------------------------------------------
XDATA_Z
  Relative segment, address: XDATA 000005AE - 000005AE (0x1 bytes), align: 0
  Segment part 32.            Intra module refs:   macMcuTimer2Isr
           LOCAL                   ADDRESS         
           =====                   =======         
           maxRssi                 000005AE 
    -------------------------------------------------------------------------
XDATA_Z
  Relative segment, address: XDATA 000005AF - 000005AF (0x1 bytes), align: 0
  Segment part 34.            Intra module refs:   macMcuAccumulatedOverFlow
           LOCAL                   ADDRESS         
           =====                   =======         
           updateRolloverflag      000005AF 
    -------------------------------------------------------------------------
XDATA_Z
  Relative segment, address: XDATA 000005B0 - 000005B3 (0x4 bytes), align: 0
  Segment part 36.            Intra module refs:   ?Subroutine4
           LOCAL                   ADDRESS         
           =====                   =======         
           accumulatedOverflowCount
                                   000005B0 
    -------------------------------------------------------------------------
<BANKED_CODE,BANK_RELAYS..> 1 (was BANKED_CODE)
  Relative segment, address: CODE 00002A9F - 00002ACF (0x31 bytes), align: 0
  Segment part 42.            Intra module refs:   macMcuOverflowCapture
                                                   macMcuOverflowCount
           LOCAL                   ADDRESS         
           =====                   =======         
           ?Subroutine0            00002A9F 
    -------------------------------------------------------------------------
<BANKED_CODE,BANK_RELAYS..> 1 (was BANKED_CODE)
  Relative segment, address: CODE 00002AD0 - 00002AD6 (0x7 bytes), align: 0
  Segment part 43.            Intra module refs:   ?Subroutine0
    -------------------------------------------------------------------------
<BANKED_CODE,BANK_RELAYS..> 1 (was BANKED_CODE)
  Relative segment, address: CODE 00002AD7 - 00002AE3 (0xd bytes), align: 0
  Segment part 46.            Intra module refs:   macMcuRandomByte::?relay
           ENTRY                   ADDRESS         REF BY
           =====                   =======         ======
           macMcuRandomByte        00002AD7 
    -------------------------------------------------------------------------
<BANKED_CODE,BANK_RELAYS..> 1 (was BANKED_CODE)
  Relative segment, address: CODE 00002AE4 - 00002B02 (0x1f bytes), align: 0
  Segment part 52.            Intra module refs:   macMcuTimerCapture::?relay
           ENTRY                   ADDRESS         REF BY
           =====                   =======         ======
           macMcuTimerCapture      00002AE4 
               ISTACK = 00000000 ( 00000002 )
    -------------------------------------------------------------------------
<BANKED_CODE,BANK_RELAYS..> 1 (was BANKED_CODE)
  Relative segment, address: CODE 00002B03 - 00002B18 (0x16 bytes), align: 0
  Segment part 54.            Intra module refs:   macMcuOverflowCount::?relay
           ENTRY                   ADDRESS         REF BY
           =====                   =======         ======
           macMcuOverflowCount     00002B03 
               XSTACK = 00000010 ( 00000004 )
               ISTACK = 00000000 ( 00000003 )
    -------------------------------------------------------------------------
<BANKED_CODE,BANK_RELAYS..> 1 (was BANKED_CODE)
  Relative segment, address: CODE 00002B19 - 00002B2C (0x14 bytes), align: 0
  Segment part 56.            Intra module refs:   macMcuOverflowCapture::?relay
           ENTRY                   ADDRESS         REF BY
           =====                   =======         ======
           macMcuOverflowCapture   00002B19 
               XSTACK = 00000000 ( 00000004 )
               ISTACK = 00000000 ( 00000003 )
    -------------------------------------------------------------------------
<BANKED_CODE,BANK_RELAYS..> 1 (was BANKED_CODE)
  Relative segment, address: CODE 00002B2D - 00002B88 (0x5c bytes), align: 0
  Segment part 60.            Intra module refs:   macMcuOverflowSetCompare::?relay
           ENTRY                   ADDRESS         REF BY
           =====                   =======         ======
           macMcuOverflowSetCompare
                                   00002B2D 
               calls direct
               XSTACK = 00000000 ( 00000010 )
    -------------------------------------------------------------------------
<BANKED_CODE,BANK_RELAYS..> 1 (was BANKED_CODE)
  Relative segment, address: CODE 00002B89 - 00002B91 (0x9 bytes), align: 0
  Segment part 62.            Intra module refs:   macMcuOverflowSetCompare
                                                   macMcuOverflowSetPeriod
           LOCAL                   ADDRESS         
           =====                   =======         
           ?Subroutine7            00002B89 
    -------------------------------------------------------------------------
<BANKED_CODE,BANK_RELAYS..> 1 (was BANKED_CODE)
  Relative segment, address: CODE 00002B92 - 00002BF9 (0x68 bytes), align: 0
  Segment part 63.            Intra module refs:   macMcuOverflowSetPeriod::?relay
           ENTRY                   ADDRESS         REF BY
           =====                   =======         ======
           macMcuOverflowSetPeriod
                                   00002B92 
               calls direct
               XSTACK = 00000000 ( 00000010 )
    -------------------------------------------------------------------------
<BANKED_CODE,BANK_RELAYS..> 1 (was BANKED_CODE)
  Relative segment, address: CODE 00002BFA - 00002C07 (0xe bytes), align: 0
  Segment part 65.            Intra module refs:   macMcuOverflowSetCompare
                                                   macMcuOverflowSetPeriod
           LOCAL                   ADDRESS         
           =====                   =======         
           ?Subroutine3            00002BFA 
    -------------------------------------------------------------------------
<BANKED_CODE,BANK_RELAYS..> 1 (was BANKED_CODE)
  Relative segment, address: CODE 00002C08 - 00002C19 (0x12 bytes), align: 0
  Segment part 66.            Intra module refs:   ?Subroutine3
           LOCAL                   ADDRESS         
           =====                   =======         
           ?Subroutine9            00002C08 
    -------------------------------------------------------------------------
<BANKED_CODE,BANK_RELAYS..> 1 (was NEAR_CODE)
  Relative segment, address: CODE 0000009B - 000000F4 (0x5a bytes), align: 0
  Segment part 85.            Intra module refs:   macMcuTimer2Isr::??INTVEC 83
           ENTRY                   ADDRESS         REF BY
           =====                   =======         ======
           macMcuTimer2Isr         0000009B 
               interrupt function
               calls direct
               XSTACK = 00000000 ( 0000000E )
               ISTACK = 00000000 ( 00000001 )
    -------------------------------------------------------------------------
<BANKED_CODE,BANK_RELAYS..> 1 (was NEAR_CODE)
  Relative segment, address: CODE 000000F5 - 000000FE (0xa bytes), align: 0
  Segment part 86.            Intra module refs:   macMcuRfErrIsr
                                                   macMcuRfIsr
                                                   macMcuTimer2Isr
           LOCAL                   ADDRESS         
           =====                   =======         
           ?Subroutine2            000000F5 
    -------------------------------------------------------------------------
<BANKED_CODE,BANK_RELAYS..> 1 (was BANKED_CODE)
  Relative segment, address: CODE 00002C1A - 00002C27 (0xe bytes), align: 0
  Segment part 70.            Intra module refs:   ?Subroutine0
           LOCAL                   ADDRESS         
           =====                   =======         
           ?Subroutine5            00002C1A 
    -------------------------------------------------------------------------
<BANKED_CODE,BANK_RELAYS..> 1 (was BANKED_CODE)
  Relative segment, address: CODE 00002C28 - 00002C29 (0x2 bytes), align: 0
  Segment part 71.            Intra module refs:   macMcuOverflowSetCompare
                                                   macMcuOverflowSetPeriod
           LOCAL                   ADDRESS         
           =====                   =======         
           ?Subroutine1            00002C28 
    -------------------------------------------------------------------------
<BANKED_CODE,BANK_RELAYS..> 1 (was BANKED_CODE)
  Relative segment, address: CODE 00002C2A - 00002C2B (0x2 bytes), align: 0
  Segment part 72.            Intra module refs:   ?Subroutine1
    -------------------------------------------------------------------------
<BANKED_CODE,BANK_RELAYS..> 1 (was BANKED_CODE)
  Relative segment, address: CODE 00002C2C - 00002C30 (0x5 bytes), align: 0
  Segment part 73.            Intra module refs:   Segment part 72
    -------------------------------------------------------------------------
<BANKED_CODE,BANK_RELAYS..> 1 (was BANKED_CODE)
  Relative segment, address: CODE 00002C31 - 00002C35 (0x5 bytes), align: 0
  Segment part 74.            Intra module refs:   Segment part 73
                                                   macMcuAccumulatedOverFlow
    -------------------------------------------------------------------------
<BANKED_CODE,BANK_RELAYS..> 1 (was NEAR_CODE)
  Relative segment, address: CODE 000000FF - 00000169 (0x6b bytes), align: 0
  Segment part 87.            Intra module refs:   macMcuRfIsr::??INTVEC 131
           ENTRY                   ADDRESS         REF BY
           =====                   =======         ======
           macMcuRfIsr             000000FF 
               interrupt function
               calls direct
               XSTACK = 00000000 ( 0000000E )
               ISTACK = 00000000 ( 00000001 )
    -------------------------------------------------------------------------
<BANKED_CODE,BANK_RELAYS..> 1 (was NEAR_CODE)
  Relative segment, address: CODE 0000016A - 0000018C (0x23 bytes), align: 0
  Segment part 88.            Intra module refs:   macMcuRfErrIsr::??INTVEC 3
           ENTRY                   ADDRESS         REF BY
           =====                   =======         ======
           macMcuRfErrIsr          0000016A 
               interrupt function
               calls direct
               XSTACK = 00000000 ( 0000000E )
    -------------------------------------------------------------------------
<BANKED_CODE,BANK_RELAYS..> 1 (was BANKED_CODE)
  Relative segment, address: CODE 00002C36 - 00002C59 (0x24 bytes), align: 0
  Segment part 81.            Intra module refs:   macMcuAccumulatedOverFlow::?relay
           ENTRY                   ADDRESS         REF BY
           =====                   =======         ======
           macMcuAccumulatedOverFlow
                                   00002C36 
               calls direct
               XSTACK = 00000000 ( 0000000C )
    -------------------------------------------------------------------------
<BANKED_CODE,BANK_RELAYS..> 1 (was BANKED_CODE)
  Relative segment, address: CODE 00002C5A - 00002C62 (0x9 bytes), align: 0
  Segment part 83.            Intra module refs:   macMcuAccumulatedOverFlow
           LOCAL                   ADDRESS         
           =====                   =======         
           ?Subroutine4            00002C5A 
    -------------------------------------------------------------------------
<BANKED_CODE,BANK_RELAYS..> 1 (was BANKED_CODE)
  Relative segment, address: CODE 00002C63 - 00002C6E (0xc bytes), align: 0
  Segment part 84.            Intra module refs:   ?Subroutine4
           LOCAL                   ADDRESS         
           =====                   =======         
           ?Subroutine8            00002C63 
    -------------------------------------------------------------------------
INTVEC
  Common segment, address: CODE 00000000 - 00000005 (0x6 bytes), align: 0
  Segment part 23. ROOT.
           ENTRY                   ADDRESS         REF BY
           =====                   =======         ======
           macMcuRfErrIsr::??INTVEC 3
                                   00000003 
    -------------------------------------------------------------------------
INTVEC
  Common segment, address: CODE 00000000 - 00000055 (0x56 bytes), align: 0
  Segment part 24. ROOT.
           ENTRY                   ADDRESS         REF BY
           =====                   =======         ======
           macMcuTimer2Isr::??INTVEC 83
                                   00000053 
    -------------------------------------------------------------------------
INTVEC
  Common segment, address: CODE 00000000 - 00000085 (0x86 bytes), align: 0
  Segment part 25. ROOT.
           ENTRY                   ADDRESS         REF BY
           =====                   =======         ======
           macMcuRfIsr::??INTVEC 131
                                   00000083 
    -------------------------------------------------------------------------
<XDATA_ROM_C> 1 (was XDATA_ROM_C)
  Relative segment, address: CONST 00008015 - 00008018 (0x4 bytes), align: 0
  Segment part 38.            Intra module refs:   macMcuOverflowSetCompare
                                                   macMcuOverflowSetPeriod
           ENTRY                   ADDRESS         REF BY
           =====                   =======         ======
           __Constant_ff000000     00008015 
    -------------------------------------------------------------------------
<BANKED_CODE,BANK_RELAYS..> 1 (was BANK_RELAYS)
  Relative segment, address: CODE 00000762 - 00000767 (0x6 bytes), align: 0
  Segment part 47.
           ENTRY                   ADDRESS         REF BY
           =====                   =======         ======
           macMcuRandomByte::?relay
                                   00000762        macRadioRandomByte (mac_radio)
    -------------------------------------------------------------------------
<BANKED_CODE,BANK_RELAYS..> 1 (was BANK_RELAYS)
  Relative segment, address: CODE 00000768 - 0000076D (0x6 bytes), align: 0
  Segment part 53.
           ENTRY                   ADDRESS         REF BY
           =====                   =======         ======
           macMcuTimerCapture::?relay
                                   00000768        macTxTimestampCallback (mac_tx)
                                                   rxStartIsr (mac_rx)
    -------------------------------------------------------------------------
<BANKED_CODE,BANK_RELAYS..> 1 (was BANK_RELAYS)
  Relative segment, address: CODE 0000076E - 00000773 (0x6 bytes), align: 0
  Segment part 55.
           ENTRY                   ADDRESS         REF BY
           =====                   =======         ======
           macMcuOverflowCount::?relay
                                   0000076E        ?Subroutine4 (mac_backoff_timer)
                                                   macBackoffTimerCount (mac_backoff_timer)
    -------------------------------------------------------------------------
<BANKED_CODE,BANK_RELAYS..> 1 (was BANK_RELAYS)
  Relative segment, address: CODE 00000774 - 00000779 (0x6 bytes), align: 0
  Segment part 57.
           ENTRY                   ADDRESS         REF BY
           =====                   =======         ======
           macMcuOverflowCapture::?relay
                                   00000774        macBackoffTimerCapture (mac_backoff_timer)
                                                   rxStartIsr (mac_rx)
    -------------------------------------------------------------------------
<BANKED_CODE,BANK_RELAYS..> 1 (was BANK_RELAYS)
  Relative segment, address: CODE 0000077A - 0000077F (0x6 bytes), align: 0
  Segment part 61.
           ENTRY                   ADDRESS         REF BY
           =====                   =======         ======
           macMcuOverflowSetCompare::?relay
                                   0000077A        macBackoffTimerSetTrigger (mac_backoff_timer)
    -------------------------------------------------------------------------
<BANKED_CODE,BANK_RELAYS..> 1 (was BANK_RELAYS)
  Relative segment, address: CODE 00000780 - 00000785 (0x6 bytes), align: 0
  Segment part 64.
           ENTRY                   ADDRESS         REF BY
           =====                   =======         ======
           macMcuOverflowSetPeriod::?relay
                                   00000780        macBackoffTimerSetRollover (mac_backoff_timer)
    -------------------------------------------------------------------------
<BANKED_CODE,BANK_RELAYS..> 1 (was BANK_RELAYS)
  Relative segment, address: CODE 00000786 - 0000078B (0x6 bytes), align: 0
  Segment part 82.
           ENTRY                   ADDRESS         REF BY
           =====                   =======         ======
           macMcuAccumulatedOverFlow::?relay
                                   00000786        macBackoffTimerPeriodIsr (mac_backoff_timer)
    -------------------------------------------------------------------------
<XDATA_ROM_C_FLASH> 1 (was XDATA_ROM_C_FLASH)
  Relative segment, address: CODE 00018015 - 00018018 (0x4 bytes), align: 0
  Segment part 89.            Intra module refs:   __Constant_ff000000

    *************************************************************************

  FILE NAME : C:\ZStack-CC2530-2.5.1a\Projects\zstack\Samples\Òº¾§ÏÔÊ¾Ä£×é¿ØÖÆÊµ¼ù\CC2530DB\CoordinatorEB\Obj\mac_mem.r51
  PROGRAM MODULE, NAME : mac_mem

  SEGMENTS IN THE MODULE
  ======================
SFR_AN
  Relative segment, address: DATA 000000D9 - 000000D9 (0x1 bytes), align: 0
  Segment part 1. ROOT.       Intra module refs:   macMemReadRxFifo
                                                   macMemWriteTxFifo
           ENTRY                   ADDRESS         REF BY
           =====                   =======         ======
           RFD                     000000D9 
    -------------------------------------------------------------------------
<BANKED_CODE,BANK_RELAYS..> 1 (was BANKED_CODE)
  Relative segment, address: CODE 0000359E - 000035C0 (0x23 bytes), align: 0
  Segment part 14.            Intra module refs:   macMemWriteTxFifo::?relay
           ENTRY                   ADDRESS         REF BY
           =====                   =======         ======
           macMemWriteTxFifo       0000359E 
               calls direct
               XSTACK = 00000000 ( 00000009 )
    -------------------------------------------------------------------------
<BANKED_CODE,BANK_RELAYS..> 1 (was BANKED_CODE)
  Relative segment, address: CODE 000035C1 - 000035C5 (0x5 bytes), align: 0
  Segment part 16.            Intra module refs:   macMemReadRxFifo
                                                   macMemWriteTxFifo
           LOCAL                   ADDRESS         
           =====                   =======         
           ?Subroutine1            000035C1 
    -------------------------------------------------------------------------
<BANKED_CODE,BANK_RELAYS..> 1 (was BANKED_CODE)
  Relative segment, address: CODE 000035C6 - 000035EA (0x25 bytes), align: 0
  Segment part 17.            Intra module refs:   macMemReadRxFifo::?relay
           ENTRY                   ADDRESS         REF BY
           =====                   =======         ======
           macMemReadRxFifo        000035C6 
               calls direct
               XSTACK = 00000000 ( 00000009 )
               ISTACK = 00000000 ( 00000001 )
    -------------------------------------------------------------------------
<BANKED_CODE,BANK_RELAYS..> 1 (was BANK_RELAYS)
  Relative segment, address: CODE 0000078C - 00000791 (0x6 bytes), align: 0
  Segment part 15.
           ENTRY                   ADDRESS         REF BY
           =====                   =======         ======
           macMemWriteTxFifo::?relay
                                   0000078C        macTxFrame (mac_tx)
    -------------------------------------------------------------------------
<BANKED_CODE,BANK_RELAYS..> 1 (was BANK_RELAYS)
  Relative segment, address: CODE 00000792 - 00000797 (0x6 bytes), align: 0
  Segment part 18.
           ENTRY                   ADDRESS         REF BY
           =====                   =======         ======
           macMemReadRxFifo::?relay
                                   00000792        ?Subroutine13 (mac_rx)
                                                   rxFcsIsr (mac_rx)
                                                   rxPayloadIsr (mac_rx)
                                                   rxStartIsr (mac_rx)

    *************************************************************************

  FILE NAME : C:\ZStack-CC2530-2.5.1a\Projects\zstack\Samples\Òº¾§ÏÔÊ¾Ä£×é¿ØÖÆÊµ¼ù\CC2530DB\CoordinatorEB\Obj\mac_pib.r51
  PROGRAM MODULE, NAME : mac_pib

  SEGMENTS IN THE MODULE
  ======================
<BANKED_CODE,BANK_RELAYS..> 1 (was CODE_C)
  Relative segment, address: CODE 0000097F - 00000A0E (0x90 bytes), align: 0
  Segment part 8.             Intra module refs:   ?Subroutine0
           LOCAL                   ADDRESS         
           =====                   =======         
           macPibTbl               0000097F 
    -------------------------------------------------------------------------
XDATA_Z
  Relative segment, address: XDATA 000005B4 - 000005EF (0x3c bytes), align: 0
  Segment part 9.             Intra module refs:   MAC_MlmeGetReq
           ENTRY                   ADDRESS         REF BY
           =====                   =======         ======
           macPib                  000005B4        Segment part 611 (mac_beacon)
                                                   Segment part 647 (mac_beacon)
                                                   macCbackForEvent (mac_beacon)
                                                   macCommStatusInd (mac_beacon)
                                                   macCspTxRequestAckTimeoutCallback (mac_csp_tx)
                                                   macRxCompleteCallback (mac_beacon)
                                                   macTxChannelBusyCallback (mac_tx)
                                                   macTxFrame (mac_tx)
    -------------------------------------------------------------------------
<BANKED_CODE,BANK_RELAYS..> 1 (was BANKED_CODE)
  Relative segment, address: CODE 0000342C - 0000344C (0x21 bytes), align: 0
  Segment part 12.            Intra module refs:   macPibIndex::?relay
           LOCAL                   ADDRESS         
           =====                   =======         
           macPibIndex             0000342C 
               XSTACK = 0000000E ( 00000000 )
    -------------------------------------------------------------------------
<BANKED_CODE,BANK_RELAYS..> 1 (was BANKED_CODE)
  Relative segment, address: CODE 0000344D - 000034B1 (0x65 bytes), align: 0
  Segment part 14.            Intra module refs:   MAC_MlmeGetReq::?relay
           ENTRY                   ADDRESS         REF BY
           =====                   =======         ======
           MAC_MlmeGetReq          0000344D 
               calls direct
               XSTACK = 00000000 ( 00000010 )
    -------------------------------------------------------------------------
<BANKED_CODE,BANK_RELAYS..> 1 (was BANKED_CODE)
  Relative segment, address: CODE 000034B2 - 000034C0 (0xf bytes), align: 0
  Segment part 20.            Intra module refs:   MAC_MlmeGetReq
           LOCAL                   ADDRESS         
           =====                   =======         
           ?Subroutine0            000034B2 
    -------------------------------------------------------------------------
<BANKED_CODE,BANK_RELAYS..> 1 (was BANK_RELAYS)
  Relative segment, address: CODE 00000798 - 0000079D (0x6 bytes), align: 0
  Segment part 13.            Intra module refs:   MAC_MlmeGetReq
           LOCAL                   ADDRESS         
           =====                   =======         
           macPibIndex::?relay     00000798 
    -------------------------------------------------------------------------
<BANKED_CODE,BANK_RELAYS..> 1 (was BANK_RELAYS)
  Relative segment, address: CODE 0000079E - 000007A3 (0x6 bytes), align: 0
  Segment part 15.
           ENTRY                   ADDRESS         REF BY
           =====                   =======         ======
           MAC_MlmeGetReq::?relay
                                   0000079E        MAC_CbackEvent (zmac_cb)

    *************************************************************************

  FILE NAME : C:\ZStack-CC2530-2.5.1a\Projects\zstack\Samples\Òº¾§ÏÔÊ¾Ä£×é¿ØÖÆÊµ¼ù\CC2530DB\CoordinatorEB\Obj\mac_radio.r51
  PROGRAM MODULE, NAME : mac_radio

  SEGMENTS IN THE MODULE
  ======================
XDATA_Z
  Relative segment, address: XDATA 000005F0 - 000005F0 (0x1 bytes), align: 0
  Segment part 7.             Intra module refs:   macRadioUpdateTxPower
           ENTRY                   ADDRESS         REF BY
           =====                   =======         ======
           macPhyTxPower           000005F0 
    -------------------------------------------------------------------------
XDATA_Z
  Relative segment, address: XDATA 000005F1 - 000005F1 (0x1 bytes), align: 0
  Segment part 8.             Intra module refs:   macRadioUpdateChannel
           ENTRY                   ADDRESS         REF BY
           =====                   =======         ======
           macPhyChannel           000005F1 
    -------------------------------------------------------------------------
XDATA_Z
  Relative segment, address: XDATA 000005F2 - 000005F2 (0x1 bytes), align: 0
  Segment part 9.             Intra module refs:   macRadioSetChannel
                                                   macRadioUpdateChannel
           LOCAL                   ADDRESS         
           =====                   =======         
           reqChannel              000005F2 
    -------------------------------------------------------------------------
XDATA_Z
  Relative segment, address: XDATA 000005F3 - 000005F3 (0x1 bytes), align: 0
  Segment part 10.            Intra module refs:   macRadioSetTxPower
                                                   macRadioUpdateTxPower
           LOCAL                   ADDRESS         
           =====                   =======         
           reqTxPower              000005F3 
    -------------------------------------------------------------------------
<BANKED_CODE,BANK_RELAYS..> 1 (was BANKED_CODE)
  Relative segment, address: CODE 00002FAE - 00002FB6 (0x9 bytes), align: 0
  Segment part 15.            Intra module refs:   macRadioRandomByte::?relay
           ENTRY                   ADDRESS         REF BY
           =====                   =======         ======
           macRadioRandomByte      00002FAE 
               calls direct
               ISTACK = 00000000 ( 00000002 )
    -------------------------------------------------------------------------
<BANKED_CODE,BANK_RELAYS..> 1 (was BANKED_CODE)
  Relative segment, address: CODE 00002FB7 - 00002FBD (0x7 bytes), align: 0
  Segment part 19.            Intra module refs:   macRadioRandomByte
                                                   macRadioUpdateChannel
                                                   macRadioUpdateTxPower
    -------------------------------------------------------------------------
<BANKED_CODE,BANK_RELAYS..> 1 (was BANKED_CODE)
  Relative segment, address: CODE 00002FBE - 0000301F (0x62 bytes), align: 0
  Segment part 28.            Intra module refs:   macRadioSetTxPower::?relay
           ENTRY                   ADDRESS         REF BY
           =====                   =======         ======
           macRadioSetTxPower      00002FBE 
               calls direct
               XSTACK = 00000000 ( 00000009 )
    -------------------------------------------------------------------------
<BANKED_CODE,BANK_RELAYS..> 1 (was BANKED_CODE)
  Relative segment, address: CODE 00003020 - 00003058 (0x39 bytes), align: 0
  Segment part 30.            Intra module refs:   macRadioUpdateTxPower::?relay
           ENTRY                   ADDRESS         REF BY
           =====                   =======         ======
           macRadioUpdateTxPower   00003020 
               XSTACK = 00000009 ( 00000000 )
               ISTACK = 00000000 ( 00000002 )
    -------------------------------------------------------------------------
<BANKED_CODE,BANK_RELAYS..> 1 (was BANKED_CODE)
  Relative segment, address: CODE 00003059 - 00003087 (0x2f bytes), align: 0
  Segment part 32.            Intra module refs:   macRadioSetChannel::?relay
           ENTRY                   ADDRESS         REF BY
           =====                   =======         ======
           macRadioSetChannel      00003059 
               calls direct, is recursive
               XSTACK = 00000000 ( 00000009 )
    -------------------------------------------------------------------------
<BANKED_CODE,BANK_RELAYS..> 1 (was BANKED_CODE)
  Relative segment, address: CODE 00003088 - 000030D5 (0x4e bytes), align: 0
  Segment part 34.            Intra module refs:   macRadioUpdateChannel::?relay
           ENTRY                   ADDRESS         REF BY
           =====                   =======         ======
           macRadioUpdateChannel   00003088 
               calls direct, is recursive
               XSTACK = 00000009 ( 00000000 )
               ISTACK = 00000000 ( 00000002 )
    -------------------------------------------------------------------------
<BANKED_CODE,BANK_RELAYS..> 1 (was BANKED_CODE)
  Relative segment, address: CODE 000030D6 - 000030DA (0x5 bytes), align: 0
  Segment part 38.            Intra module refs:   macRadioComputeLQI
                                                   macRadioSetChannel
                                                   macRadioSetTxPower
           LOCAL                   ADDRESS         
           =====                   =======         
           ?Subroutine1            000030D6 
    -------------------------------------------------------------------------
<BANKED_CODE,BANK_RELAYS..> 1 (was BANKED_CODE)
  Relative segment, address: CODE 000030DB - 00003120 (0x46 bytes), align: 0
  Segment part 45.            Intra module refs:   radioComputeED::?relay
           LOCAL                   ADDRESS         
           =====                   =======         
           radioComputeED          000030DB 
               XSTACK = 00000009 ( 00000000 )
    -------------------------------------------------------------------------
<BANKED_CODE,BANK_RELAYS..> 1 (was BANKED_CODE)
  Relative segment, address: CODE 00003121 - 0000312B (0xb bytes), align: 0
  Segment part 47.            Intra module refs:   macRadioComputeLQI::?relay
           ENTRY                   ADDRESS         REF BY
           =====                   =======         ======
           macRadioComputeLQI      00003121 
               calls direct
               XSTACK = 00000000 ( 00000009 )
    -------------------------------------------------------------------------
<BANKED_CODE,BANK_RELAYS..> 1 (was BANK_RELAYS)
  Relative segment, address: CODE 000007A4 - 000007A9 (0x6 bytes), align: 0
  Segment part 16.
           ENTRY                   ADDRESS         REF BY
           =====                   =======         ======
           macRadioRandomByte::?relay
                                   000007A4        txCsmaPrep (mac_tx)
    -------------------------------------------------------------------------
<BANKED_CODE,BANK_RELAYS..> 1 (was BANK_RELAYS)
  Relative segment, address: CODE 00000972 - 00000977 (0x6 bytes), align: 0
  Segment part 29.
           ENTRY                   ADDRESS         REF BY
           =====                   =======         ======
           macRadioSetTxPower::?relay
                                   00000972        Segment part 647 (mac_beacon)
    -------------------------------------------------------------------------
<BANKED_CODE,BANK_RELAYS..> 1 (was BANK_RELAYS)
  Relative segment, address: CODE 000007B0 - 000007B5 (0x6 bytes), align: 0
  Segment part 31.            Intra module refs:   macRadioSetTxPower
           ENTRY                   ADDRESS         REF BY
           =====                   =======         ======
           macRadioUpdateTxPower::?relay
                                   000007B0        rxPostRxUpdates (mac_rx)
                                                   txComplete (mac_tx)
    -------------------------------------------------------------------------
<BANKED_CODE,BANK_RELAYS..> 1 (was BANK_RELAYS)
  Relative segment, address: CODE 000007B6 - 000007BB (0x6 bytes), align: 0
  Segment part 33.
           ENTRY                   ADDRESS         REF BY
           =====                   =======         ======
           macRadioSetChannel::?relay
                                   000007B6        Segment part 647 (mac_beacon)
    -------------------------------------------------------------------------
<BANKED_CODE,BANK_RELAYS..> 1 (was BANK_RELAYS)
  Relative segment, address: CODE 000007BC - 000007C1 (0x6 bytes), align: 0
  Segment part 35.            Intra module refs:   macRadioSetChannel
           ENTRY                   ADDRESS         REF BY
           =====                   =======         ======
           macRadioUpdateChannel::?relay
                                   000007BC        txComplete (mac_tx)
    -------------------------------------------------------------------------
<BANKED_CODE,BANK_RELAYS..> 1 (was BANK_RELAYS)
  Relative segment, address: CODE 000007C2 - 000007C7 (0x6 bytes), align: 0
  Segment part 46.            Intra module refs:   macRadioComputeLQI
           LOCAL                   ADDRESS         
           =====                   =======         
           radioComputeED::?relay
                                   000007C2 
    -------------------------------------------------------------------------
<BANKED_CODE,BANK_RELAYS..> 1 (was BANK_RELAYS)
  Relative segment, address: CODE 000007C8 - 000007CD (0x6 bytes), align: 0
  Segment part 48.
           ENTRY                   ADDRESS         REF BY
           =====                   =======         ======
           macRadioComputeLQI::?relay
                                   000007C8        rxFcsIsr (mac_rx)
                                                   rxStartIsr (mac_rx)

    *************************************************************************

  FILE NAME : C:\ZStack-CC2530-2.5.1a\Projects\zstack\Samples\Òº¾§ÏÔÊ¾Ä£×é¿ØÖÆÊµ¼ù\CC2530DB\CoordinatorEB\Obj\mac_radio_defs.r51
  PROGRAM MODULE, NAME : mac_radio_defs

  SEGMENTS IN THE MODULE
  ======================
<BANKED_CODE,BANK_RELAYS..> 1 (was CODE_C)
  Relative segment, address: CODE 00000A20 - 00000A2C (0xd bytes), align: 0
  Segment part 6.             Intra module refs:   macRadioDefsTxPwrTables
           ENTRY                   ADDRESS         REF BY
           =====                   =======         ======
           macRadioDefsTxPwrCC2591
                                   00000A20 
    -------------------------------------------------------------------------
<BANKED_CODE,BANK_RELAYS..> 1 (was CODE_C)
  Relative segment, address: CODE 00000A5D - 00000A5E (0x2 bytes), align: 0
  Segment part 7.
           ENTRY                   ADDRESS         REF BY
           =====                   =======         ======
           macRadioDefsTxPwrTables
                                   00000A5D        macRadioSetTxPower (mac_radio)
    -------------------------------------------------------------------------
<BANKED_CODE,BANK_RELAYS..> 1 (was CODE_C)
  Relative segment, address: CODE 00000A5B - 00000A5C (0x2 bytes), align: 0
  Segment part 8.
           ENTRY                   ADDRESS         REF BY
           =====                   =======         ======
           macRadioDefsRssiAdj     00000A5B        ?Subroutine12 (mac_rx)
    -------------------------------------------------------------------------
XDATA_Z
  Relative segment, address: XDATA 000005F4 - 000005F4 (0x1 bytes), align: 0
  Segment part 9.             Intra module refs:   MAC_SetRadioRegTable
           ENTRY                   ADDRESS         REF BY
           =====                   =======         ======
           macRadioDefsRefTableId
                                   000005F4        ?Subroutine12 (mac_rx)
    -------------------------------------------------------------------------
<BANKED_CODE,BANK_RELAYS..> 1 (was BANKED_CODE)
  Relative segment, address: CODE 00003698 - 000036AB (0x14 bytes), align: 0
  Segment part 10.            Intra module refs:   MAC_SetRadioRegTable::?relay
           ENTRY                   ADDRESS         REF BY
           =====                   =======         ======
           MAC_SetRadioRegTable    00003698 
               ISTACK = 00000000 ( 00000002 )
    -------------------------------------------------------------------------
<BANKED_CODE,BANK_RELAYS..> 1 (was BANKED_CODE)
  Relative segment, address: CODE 000036AC - 000036B3 (0x8 bytes), align: 0
  Segment part 12.            Intra module refs:   MAC_SetRadioRegTable
           LOCAL                   ADDRESS         
           =====                   =======         
           ?Subroutine0            000036AC 
    -------------------------------------------------------------------------
<BANKED_CODE,BANK_RELAYS..> 1 (was BANK_RELAYS)
  Relative segment, address: CODE 000007CE - 000007D3 (0x6 bytes), align: 0
  Segment part 11.
           ENTRY                   ADDRESS         REF BY
           =====                   =======         ======
           MAC_SetRadioRegTable::?relay
                                   000007CE        MAC_RfFrontendSetup (mac_rffrontend)

    *************************************************************************

  FILE NAME : C:\ZStack-CC2530-2.5.1a\Projects\zstack\Samples\Òº¾§ÏÔÊ¾Ä£×é¿ØÖÆÊµ¼ù\CC2530DB\CoordinatorEB\Obj\mac_rffrontend.r51
  PROGRAM MODULE, NAME : mac_rffrontend

  SEGMENTS IN THE MODULE
  ======================
<BANKED_CODE,BANK_RELAYS..> 1 (was BANKED_CODE)
  Relative segment, address: CODE 000036B4 - 000036CD (0x1a bytes), align: 0
  Segment part 7.             Intra module refs:   MAC_RfFrontendSetup::?relay
           ENTRY                   ADDRESS         REF BY
           =====                   =======         ======
           MAC_RfFrontendSetup     000036B4 
               calls direct
               ISTACK = 00000000 ( 00000002 )
    -------------------------------------------------------------------------
<BANKED_CODE,BANK_RELAYS..> 1 (was BANK_RELAYS)
  Relative segment, address: CODE 000007D4 - 000007D9 (0x6 bytes), align: 0
  Segment part 8.
           ENTRY                   ADDRESS         REF BY
           =====                   =======         ======
           MAC_RfFrontendSetup::?relay
                                   000007D4        halAssertHazardLights (hal_assert)

    *************************************************************************

  FILE NAME : C:\ZStack-CC2530-2.5.1a\Projects\zstack\Samples\Òº¾§ÏÔÊ¾Ä£×é¿ØÖÆÊµ¼ù\CC2530DB\CoordinatorEB\Obj\mac_rx.r51
  PROGRAM MODULE, NAME : mac_rx

  SEGMENTS IN THE MODULE
  ======================
XDATA_Z
  Relative segment, address: XDATA 000005F5 - 000005F5 (0x1 bytes), align: 0
  Segment part 11.            Intra module refs:   macRxAckTxDoneCallback
                                                   rxDone
                                                   rxFcsIsr
                                                   rxHaltCleanupFinalStep
                                                   rxStartIsr
           ENTRY                   ADDRESS         REF BY
           =====                   =======         ======
           macRxActive             000005F5        halAssertHazardLights (hal_assert)
                                                   macRxOffRequest (mac_rx_onoff)
                                                   macTxFrame (mac_tx)
                                                   macTxStartQueuedFrame (mac_tx)
    -------------------------------------------------------------------------
XDATA_Z
  Relative segment, address: XDATA 000005F6 - 000005F6 (0x1 bytes), align: 0
  Segment part 12.            Intra module refs:   rxStartIsr
           ENTRY                   ADDRESS         REF BY
           =====                   =======         ======
           macRxFilter             000005F6 
    -------------------------------------------------------------------------
XDATA_Z
  Relative segment, address: XDATA 000005F7 - 000005F7 (0x1 bytes), align: 0
  Segment part 13.            Intra module refs:   Segment part 49
                                                   macRxAckTxDoneCallback
                                                   rxDone
                                                   rxHaltCleanupFinalStep
                                                   rxStartIsr
           ENTRY                   ADDRESS         REF BY
           =====                   =======         ======
           macRxOutgoingAckFlag    000005F7        macRadioUpdateTxPower (mac_radio)
                                                   macRxOffRequest (mac_rx_onoff)
                                                   macTxFrame (mac_tx)
                                                   macTxStartQueuedFrame (mac_tx)
                                                   txGo (mac_tx)
    -------------------------------------------------------------------------
<BANKED_CODE,BANK_RELAYS..> 1 (was CODE_C)
  Relative segment, address: CODE 00000A57 - 00000A5A (0x4 bytes), align: 0
  Segment part 14.            Intra module refs:   ?Subroutine23
           LOCAL                   ADDRESS         
           =====                   =======         
           macRxAddrLen            00000A57 
    -------------------------------------------------------------------------
XDATA_Z
  Relative segment, address: XDATA 000005F8 - 000005F9 (0x2 bytes), align: 0
  Segment part 15.            Intra module refs:   ?Subroutine24
                                                   ?Subroutine7
                                                   macRxThresholdIsr
                                                   rxDiscardFrame
                                                   rxHaltCleanupFinalStep
                                                   rxPrepPayload
                                                   rxStartIsr
           LOCAL                   ADDRESS         
           =====                   =======         
           pFuncRxState            000005F8 
    -------------------------------------------------------------------------
XDATA_Z
  Relative segment, address: XDATA 000005FA - 000005FB (0x2 bytes), align: 0
  Segment part 16.            Intra module refs:   ?Subroutine10
                                                   ?Subroutine16
                                                   ?Subroutine19
                                                   ?Subroutine26
                                                   ?Subroutine3
                                                   ?Subroutine30
                                                   ?Subroutine5
                                                   Segment part 85
                                                   rxAddrIsr
                                                   rxFcsIsr
                                                   rxHaltCleanupFinalStep
                                                   rxPayloadIsr
                                                   rxStartIsr
           LOCAL                   ADDRESS         
           =====                   =======         
           pRxBuf                  000005FA 
    -------------------------------------------------------------------------
XDATA_Z
  Relative segment, address: XDATA 000005FC - 000005FF (0x4 bytes), align: 0
  Segment part 17.            Intra module refs:   ?Subroutine6
                                                   rxAddrIsr
                                                   rxFcsIsr
                                                   rxStartIsr
           LOCAL                   ADDRESS         
           =====                   =======         
           rxBuf                   000005FC 
    -------------------------------------------------------------------------
XDATA_Z
  Relative segment, address: XDATA 00000600 - 00000600 (0x1 bytes), align: 0
  Segment part 18.            Intra module refs:   rxDiscardFrame
                                                   rxDiscardIsr
                                                   rxStartIsr
           LOCAL                   ADDRESS         
           =====                   =======         
           rxUnreadLen             00000600 
    -------------------------------------------------------------------------
XDATA_Z
  Relative segment, address: XDATA 00000601 - 00000601 (0x1 bytes), align: 0
  Segment part 19.            Intra module refs:   ?Subroutine13
                                                   rxAddrIsr
                                                   rxDiscardFrame
                                                   rxDiscardIsr
                                                   rxPayloadIsr
                                                   rxPrepPayload
                                                   rxStartIsr
           LOCAL                   ADDRESS         
           =====                   =======         
           rxNextLen               00000601 
    -------------------------------------------------------------------------
XDATA_Z
  Relative segment, address: XDATA 00000602 - 00000602 (0x1 bytes), align: 0
  Segment part 20.            Intra module refs:   rxPayloadIsr
                                                   rxPrepPayload
                                                   rxStartIsr
           LOCAL                   ADDRESS         
           =====                   =======         
           rxPayloadLen            00000602 
    -------------------------------------------------------------------------
XDATA_Z
  Relative segment, address: XDATA 00000603 - 00000603 (0x1 bytes), align: 0
  Segment part 21.            Intra module refs:   rxStartIsr
           LOCAL                   ADDRESS         
           =====                   =======         
           rxFilter                00000603 
    -------------------------------------------------------------------------
XDATA_Z
  Relative segment, address: XDATA 00000604 - 00000604 (0x1 bytes), align: 0
  Segment part 22.            Intra module refs:   rxFcsIsr
                                                   rxStartIsr
           LOCAL                   ADDRESS         
           =====                   =======         
           rxPromiscuousMode       00000604 
    -------------------------------------------------------------------------
XDATA_Z
  Relative segment, address: XDATA 00000605 - 00000605 (0x1 bytes), align: 0
  Segment part 23.            Intra module refs:   macRxHaltCleanup
                                                   macRxThresholdIsr
           LOCAL                   ADDRESS         
           =====                   =======         
           rxIsrActiveFlag         00000605 
    -------------------------------------------------------------------------
XDATA_Z
  Relative segment, address: XDATA 00000606 - 00000606 (0x1 bytes), align: 0
  Segment part 24.            Intra module refs:   ?Subroutine22
                                                   macRxHaltCleanup
                                                   macRxThresholdIsr
           LOCAL                   ADDRESS         
           =====                   =======         
           rxResetFlag             00000606 
    -------------------------------------------------------------------------
XDATA_Z
  Relative segment, address: XDATA 00000607 - 00000607 (0x1 bytes), align: 0
  Segment part 25.            Intra module refs:   macRxFifoOverflowIsr
           LOCAL                   ADDRESS         
           =====                   =======         
           rxFifoOverflowCount     00000607 
    -------------------------------------------------------------------------
<BANKED_CODE,BANK_RELAYS..> 1 (was BANKED_CODE)
  Relative segment, address: CODE 000014D7 - 000014EC (0x16 bytes), align: 0
  Segment part 32.            Intra module refs:   macRxHaltCleanup::?relay
           ENTRY                   ADDRESS         REF BY
           =====                   =======         ======
           macRxHaltCleanup        000014D7 
               calls direct, is recursive
               ISTACK = 00000000 ( 00000002 )
    -------------------------------------------------------------------------
<BANKED_CODE,BANK_RELAYS..> 1 (was BANKED_CODE)
  Relative segment, address: CODE 000014ED - 00001549 (0x5d bytes), align: 0
  Segment part 34.            Intra module refs:   rxHaltCleanupFinalStep::?relay
           LOCAL                   ADDRESS         
           =====                   =======         
           rxHaltCleanupFinalStep
                                   000014ED 
               calls direct, is recursive
               ISTACK = 00000000 ( 00000002 )
    -------------------------------------------------------------------------
<BANKED_CODE,BANK_RELAYS..> 1 (was BANKED_CODE)
  Relative segment, address: CODE 0000154A - 00001573 (0x2a bytes), align: 0
  Segment part 36.            Intra module refs:   macRxThresholdIsr::?relay
           ENTRY                   ADDRESS         REF BY
           =====                   =======         ======
           macRxThresholdIsr       0000154A 
               calls direct
               ISTACK = 00000000 ( 00000002 )
    -------------------------------------------------------------------------
<BANKED_CODE,BANK_RELAYS..> 1 (was BANKED_CODE)
  Relative segment, address: CODE 00001574 - 0000157C (0x9 bytes), align: 0
  Segment part 38.            Intra module refs:   macRxHaltCleanup
                                                   macRxThresholdIsr
           LOCAL                   ADDRESS         
           =====                   =======         
           ?Subroutine22           00001574 
    -------------------------------------------------------------------------
<BANKED_CODE,BANK_RELAYS..> 1 (was BANKED_CODE)
  Relative segment, address: CODE 0000157D - 0000193F (0x3c3 bytes), align: 0
  Segment part 39.            Intra module refs:   rxStartIsr::?relay
           LOCAL                   ADDRESS         
           =====                   =======         
           rxStartIsr              0000157D 
               calls direct, is indirectly called
               XSTACK = 00000000 ( 00000012 )
               ISTACK = 00000000 ( 00000001 )
    -------------------------------------------------------------------------
<BANKED_CODE,BANK_RELAYS..> 1 (was BANKED_CODE)
  Relative segment, address: CODE 00001940 - 0000194E (0xf bytes), align: 0
  Segment part 41.            Intra module refs:   rxStartIsr
           LOCAL                   ADDRESS         
           =====                   =======         
           ?Subroutine23           00001940 
    -------------------------------------------------------------------------
<BANKED_CODE,BANK_RELAYS..> 1 (was BANKED_CODE)
  Relative segment, address: CODE 0000194F - 00001952 (0x4 bytes), align: 0
  Segment part 42.            Intra module refs:   rxStartIsr
           LOCAL                   ADDRESS         
           =====                   =======         
           ?Subroutine15           0000194F 
    -------------------------------------------------------------------------
<BANKED_CODE,BANK_RELAYS..> 1 (was BANKED_CODE)
  Relative segment, address: CODE 00001953 - 0000195D (0xb bytes), align: 0
  Segment part 43.            Intra module refs:   ?Subroutine14
                                                   ?Subroutine15
           LOCAL                   ADDRESS         
           =====                   =======         
           ?Subroutine26           00001953 
    -------------------------------------------------------------------------
<BANKED_CODE,BANK_RELAYS..> 1 (was BANKED_CODE)
  Relative segment, address: CODE 0000195E - 00001967 (0xa bytes), align: 0
  Segment part 44.            Intra module refs:   rxStartIsr
           LOCAL                   ADDRESS         
           =====                   =======         
           ?Subroutine10           0000195E 
    -------------------------------------------------------------------------
<BANKED_CODE,BANK_RELAYS..> 1 (was BANKED_CODE)
  Relative segment, address: CODE 00001968 - 00001968 (0x1 bytes), align: 0
  Segment part 45.            Intra module refs:   ?Subroutine10
                                                   ?Subroutine17
           LOCAL                   ADDRESS         
           =====                   =======         
           ?Subroutine25           00001968 
    -------------------------------------------------------------------------
<BANKED_CODE,BANK_RELAYS..> 1 (was BANKED_CODE)
  Relative segment, address: CODE 00001969 - 00001972 (0xa bytes), align: 0
  Segment part 46.            Intra module refs:   ?Subroutine25
                                                   Segment part 63
    -------------------------------------------------------------------------
<BANKED_CODE,BANK_RELAYS..> 1 (was BANKED_CODE)
  Relative segment, address: CODE 00001973 - 0000197B (0x9 bytes), align: 0
  Segment part 47.            Intra module refs:   rxStartIsr
           LOCAL                   ADDRESS         
           =====                   =======         
           ?Subroutine9            00001973 
    -------------------------------------------------------------------------
<BANKED_CODE,BANK_RELAYS..> 1 (was BANKED_CODE)
  Relative segment, address: CODE 0000197C - 00001981 (0x6 bytes), align: 0
  Segment part 48.            Intra module refs:   rxFcsIsr
                                                   rxStartIsr
           LOCAL                   ADDRESS         
           =====                   =======         
           ?Subroutine8            0000197C 
    -------------------------------------------------------------------------
<BANKED_CODE,BANK_RELAYS..> 1 (was BANKED_CODE)
  Relative segment, address: CODE 00001982 - 00001988 (0x7 bytes), align: 0
  Segment part 49.            Intra module refs:   ?Subroutine8
    -------------------------------------------------------------------------
<BANKED_CODE,BANK_RELAYS..> 1 (was BANKED_CODE)
  Relative segment, address: CODE 00001989 - 00001990 (0x8 bytes), align: 0
  Segment part 50.            Intra module refs:   rxStartIsr
           LOCAL                   ADDRESS         
           =====                   =======         
           ?Subroutine6            00001989 
    -------------------------------------------------------------------------
<BANKED_CODE,BANK_RELAYS..> 1 (was BANKED_CODE)
  Relative segment, address: CODE 00001991 - 00001996 (0x6 bytes), align: 0
  Segment part 51.            Intra module refs:   rxAddrIsr
           LOCAL                   ADDRESS         
           =====                   =======         
           ?Subroutine5            00001991 
    -------------------------------------------------------------------------
<BANKED_CODE,BANK_RELAYS..> 1 (was BANKED_CODE)
  Relative segment, address: CODE 00001997 - 0000199C (0x6 bytes), align: 0
  Segment part 52.            Intra module refs:   ?Subroutine5
                                                   rxAddrIsr
                                                   rxStartIsr
    -------------------------------------------------------------------------
<BANKED_CODE,BANK_RELAYS..> 1 (was BANKED_CODE)
  Relative segment, address: CODE 0000199D - 000019A1 (0x5 bytes), align: 0
  Segment part 53.            Intra module refs:   Segment part 52
                                                   rxPayloadIsr
                                                   rxStartIsr
    -------------------------------------------------------------------------
<BANKED_CODE,BANK_RELAYS..> 1 (was BANKED_CODE)
  Relative segment, address: CODE 000019A2 - 000019A6 (0x5 bytes), align: 0
  Segment part 54.            Intra module refs:   Segment part 53
                                                   rxAddrIsr
    -------------------------------------------------------------------------
<BANKED_CODE,BANK_RELAYS..> 1 (was BANKED_CODE)
  Relative segment, address: CODE 000019A7 - 000019B0 (0xa bytes), align: 0
  Segment part 55.            Intra module refs:   rxStartIsr
           LOCAL                   ADDRESS         
           =====                   =======         
           ?Subroutine3            000019A7 
    -------------------------------------------------------------------------
<BANKED_CODE,BANK_RELAYS..> 1 (was BANKED_CODE)
  Relative segment, address: CODE 000019B1 - 000019B4 (0x4 bytes), align: 0
  Segment part 56.            Intra module refs:   ?Subroutine3
                                                   macRxThresholdIsr
           LOCAL                   ADDRESS         
           =====                   =======         
           ?Subroutine28           000019B1 
    -------------------------------------------------------------------------
<BANKED_CODE,BANK_RELAYS..> 1 (was BANKED_CODE)
  Relative segment, address: CODE 000019B5 - 000019BD (0x9 bytes), align: 0
  Segment part 57.            Intra module refs:   ?Subroutine26
                                                   ?Subroutine28
           LOCAL                   ADDRESS         
           =====                   =======         
           ?Subroutine31           000019B5 
    -------------------------------------------------------------------------
<BANKED_CODE,BANK_RELAYS..> 1 (was BANKED_CODE)
  Relative segment, address: CODE 000019BE - 00001AAA (0xed bytes), align: 0
  Segment part 58.            Intra module refs:   rxAddrIsr::?relay
           LOCAL                   ADDRESS         
           =====                   =======         
           rxAddrIsr               000019BE 
               calls direct, is indirectly called
               XSTACK = 00000000 ( 0000001D )
    -------------------------------------------------------------------------
<BANKED_CODE,BANK_RELAYS..> 1 (was BANKED_CODE)
  Relative segment, address: CODE 00001AAB - 00001AAF (0x5 bytes), align: 0
  Segment part 60.            Intra module refs:   rxAddrIsr
           LOCAL                   ADDRESS         
           =====                   =======         
           ?Subroutine1            00001AAB 
    -------------------------------------------------------------------------
<BANKED_CODE,BANK_RELAYS..> 1 (was BANKED_CODE)
  Relative segment, address: CODE 00001AB0 - 00001AB9 (0xa bytes), align: 0
  Segment part 61.            Intra module refs:   rxAddrIsr
           LOCAL                   ADDRESS         
           =====                   =======         
           ?Subroutine20           00001AB0 
    -------------------------------------------------------------------------
<BANKED_CODE,BANK_RELAYS..> 1 (was BANKED_CODE)
  Relative segment, address: CODE 00001ABA - 00001ABA (0x1 bytes), align: 0
  Segment part 62.            Intra module refs:   rxAddrIsr
                                                   rxFcsIsr
                                                   rxStartIsr
           LOCAL                   ADDRESS         
           =====                   =======         
           ?Subroutine18           00001ABA 
    -------------------------------------------------------------------------
<BANKED_CODE,BANK_RELAYS..> 1 (was BANKED_CODE)
  Relative segment, address: CODE 00001ABB - 00001ABE (0x4 bytes), align: 0
  Segment part 63.            Intra module refs:   ?Subroutine18
                                                   rxStartIsr
    -------------------------------------------------------------------------
<BANKED_CODE,BANK_RELAYS..> 1 (was BANKED_CODE)
  Relative segment, address: CODE 00001ABF - 00001AC6 (0x8 bytes), align: 0
  Segment part 64.            Intra module refs:   rxAddrIsr
           LOCAL                   ADDRESS         
           =====                   =======         
           ?Subroutine16           00001ABF 
    -------------------------------------------------------------------------
<BANKED_CODE,BANK_RELAYS..> 1 (was BANKED_CODE)
  Relative segment, address: CODE 00001AC7 - 00001ACF (0x9 bytes), align: 0
  Segment part 65.            Intra module refs:   ?Subroutine16
                                                   rxAddrIsr
           LOCAL                   ADDRESS         
           =====                   =======         
           ?Subroutine29           00001AC7 
    -------------------------------------------------------------------------
<BANKED_CODE,BANK_RELAYS..> 1 (was BANKED_CODE)
  Relative segment, address: CODE 00001AD0 - 00001AD5 (0x6 bytes), align: 0
  Segment part 66.            Intra module refs:   rxAddrIsr
                                                   rxStartIsr
           LOCAL                   ADDRESS         
           =====                   =======         
           ?Subroutine14           00001AD0 
    -------------------------------------------------------------------------
<BANKED_CODE,BANK_RELAYS..> 1 (was BANKED_CODE)
  Relative segment, address: CODE 00001AD6 - 00001AE3 (0xe bytes), align: 0
  Segment part 67.            Intra module refs:   rxAddrIsr
                                                   rxStartIsr
           LOCAL                   ADDRESS         
           =====                   =======         
           ?Subroutine7            00001AD6 
    -------------------------------------------------------------------------
<BANKED_CODE,BANK_RELAYS..> 1 (was BANKED_CODE)
  Relative segment, address: CODE 00001AE4 - 00001B16 (0x33 bytes), align: 0
  Segment part 68.            Intra module refs:   rxPrepPayload::?relay
           LOCAL                   ADDRESS         
           =====                   =======         
           rxPrepPayload           00001AE4 
               XSTACK = 0000001D ( 00000000 )
               ISTACK = 00000000 ( 00000002 )
    -------------------------------------------------------------------------
<BANKED_CODE,BANK_RELAYS..> 1 (was BANKED_CODE)
  Relative segment, address: CODE 00001B17 - 00001B4D (0x37 bytes), align: 0
  Segment part 70.            Intra module refs:   rxPayloadIsr::?relay
           LOCAL                   ADDRESS         
           =====                   =======         
           rxPayloadIsr            00001B17 
               calls direct, is indirectly called
               ISTACK = 00000000 ( 00000002 )
    -------------------------------------------------------------------------
<BANKED_CODE,BANK_RELAYS..> 1 (was BANKED_CODE)
  Relative segment, address: CODE 00001B4E - 00001B5A (0xd bytes), align: 0
  Segment part 72.            Intra module refs:   rxPayloadIsr
                                                   rxStartIsr
           LOCAL                   ADDRESS         
           =====                   =======         
           ?Subroutine21           00001B4E 
    -------------------------------------------------------------------------
<BANKED_CODE,BANK_RELAYS..> 1 (was BANKED_CODE)
  Relative segment, address: CODE 00001B5B - 00001B5B (0x1 bytes), align: 0
  Segment part 73.            Intra module refs:   rxPrepPayload
           LOCAL                   ADDRESS         
           =====                   =======         
           ?Subroutine0            00001B5B 
    -------------------------------------------------------------------------
<BANKED_CODE,BANK_RELAYS..> 1 (was BANKED_CODE)
  Relative segment, address: CODE 00001B5C - 00001B62 (0x7 bytes), align: 0
  Segment part 74.            Intra module refs:   ?Subroutine0
                                                   macRxAckTxDoneCallback
                                                   macRxFifoOverflowIsr
                                                   macRxHaltCleanup
                                                   macRxThresholdIsr
                                                   rxDiscardFrame
                                                   rxDiscardIsr
                                                   rxDone
                                                   rxHaltCleanupFinalStep
                                                   rxPayloadIsr
                                                   rxPostRxUpdates
    -------------------------------------------------------------------------
<BANKED_CODE,BANK_RELAYS..> 1 (was BANKED_CODE)
  Relative segment, address: CODE 00001B63 - 00001C4E (0xec bytes), align: 0
  Segment part 75.            Intra module refs:   rxFcsIsr::?relay
           LOCAL                   ADDRESS         
           =====                   =======         
           rxFcsIsr                00001B63 
               calls direct, is indirectly called
               XSTACK = 00000000 ( 0000000A )
               ISTACK = 00000000 ( 00000001 )
    -------------------------------------------------------------------------
<BANKED_CODE,BANK_RELAYS..> 1 (was BANKED_CODE)
  Relative segment, address: CODE 00001C4F - 00001C5B (0xd bytes), align: 0
  Segment part 77.            Intra module refs:   rxFcsIsr
                                                   rxPayloadIsr
           LOCAL                   ADDRESS         
           =====                   =======         
           ?Subroutine19           00001C4F 
    -------------------------------------------------------------------------
<BANKED_CODE,BANK_RELAYS..> 1 (was BANKED_CODE)
  Relative segment, address: CODE 00001C5C - 00001C60 (0x5 bytes), align: 0
  Segment part 78.            Intra module refs:   rxFcsIsr
                                                   rxStartIsr
           LOCAL                   ADDRESS         
           =====                   =======         
           ?Subroutine17           00001C5C 
    -------------------------------------------------------------------------
<BANKED_CODE,BANK_RELAYS..> 1 (was BANKED_CODE)
  Relative segment, address: CODE 00001C61 - 00001C75 (0x15 bytes), align: 0
  Segment part 79.            Intra module refs:   rxFcsIsr
                                                   rxStartIsr
           LOCAL                   ADDRESS         
           =====                   =======         
           ?Subroutine12           00001C61 
    -------------------------------------------------------------------------
<BANKED_CODE,BANK_RELAYS..> 1 (was BANKED_CODE)
  Relative segment, address: CODE 00001C76 - 00001C7E (0x9 bytes), align: 0
  Segment part 80.            Intra module refs:   rxFcsIsr
                                                   rxStartIsr
           LOCAL                   ADDRESS         
           =====                   =======         
           ?Subroutine11           00001C76 
    -------------------------------------------------------------------------
<BANKED_CODE,BANK_RELAYS..> 1 (was BANKED_CODE)
  Relative segment, address: CODE 00001C7F - 00001C89 (0xb bytes), align: 0
  Segment part 81.            Intra module refs:   ?Subroutine11
                                                   rxStartIsr
           LOCAL                   ADDRESS         
           =====                   =======         
           ?Subroutine30           00001C7F 
    -------------------------------------------------------------------------
<BANKED_CODE,BANK_RELAYS..> 1 (was BANKED_CODE)
  Relative segment, address: CODE 00001C8A - 00001C96 (0xd bytes), align: 0
  Segment part 82.            Intra module refs:   ?Subroutine11
                                                   rxPayloadIsr
           LOCAL                   ADDRESS         
           =====                   =======         
           ?Subroutine27           00001C8A 
    -------------------------------------------------------------------------
<BANKED_CODE,BANK_RELAYS..> 1 (was BANKED_CODE)
  Relative segment, address: CODE 00001C97 - 00001C9A (0x4 bytes), align: 0
  Segment part 83.            Intra module refs:   rxFcsIsr
           LOCAL                   ADDRESS         
           =====                   =======         
           ?Subroutine4            00001C97 
    -------------------------------------------------------------------------
<BANKED_CODE,BANK_RELAYS..> 1 (was BANKED_CODE)
  Relative segment, address: CODE 00001C9B - 00001C9E (0x4 bytes), align: 0
  Segment part 84.            Intra module refs:   ?Subroutine4
                                                   rxStartIsr
    -------------------------------------------------------------------------
<BANKED_CODE,BANK_RELAYS..> 1 (was BANKED_CODE)
  Relative segment, address: CODE 00001C9F - 00001CA4 (0x6 bytes), align: 0
  Segment part 85.            Intra module refs:   Segment part 84
                                                   rxFcsIsr
                                                   rxStartIsr
    -------------------------------------------------------------------------
<BANKED_CODE,BANK_RELAYS..> 1 (was BANKED_CODE)
  Relative segment, address: CODE 00001CA5 - 00001CCC (0x28 bytes), align: 0
  Segment part 86.            Intra module refs:   rxDone::?relay
           LOCAL                   ADDRESS         
           =====                   =======         
           rxDone                  00001CA5 
               calls direct
               XSTACK = 00000010 ( 00000000 )
               ISTACK = 00000000 ( 00000002 )
    -------------------------------------------------------------------------
<BANKED_CODE,BANK_RELAYS..> 1 (was BANKED_CODE)
  Relative segment, address: CODE 00001CCD - 00001CE1 (0x15 bytes), align: 0
  Segment part 88.            Intra module refs:   macRxAckTxDoneCallback::?relay
           ENTRY                   ADDRESS         REF BY
           =====                   =======         ======
           macRxAckTxDoneCallback
                                   00001CCD 
               calls direct
               ISTACK = 00000000 ( 00000002 )
    -------------------------------------------------------------------------
<BANKED_CODE,BANK_RELAYS..> 1 (was BANKED_CODE)
  Relative segment, address: CODE 00001CE2 - 00001CF1 (0x10 bytes), align: 0
  Segment part 90.            Intra module refs:   rxPostRxUpdates::?relay
           LOCAL                   ADDRESS         
           =====                   =======         
           rxPostRxUpdates         00001CE2 
               calls direct, is recursive
               XSTACK = 0000000F ( 00000000 )
               ISTACK = 00000000 ( 00000002 )
    -------------------------------------------------------------------------
<BANKED_CODE,BANK_RELAYS..> 1 (was BANKED_CODE)
  Relative segment, address: CODE 00001CF2 - 00001D35 (0x44 bytes), align: 0
  Segment part 92.            Intra module refs:   rxDiscardFrame::?relay
           LOCAL                   ADDRESS         
           =====                   =======         
           rxDiscardFrame          00001CF2 
               calls direct
               XSTACK = 0000000F ( 00000000 )
               ISTACK = 00000000 ( 00000002 )
    -------------------------------------------------------------------------
<BANKED_CODE,BANK_RELAYS..> 1 (was BANKED_CODE)
  Relative segment, address: CODE 00001D36 - 00001D6B (0x36 bytes), align: 0
  Segment part 94.            Intra module refs:   rxDiscardIsr::?relay
           LOCAL                   ADDRESS         
           =====                   =======         
           rxDiscardIsr            00001D36 
               calls direct, is indirectly called
               XSTACK = 00000000 ( 00000010 )
               ISTACK = 00000000 ( 00000002 )
    -------------------------------------------------------------------------
<BANKED_CODE,BANK_RELAYS..> 1 (was BANKED_CODE)
  Relative segment, address: CODE 00001D6C - 00001D7E (0x13 bytes), align: 0
  Segment part 96.            Intra module refs:   rxAddrIsr
                                                   rxDiscardIsr
           LOCAL                   ADDRESS         
           =====                   =======         
           ?Subroutine13           00001D6C 
    -------------------------------------------------------------------------
<BANKED_CODE,BANK_RELAYS..> 1 (was BANKED_CODE)
  Relative segment, address: CODE 00001D7F - 00001D8B (0xd bytes), align: 0
  Segment part 97.            Intra module refs:   rxDiscardIsr
                                                   rxFcsIsr
           LOCAL                   ADDRESS         
           =====                   =======         
           ?Subroutine2            00001D7F 
    -------------------------------------------------------------------------
<BANKED_CODE,BANK_RELAYS..> 1 (was BANKED_CODE)
  Relative segment, address: CODE 00001D8C - 00001D96 (0xb bytes), align: 0
  Segment part 98.            Intra module refs:   ?Subroutine2
           LOCAL                   ADDRESS         
           =====                   =======         
           ?Subroutine24           00001D8C 
    -------------------------------------------------------------------------
<BANKED_CODE,BANK_RELAYS..> 1 (was BANKED_CODE)
  Relative segment, address: CODE 00001D97 - 00001DA6 (0x10 bytes), align: 0
  Segment part 99.            Intra module refs:   macRxFifoOverflowIsr::?relay
           ENTRY                   ADDRESS         REF BY
           =====                   =======         ======
           macRxFifoOverflowIsr    00001D97 
               calls direct
               ISTACK = 00000000 ( 00000002 )
    -------------------------------------------------------------------------
<BANKED_CODE,BANK_RELAYS..> 1 (was BANK_RELAYS)
  Relative segment, address: CODE 000007DA - 000007DF (0x6 bytes), align: 0
  Segment part 33.            Intra module refs:   macRxFifoOverflowIsr
           ENTRY                   ADDRESS         REF BY
           =====                   =======         ======
           macRxHaltCleanup::?relay
                                   000007DA        macRadioUpdateChannel (mac_radio)
                                                   macRxHardDisable (mac_rx_onoff)
    -------------------------------------------------------------------------
<BANKED_CODE,BANK_RELAYS..> 1 (was BANK_RELAYS)
  Relative segment, address: CODE 00000936 - 0000093B (0x6 bytes), align: 0
  Segment part 35.            Intra module refs:   ?Subroutine22
           LOCAL                   ADDRESS         
           =====                   =======         
           rxHaltCleanupFinalStep::?relay
                                   00000936 
    -------------------------------------------------------------------------
<BANKED_CODE,BANK_RELAYS..> 1 (was BANK_RELAYS)
  Relative segment, address: CODE 000007E6 - 000007EB (0x6 bytes), align: 0
  Segment part 37.
           ENTRY                   ADDRESS         REF BY
           =====                   =======         ======
           macRxThresholdIsr::?relay
                                   000007E6        macMcuRfIsr (mac_mcu)
    -------------------------------------------------------------------------
<BANKED_CODE,BANK_RELAYS..> 1 (was BANK_RELAYS)
  Relative segment, address: CODE 000007EC - 000007F1 (0x6 bytes), align: 0
  Segment part 40.            Intra module refs:   ?Subroutine24
                                                   rxDiscardFrame
                                                   rxHaltCleanupFinalStep
           LOCAL                   ADDRESS         
           =====                   =======         
           rxStartIsr::?relay      000007EC 
    -------------------------------------------------------------------------
<BANKED_CODE,BANK_RELAYS..> 1 (was BANK_RELAYS)
  Relative segment, address: CODE 000007F2 - 000007F7 (0x6 bytes), align: 0
  Segment part 59.            Intra module refs:   rxStartIsr
           LOCAL                   ADDRESS         
           =====                   =======         
           rxAddrIsr::?relay       000007F2 
    -------------------------------------------------------------------------
<BANKED_CODE,BANK_RELAYS..> 1 (was BANK_RELAYS)
  Relative segment, address: CODE 000007F8 - 000007FD (0x6 bytes), align: 0
  Segment part 69.            Intra module refs:   ?Subroutine7
                                                   rxPayloadIsr
           LOCAL                   ADDRESS         
           =====                   =======         
           rxPrepPayload::?relay   000007F8 
    -------------------------------------------------------------------------
<BANKED_CODE,BANK_RELAYS..> 1 (was BANK_RELAYS)
  Relative segment, address: CODE 000007FE - 00000803 (0x6 bytes), align: 0
  Segment part 71.            Intra module refs:   ?Subroutine7
           LOCAL                   ADDRESS         
           =====                   =======         
           rxPayloadIsr::?relay    000007FE 
    -------------------------------------------------------------------------
<BANKED_CODE,BANK_RELAYS..> 1 (was BANK_RELAYS)
  Relative segment, address: CODE 00000804 - 00000809 (0x6 bytes), align: 0
  Segment part 76.            Intra module refs:   rxPrepPayload
           LOCAL                   ADDRESS         
           =====                   =======         
           rxFcsIsr::?relay        00000804 
    -------------------------------------------------------------------------
<BANKED_CODE,BANK_RELAYS..> 1 (was BANK_RELAYS)
  Relative segment, address: CODE 0000080A - 0000080F (0x6 bytes), align: 0
  Segment part 87.            Intra module refs:   ?Subroutine2
                                                   rxDiscardFrame
                                                   rxStartIsr
           LOCAL                   ADDRESS         
           =====                   =======         
           rxDone::?relay          0000080A 
    -------------------------------------------------------------------------
<BANKED_CODE,BANK_RELAYS..> 1 (was BANK_RELAYS)
  Relative segment, address: CODE 00000810 - 00000815 (0x6 bytes), align: 0
  Segment part 89.
           ENTRY                   ADDRESS         REF BY
           =====                   =======         ======
           macRxAckTxDoneCallback::?relay
                                   00000810        macMcuRfIsr (mac_mcu)
    -------------------------------------------------------------------------
<BANKED_CODE,BANK_RELAYS..> 1 (was BANK_RELAYS)
  Relative segment, address: CODE 00000816 - 0000081B (0x6 bytes), align: 0
  Segment part 91.            Intra module refs:   macRxAckTxDoneCallback
                                                   rxDone
                                                   rxHaltCleanupFinalStep
                                                   rxStartIsr
           LOCAL                   ADDRESS         
           =====                   =======         
           rxPostRxUpdates::?relay
                                   00000816 
    -------------------------------------------------------------------------
<BANKED_CODE,BANK_RELAYS..> 1 (was BANK_RELAYS)
  Relative segment, address: CODE 0000081C - 00000821 (0x6 bytes), align: 0
  Segment part 93.            Intra module refs:   rxStartIsr
           LOCAL                   ADDRESS         
           =====                   =======         
           rxDiscardFrame::?relay
                                   0000081C 
    -------------------------------------------------------------------------
<BANKED_CODE,BANK_RELAYS..> 1 (was BANK_RELAYS)
  Relative segment, address: CODE 00000822 - 00000827 (0x6 bytes), align: 0
  Segment part 95.            Intra module refs:   rxDiscardFrame
           LOCAL                   ADDRESS         
           =====                   =======         
           rxDiscardIsr::?relay    00000822 
    -------------------------------------------------------------------------
<BANKED_CODE,BANK_RELAYS..> 1 (was BANK_RELAYS)
  Relative segment, address: CODE 00000828 - 0000082D (0x6 bytes), align: 0
  Segment part 100.
           ENTRY                   ADDRESS         REF BY
           =====                   =======         ======
           macRxFifoOverflowIsr::?relay
                                   00000828        macMcuRfErrIsr (mac_mcu)

    *************************************************************************

  FILE NAME : C:\ZStack-CC2530-2.5.1a\Projects\zstack\Samples\Òº¾§ÏÔÊ¾Ä£×é¿ØÖÆÊµ¼ù\CC2530DB\CoordinatorEB\Obj\mac_rx_onoff.r51
  PROGRAM MODULE, NAME : mac_rx_onoff

  SEGMENTS IN THE MODULE
  ======================
XDATA_Z
  Relative segment, address: XDATA 00000608 - 00000608 (0x1 bytes), align: 0
  Segment part 10.            Intra module refs:   macRxHardDisable
                                                   macRxOff
                                                   macRxOn
           ENTRY                   ADDRESS         REF BY
           =====                   =======         ======
           macRxOnFlag             00000608        macCspTxGoSlotted (mac_csp_tx)
                                                   rxStartIsr (mac_rx)
    -------------------------------------------------------------------------
XDATA_Z
  Relative segment, address: XDATA 00000609 - 00000609 (0x1 bytes), align: 0
  Segment part 11.            Intra module refs:   macRxHardDisable
                                                   macRxOffRequest
                                                   macRxOnRequest
           ENTRY                   ADDRESS         REF BY
           =====                   =======         ======
           macRxEnableFlags        00000609 
    -------------------------------------------------------------------------
<BANKED_CODE,BANK_RELAYS..> 1 (was BANKED_CODE)
  Relative segment, address: CODE 00003366 - 0000336A (0x5 bytes), align: 0
  Segment part 14.            Intra module refs:   macRxOff
                                                   macRxOn
           LOCAL                   ADDRESS         
           =====                   =======         
           ?Subroutine0            00003366 
    -------------------------------------------------------------------------
<BANKED_CODE,BANK_RELAYS..> 1 (was BANKED_CODE)
  Relative segment, address: CODE 0000336B - 00003371 (0x7 bytes), align: 0
  Segment part 15.            Intra module refs:   ?Subroutine0
                                                   macRxHardDisable
    -------------------------------------------------------------------------
<BANKED_CODE,BANK_RELAYS..> 1 (was BANKED_CODE)
  Relative segment, address: CODE 00003372 - 00003374 (0x3 bytes), align: 0
  Segment part 19.            Intra module refs:   macRxOffRequest
                                                   macRxOnRequest
           LOCAL                   ADDRESS         
           =====                   =======         
           ?Subroutine1            00003372 
    -------------------------------------------------------------------------
<BANKED_CODE,BANK_RELAYS..> 1 (was BANKED_CODE)
  Relative segment, address: CODE 00003375 - 00003376 (0x2 bytes), align: 0
  Segment part 20.            Intra module refs:   ?Subroutine1
    -------------------------------------------------------------------------
<BANKED_CODE,BANK_RELAYS..> 1 (was BANKED_CODE)
  Relative segment, address: CODE 00003377 - 0000337B (0x5 bytes), align: 0
  Segment part 21.            Intra module refs:   Segment part 20
    -------------------------------------------------------------------------
<BANKED_CODE,BANK_RELAYS..> 1 (was BANKED_CODE)
  Relative segment, address: CODE 0000337C - 0000339A (0x1f bytes), align: 0
  Segment part 26.            Intra module refs:   macRxHardDisable::?relay
           ENTRY                   ADDRESS         REF BY
           =====                   =======         ======
           macRxHardDisable        0000337C 
               calls direct, is recursive
               ISTACK = 00000000 ( 00000002 )
    -------------------------------------------------------------------------
<BANKED_CODE,BANK_RELAYS..> 1 (was BANKED_CODE)
  Relative segment, address: CODE 0000339B - 000033B2 (0x18 bytes), align: 0
  Segment part 28.            Intra module refs:   macRxOnRequest::?relay
           ENTRY                   ADDRESS         REF BY
           =====                   =======         ======
           macRxOnRequest          0000339B 
               calls direct
               XSTACK = 00000000 ( 00000009 )
    -------------------------------------------------------------------------
<BANKED_CODE,BANK_RELAYS..> 1 (was BANKED_CODE)
  Relative segment, address: CODE 000033B3 - 000033E0 (0x2e bytes), align: 0
  Segment part 30.            Intra module refs:   macRxOffRequest::?relay
           ENTRY                   ADDRESS         REF BY
           =====                   =======         ======
           macRxOffRequest         000033B3 
               calls direct
               XSTACK = 00000009 ( 00000009 )
    -------------------------------------------------------------------------
<BANKED_CODE,BANK_RELAYS..> 1 (was BANKED_CODE)
  Relative segment, address: CODE 000033E1 - 000033FA (0x1a bytes), align: 0
  Segment part 32.            Intra module refs:   macRxOn::?relay
           ENTRY                   ADDRESS         REF BY
           =====                   =======         ======
           macRxOn                 000033E1 
               XSTACK = 00000009 ( 00000000 )
               ISTACK = 00000000 ( 00000002 )
    -------------------------------------------------------------------------
<BANKED_CODE,BANK_RELAYS..> 1 (was BANKED_CODE)
  Relative segment, address: CODE 000033FB - 00003420 (0x26 bytes), align: 0
  Segment part 34.            Intra module refs:   macRxOff::?relay
           ENTRY                   ADDRESS         REF BY
           =====                   =======         ======
           macRxOff                000033FB 
               XSTACK = 00000009 ( 00000000 )
               ISTACK = 00000000 ( 00000002 )
    -------------------------------------------------------------------------
<BANKED_CODE,BANK_RELAYS..> 1 (was BANKED_CODE)
  Relative segment, address: CODE 00003421 - 0000342B (0xb bytes), align: 0
  Segment part 36.            Intra module refs:   macRxHardDisable
                                                   macRxOff
           LOCAL                   ADDRESS         
           =====                   =======         
           ?Subroutine3            00003421 
    -------------------------------------------------------------------------
<BANKED_CODE,BANK_RELAYS..> 1 (was BANK_RELAYS)
  Relative segment, address: CODE 0000082E - 00000833 (0x6 bytes), align: 0
  Segment part 27.
           ENTRY                   ADDRESS         REF BY
           =====                   =======         ======
           macRxHardDisable::?relay
                                   0000082E        macCspTxGoSlotted (mac_csp_tx)
    -------------------------------------------------------------------------
<BANKED_CODE,BANK_RELAYS..> 1 (was BANK_RELAYS)
  Relative segment, address: CODE 00000834 - 00000839 (0x6 bytes), align: 0
  Segment part 29.
           ENTRY                   ADDRESS         REF BY
           =====                   =======         ======
           macRxOnRequest::?relay
                                   00000834        macRadioUpdateChannel (mac_radio)
    -------------------------------------------------------------------------
<BANKED_CODE,BANK_RELAYS..> 1 (was BANK_RELAYS)
  Relative segment, address: CODE 0000083A - 0000083F (0x6 bytes), align: 0
  Segment part 31.
           ENTRY                   ADDRESS         REF BY
           =====                   =======         ======
           macRxOffRequest::?relay
                                   0000083A        macTxChannelBusyCallback (mac_tx)
                                                   rxFcsIsr (mac_rx)
                                                   rxPostRxUpdates (mac_rx)
                                                   txComplete (mac_tx)
    -------------------------------------------------------------------------
<BANKED_CODE,BANK_RELAYS..> 1 (was BANK_RELAYS)
  Relative segment, address: CODE 00000840 - 00000845 (0x6 bytes), align: 0
  Segment part 33.            Intra module refs:   macRxOnRequest
           ENTRY                   ADDRESS         REF BY
           =====                   =======         ======
           macRxOn::?relay         00000840        macCspTxGoCsma (mac_csp_tx)
    -------------------------------------------------------------------------
<BANKED_CODE,BANK_RELAYS..> 1 (was BANK_RELAYS)
  Relative segment, address: CODE 00000846 - 0000084B (0x6 bytes), align: 0
  Segment part 35.            Intra module refs:   macRxOffRequest
           ENTRY                   ADDRESS         REF BY
           =====                   =======         ======
           macRxOff::?relay        00000846        macRadioUpdateChannel (mac_radio)

    *************************************************************************

  FILE NAME : C:\ZStack-CC2530-2.5.1a\Projects\zstack\Samples\Òº¾§ÏÔÊ¾Ä£×é¿ØÖÆÊµ¼ù\CC2530DB\CoordinatorEB\Obj\mac_sleep.r51
  PROGRAM MODULE, NAME : mac_sleep

  SEGMENTS IN THE MODULE
  ======================
XDATA_I
  Relative segment, address: XDATA 0000062B - 0000062B (0x1 bytes), align: 0
  Segment part 10.
           ENTRY                   ADDRESS         REF BY
           =====                   =======         ======
           macSleepState           0000062B        macTxFrame (mac_tx)
    -------------------------------------------------------------------------
XDATA_ID
  Relative segment, address: CODE 0000009A - 0000009A (0x1 bytes), align: 0
  Segment part 11.            Intra module refs:   macSleepState

    *************************************************************************

  FILE NAME : C:\ZStack-CC2530-2.5.1a\Projects\zstack\Samples\Òº¾§ÏÔÊ¾Ä£×é¿ØÖÆÊµ¼ù\CC2530DB\CoordinatorEB\Obj\mac_tx.r51
  PROGRAM MODULE, NAME : mac_tx

  SEGMENTS IN THE MODULE
  ======================
XDATA_Z
  Relative segment, address: XDATA 0000060A - 0000060A (0x1 bytes), align: 0
  Segment part 9.             Intra module refs:   macTxAckNotReceivedCallback
                                                   macTxAckReceivedCallback
                                                   macTxChannelBusyCallback
                                                   macTxDoneCallback
                                                   macTxFrame
                                                   macTxStartQueuedFrame
                                                   txComplete
           ENTRY                   ADDRESS         REF BY
           =====                   =======         ======
           macTxActive             0000060A        halAssertHazardLights (hal_assert)
                                                   macRadioSetChannel (mac_radio)
                                                   macRadioUpdateChannel (mac_radio)
                                                   macRadioUpdateTxPower (mac_radio)
                                                   macRxOffRequest (mac_rx_onoff)
                                                   rxStartIsr (mac_rx)
    -------------------------------------------------------------------------
XDATA_Z
  Relative segment, address: XDATA 0000060B - 0000060B (0x1 bytes), align: 0
  Segment part 10.            Intra module refs:   ?Subroutine5
                                                   macTxChannelBusyCallback
                                                   macTxFrame
                                                   txCsmaGo
           ENTRY                   ADDRESS         REF BY
           =====                   =======         ======
           macTxType               0000060B 
    -------------------------------------------------------------------------
XDATA_Z
  Relative segment, address: XDATA 0000060C - 0000060C (0x1 bytes), align: 0
  Segment part 11.            Intra module refs:   macTxChannelBusyCallback
                                                   macTxFrame
                                                   txCsmaPrep
           ENTRY                   ADDRESS         REF BY
           =====                   =======         ======
           macTxBe                 0000060C 
    -------------------------------------------------------------------------
XDATA_Z
  Relative segment, address: XDATA 0000060D - 0000060D (0x1 bytes), align: 0
  Segment part 12.            Intra module refs:   txCsmaGo
                                                   txCsmaPrep
           ENTRY                   ADDRESS         REF BY
           =====                   =======         ======
           macTxCsmaBackoffDelay   0000060D        macCspTxGoCsma (mac_csp_tx)
    -------------------------------------------------------------------------
XDATA_Z
  Relative segment, address: XDATA 0000060E - 0000060E (0x1 bytes), align: 0
  Segment part 13.            Intra module refs:   macTxChannelBusyCallback
                                                   macTxFrame
           LOCAL                   ADDRESS         
           =====                   =======         
           nb                      0000060E 
    -------------------------------------------------------------------------
XDATA_Z
  Relative segment, address: XDATA 0000060F - 0000060F (0x1 bytes), align: 0
  Segment part 14.            Intra module refs:   macTxAckReceivedCallback
                                                   macTxFrame
           LOCAL                   ADDRESS         
           =====                   =======         
           txSeqn                  0000060F 
    -------------------------------------------------------------------------
XDATA_Z
  Relative segment, address: XDATA 00000610 - 00000610 (0x1 bytes), align: 0
  Segment part 15.            Intra module refs:   macTxDoneCallback
                                                   macTxFrame
           LOCAL                   ADDRESS         
           =====                   =======         
           txAckReq                00000610 
    -------------------------------------------------------------------------
XDATA_Z
  Relative segment, address: XDATA 00000611 - 00000611 (0x1 bytes), align: 0
  Segment part 16.            Intra module refs:   macTxFrame
                                                   macTxFrameRetransmit
                                                   txComplete
           LOCAL                   ADDRESS         
           =====                   =======         
           txRetransmitFlag        00000611 
    -------------------------------------------------------------------------
<BANKED_CODE,BANK_RELAYS..> 1 (was BANKED_CODE)
  Relative segment, address: CODE 00002264 - 00002363 (0x100 bytes), align: 0
  Segment part 21.            Intra module refs:   macTxFrame::?relay
           ENTRY                   ADDRESS         REF BY
           =====                   =======         ======
           macTxFrame              00002264 
               calls direct, is recursive
               XSTACK = 00000000 ( 00000009 )
               ISTACK = 00000000 ( 00000001 )
    -------------------------------------------------------------------------
<BANKED_CODE,BANK_RELAYS..> 1 (was BANKED_CODE)
  Relative segment, address: CODE 00002364 - 0000236F (0xc bytes), align: 0
  Segment part 23.            Intra module refs:   macTxFrame
           LOCAL                   ADDRESS         
           =====                   =======         
           ?Subroutine4            00002364 
    -------------------------------------------------------------------------
<BANKED_CODE,BANK_RELAYS..> 1 (was BANKED_CODE)
  Relative segment, address: CODE 00002370 - 0000239F (0x30 bytes), align: 0
  Segment part 24.            Intra module refs:   txCsmaPrep::?relay
           LOCAL                   ADDRESS         
           =====                   =======         
           txCsmaPrep              00002370 
               calls direct
               XSTACK = 00000009 ( 0000000A )
    -------------------------------------------------------------------------
<BANKED_CODE,BANK_RELAYS..> 1 (was BANKED_CODE)
  Relative segment, address: CODE 000023A0 - 000023BF (0x20 bytes), align: 0
  Segment part 26.            Intra module refs:   txGo::?relay
           LOCAL                   ADDRESS         
           =====                   =======         
           txGo                    000023A0 
               calls direct, is recursive
               XSTACK = 00000009 ( 00000000 )
               ISTACK = 00000000 ( 00000002 )
    -------------------------------------------------------------------------
<BANKED_CODE,BANK_RELAYS..> 1 (was BANKED_CODE)
  Relative segment, address: CODE 000023C0 - 000023C5 (0x6 bytes), align: 0
  Segment part 28.            Intra module refs:   macTxFrame
                                                   macTxFrameRetransmit
                                                   txCsmaPrep
                                                   txGo
           LOCAL                   ADDRESS         
           =====                   =======         
           ?Subroutine5            000023C0 
    -------------------------------------------------------------------------
<BANKED_CODE,BANK_RELAYS..> 1 (was BANKED_CODE)
  Relative segment, address: CODE 000023C6 - 000023E8 (0x23 bytes), align: 0
  Segment part 29.            Intra module refs:   txCsmaGo::?relay
           LOCAL                   ADDRESS         
           =====                   =======         
           txCsmaGo                000023C6 
               calls direct, is recursive
               ISTACK = 00000000 ( 00000002 )
    -------------------------------------------------------------------------
<BANKED_CODE,BANK_RELAYS..> 1 (was BANKED_CODE)
  Relative segment, address: CODE 000023E9 - 000023FA (0x12 bytes), align: 0
  Segment part 31.            Intra module refs:   macTxFrameRetransmit::?relay
           ENTRY                   ADDRESS         REF BY
           =====                   =======         ======
           macTxFrameRetransmit    000023E9 
               calls direct, is recursive
               ISTACK = 00000000 ( 00000002 )
    -------------------------------------------------------------------------
<BANKED_CODE,BANK_RELAYS..> 1 (was BANKED_CODE)
  Relative segment, address: CODE 000023FB - 00002401 (0x7 bytes), align: 0
  Segment part 34.            Intra module refs:   macTxChannelBusyCallback
                                                   macTxFrameRetransmit
                                                   macTxStartQueuedFrame
                                                   txCsmaGo
                                                   txGo
    -------------------------------------------------------------------------
<BANKED_CODE,BANK_RELAYS..> 1 (was BANKED_CODE)
  Relative segment, address: CODE 00002402 - 0000242F (0x2e bytes), align: 0
  Segment part 35.            Intra module refs:   macTxStartQueuedFrame::?relay
           ENTRY                   ADDRESS         REF BY
           =====                   =======         ======
           macTxStartQueuedFrame   00002402 
               calls direct, is recursive
               ISTACK = 00000000 ( 00000002 )
    -------------------------------------------------------------------------
<BANKED_CODE,BANK_RELAYS..> 1 (was BANKED_CODE)
  Relative segment, address: CODE 00002430 - 0000243B (0xc bytes), align: 0
  Segment part 37.            Intra module refs:   macTxFrame
                                                   macTxStartQueuedFrame
           LOCAL                   ADDRESS         
           =====                   =======         
           ?Subroutine3            00002430 
    -------------------------------------------------------------------------
<BANKED_CODE,BANK_RELAYS..> 1 (was BANKED_CODE)
  Relative segment, address: CODE 0000243C - 000024A1 (0x66 bytes), align: 0
  Segment part 38.            Intra module refs:   macTxChannelBusyCallback::?relay
           ENTRY                   ADDRESS         REF BY
           =====                   =======         ======
           macTxChannelBusyCallback
                                   0000243C 
               calls direct
               ISTACK = 00000000 ( 00000002 )
    -------------------------------------------------------------------------
<BANKED_CODE,BANK_RELAYS..> 1 (was BANKED_CODE)
  Relative segment, address: CODE 000024A2 - 000024DA (0x39 bytes), align: 0
  Segment part 40.            Intra module refs:   macTxDoneCallback::?relay
           ENTRY                   ADDRESS         REF BY
           =====                   =======         ======
           macTxDoneCallback       000024A2 
               calls direct
               XSTACK = 00000000 ( 00000009 )
    -------------------------------------------------------------------------
<BANKED_CODE,BANK_RELAYS..> 1 (was BANKED_CODE)
  Relative segment, address: CODE 000024DB - 00002521 (0x47 bytes), align: 0
  Segment part 42.            Intra module refs:   macTxAckReceivedCallback::?relay
           ENTRY                   ADDRESS         REF BY
           =====                   =======         ======
           macTxAckReceivedCallback
                                   000024DB 
               calls direct
               XSTACK = 00000000 ( 00000009 )
    -------------------------------------------------------------------------
<BANKED_CODE,BANK_RELAYS..> 1 (was BANKED_CODE)
  Relative segment, address: CODE 00002522 - 00002526 (0x5 bytes), align: 0
  Segment part 44.            Intra module refs:   macTxAckNotReceivedCallback
                                                   macTxAckReceivedCallback
                                                   macTxDoneCallback
                                                   macTxFrame
                                                   txComplete
           LOCAL                   ADDRESS         
           =====                   =======         
           ?Subroutine1            00002522 
    -------------------------------------------------------------------------
<BANKED_CODE,BANK_RELAYS..> 1 (was BANKED_CODE)
  Relative segment, address: CODE 00002527 - 00002553 (0x2d bytes), align: 0
  Segment part 45.            Intra module refs:   macTxAckNotReceivedCallback::?relay
           ENTRY                   ADDRESS         REF BY
           =====                   =======         ======
           macTxAckNotReceivedCallback
                                   00002527 
               calls direct
               XSTACK = 00000000 ( 00000009 )
    -------------------------------------------------------------------------
<BANKED_CODE,BANK_RELAYS..> 1 (was BANKED_CODE)
  Relative segment, address: CODE 00002554 - 00002573 (0x20 bytes), align: 0
  Segment part 47.            Intra module refs:   txComplete::?relay
           LOCAL                   ADDRESS         
           =====                   =======         
           txComplete              00002554 
               calls direct, is recursive
               XSTACK = 00000009 ( 00000009 )
    -------------------------------------------------------------------------
<BANKED_CODE,BANK_RELAYS..> 1 (was BANKED_CODE)
  Relative segment, address: CODE 00002574 - 000025BF (0x4c bytes), align: 0
  Segment part 49.            Intra module refs:   macTxTimestampCallback::?relay
           ENTRY                   ADDRESS         REF BY
           =====                   =======         ======
           macTxTimestampCallback
                                   00002574 
               calls direct
               XSTACK = 00000000 ( 0000000C )
    -------------------------------------------------------------------------
<BANKED_CODE,BANK_RELAYS..> 1 (was BANKED_CODE)
  Relative segment, address: CODE 000025C0 - 000025C8 (0x9 bytes), align: 0
  Segment part 51.            Intra module refs:   macTxFrame
                                                   macTxTimestampCallback
           LOCAL                   ADDRESS         
           =====                   =======         
           ?Subroutine2            000025C0 
    -------------------------------------------------------------------------
<BANKED_CODE,BANK_RELAYS..> 1 (was BANKED_CODE)
  Relative segment, address: CODE 000025C9 - 000025D3 (0xb bytes), align: 0
  Segment part 52.            Intra module refs:   ?Subroutine2
                                                   macTxFrame
           LOCAL                   ADDRESS         
           =====                   =======         
           ?Subroutine6            000025C9 
    -------------------------------------------------------------------------
<BANKED_CODE,BANK_RELAYS..> 1 (was BANK_RELAYS)
  Relative segment, address: CODE 0000084C - 00000851 (0x6 bytes), align: 0
  Segment part 22.            Intra module refs:   macTxFrameRetransmit
           ENTRY                   ADDRESS         REF BY
           =====                   =======         ======
           macTxFrame::?relay      0000084C 
    -------------------------------------------------------------------------
<BANKED_CODE,BANK_RELAYS..> 1 (was BANK_RELAYS)
  Relative segment, address: CODE 00000852 - 00000857 (0x6 bytes), align: 0
  Segment part 25.            Intra module refs:   macTxChannelBusyCallback
                                                   macTxFrame
           LOCAL                   ADDRESS         
           =====                   =======         
           txCsmaPrep::?relay      00000852 
    -------------------------------------------------------------------------
<BANKED_CODE,BANK_RELAYS..> 1 (was BANK_RELAYS)
  Relative segment, address: CODE 00000858 - 0000085D (0x6 bytes), align: 0
  Segment part 27.            Intra module refs:   ?Subroutine3
           LOCAL                   ADDRESS         
           =====                   =======         
           txGo::?relay            00000858 
    -------------------------------------------------------------------------
<BANKED_CODE,BANK_RELAYS..> 1 (was BANK_RELAYS)
  Relative segment, address: CODE 0000085E - 00000863 (0x6 bytes), align: 0
  Segment part 30.            Intra module refs:   macTxChannelBusyCallback
                                                   txGo
           LOCAL                   ADDRESS         
           =====                   =======         
           txCsmaGo::?relay        0000085E 
    -------------------------------------------------------------------------
<BANKED_CODE,BANK_RELAYS..> 1 (was BANK_RELAYS)
  Relative segment, address: CODE 00000864 - 00000869 (0x6 bytes), align: 0
  Segment part 32.
           ENTRY                   ADDRESS         REF BY
           =====                   =======         ======
           macTxFrameRetransmit::?relay
                                   00000864        macTxCompleteCallback (mac_beacon)
    -------------------------------------------------------------------------
<BANKED_CODE,BANK_RELAYS..> 1 (was BANK_RELAYS)
  Relative segment, address: CODE 0000086A - 0000086F (0x6 bytes), align: 0
  Segment part 36.
           ENTRY                   ADDRESS         REF BY
           =====                   =======         ======
           macTxStartQueuedFrame::?relay
                                   0000086A        rxPostRxUpdates (mac_rx)
    -------------------------------------------------------------------------
<BANKED_CODE,BANK_RELAYS..> 1 (was BANK_RELAYS)
  Relative segment, address: CODE 00000870 - 00000875 (0x6 bytes), align: 0
  Segment part 39.
           ENTRY                   ADDRESS         REF BY
           =====                   =======         ======
           macTxChannelBusyCallback::?relay
                                   00000870        macCspTxStopIsr (mac_csp_tx)
    -------------------------------------------------------------------------
<BANKED_CODE,BANK_RELAYS..> 1 (was BANK_RELAYS)
  Relative segment, address: CODE 00000876 - 0000087B (0x6 bytes), align: 0
  Segment part 41.
           ENTRY                   ADDRESS         REF BY
           =====                   =======         ======
           macTxDoneCallback::?relay
                                   00000876        macCspForceTxDoneIfPending (mac_csp_tx)
                                                   macCspTxStopIsr (mac_csp_tx)
    -------------------------------------------------------------------------
<BANKED_CODE,BANK_RELAYS..> 1 (was BANK_RELAYS)
  Relative segment, address: CODE 0000087C - 00000881 (0x6 bytes), align: 0
  Segment part 43.
           ENTRY                   ADDRESS         REF BY
           =====                   =======         ======
           macTxAckReceivedCallback::?relay
                                   0000087C        rxStartIsr (mac_rx)
    -------------------------------------------------------------------------
<BANKED_CODE,BANK_RELAYS..> 1 (was BANK_RELAYS)
  Relative segment, address: CODE 00000882 - 00000887 (0x6 bytes), align: 0
  Segment part 46.
           ENTRY                   ADDRESS         REF BY
           =====                   =======         ======
           macTxAckNotReceivedCallback::?relay
                                   00000882        macCspTxStopIsr (mac_csp_tx)
                                                   rxStartIsr (mac_rx)
    -------------------------------------------------------------------------
<BANKED_CODE,BANK_RELAYS..> 1 (was BANK_RELAYS)
  Relative segment, address: CODE 00000888 - 0000088D (0x6 bytes), align: 0
  Segment part 48.            Intra module refs:   macTxAckNotReceivedCallback
                                                   macTxAckReceivedCallback
                                                   macTxChannelBusyCallback
                                                   macTxDoneCallback
                                                   macTxFrame
                                                   txCsmaGo
           LOCAL                   ADDRESS         
           =====                   =======         
           txComplete::?relay      00000888 
    -------------------------------------------------------------------------
<BANKED_CODE,BANK_RELAYS..> 1 (was BANK_RELAYS)
  Relative segment, address: CODE 0000088E - 00000893 (0x6 bytes), align: 0
  Segment part 50.
           ENTRY                   ADDRESS         REF BY
           =====                   =======         ======
           macTxTimestampCallback::?relay
                                   0000088E        macCspTxIntIsr (mac_csp_tx)

    *************************************************************************

  FILE NAME : C:\ZStack-CC2530-2.5.1a\Projects\zstack\Samples\Òº¾§ÏÔÊ¾Ä£×é¿ØÖÆÊµ¼ù\CC2530DB\CoordinatorEB\Obj\nwk_globals.r51
  PROGRAM MODULE, NAME : nwk_globals

  SEGMENTS IN THE MODULE
  ======================
<BANKED_CODE,BANK_RELAYS..> 1 (was CODE_C)
  Relative segment, address: CODE 00000A5F - 00000A5F (0x1 bytes), align: 0
  Segment part 29.
           ENTRY                   ADDRESS         REF BY
           =====                   =======         ======
           gMAX_BROADCAST_QUEUED   00000A5F        nwk_broadcastSend (nwk)

    *************************************************************************

  FILE NAME : C:\ZStack-CC2530-2.5.1a\Projects\zstack\Samples\Òº¾§ÏÔÊ¾Ä£×é¿ØÖÆÊµ¼ù\CC2530DB\CoordinatorEB\Obj\saddr.r51
  PROGRAM MODULE, NAME : saddr

  SEGMENTS IN THE MODULE
  ======================
<BANKED_CODE,BANK_RELAYS..> 1 (was BANKED_CODE)
  Relative segment, address: CODE 00003676 - 00003697 (0x22 bytes), align: 0
  Segment part 17.            Intra module refs:   sAddrExtCpy::?relay
           ENTRY                   ADDRESS         REF BY
           =====                   =======         ======
           sAddrExtCpy             00003676 
               calls direct
               XSTACK = 00000000 ( 0000000E )
    -------------------------------------------------------------------------
<BANKED_CODE,BANK_RELAYS..> 1 (was BANK_RELAYS)
  Relative segment, address: CODE 00000894 - 00000899 (0x6 bytes), align: 0
  Segment part 18.
           ENTRY                   ADDRESS         REF BY
           =====                   =======         ======
           sAddrExtCpy::?relay     00000894        ?Subroutine20 (mac_rx)
                                                   macCommStatusInd (mac_beacon)

    *************************************************************************

  FILE NAME : C:\ZStack-CC2530-2.5.1a\Projects\zstack\Samples\Òº¾§ÏÔÊ¾Ä£×é¿ØÖÆÊµ¼ù\CC2530DB\CoordinatorEB\Obj\stub_aps.r51
    *************************************************************************

  FILE NAME : C:\ZStack-CC2530-2.5.1a\Projects\zstack\Samples\Òº¾§ÏÔÊ¾Ä£×é¿ØÖÆÊµ¼ù\CC2530DB\CoordinatorEB\Obj\zmac.r51
  PROGRAM MODULE, NAME : zmac

  SEGMENTS IN THE MODULE
  ======================
XDATA_Z
  Relative segment, address: XDATA 00000612 - 00000613 (0x2 bytes), align: 0
  Segment part 7.
           ENTRY                   ADDRESS         REF BY
           =====                   =======         ======
           ZMac_ScanBuf            00000612        MAC_CbackEvent (zmac_cb)

    *************************************************************************

  FILE NAME : C:\ZStack-CC2530-2.5.1a\Projects\zstack\Samples\Òº¾§ÏÔÊ¾Ä£×é¿ØÖÆÊµ¼ù\CC2530DB\CoordinatorEB\Obj\zmac_cb.r51
  PROGRAM MODULE, NAME : zmac_cb

  SEGMENTS IN THE MODULE
  ======================
<BANKED_CODE,BANK_RELAYS..> 1 (was CODE_C)
  Relative segment, address: CODE 00000A0F - 00000A1F (0x11 bytes), align: 0
  Segment part 7.             Intra module refs:   ?Subroutine11
           ENTRY                   ADDRESS         REF BY
           =====                   =======         ======
           zmacCBSizeTable         00000A0F 
    -------------------------------------------------------------------------
XDATA_Z
  Relative segment, address: XDATA 00000614 - 00000614 (0x1 bytes), align: 0
  Segment part 8.             Intra module refs:   ZMacLqiAdjust
           LOCAL                   ADDRESS         
           =====                   =======         
           lqiAdjMode              00000614 
    -------------------------------------------------------------------------
XDATA_Z
  Relative segment, address: XDATA 00000615 - 00000616 (0x2 bytes), align: 0
  Segment part 9.             Intra module refs:   MAC_CbackEvent
           ENTRY                   ADDRESS         REF BY
           =====                   =======         ======
           pZMac_AppCallback       00000615 
    -------------------------------------------------------------------------
<BANKED_CODE,BANK_RELAYS..> 1 (was BANKED_CODE)
  Relative segment, address: CODE 00001DA7 - 00002126 (0x380 bytes), align: 0
  Segment part 10.            Intra module refs:   MAC_CbackEvent::?relay
           ENTRY                   ADDRESS         REF BY
           =====                   =======         ======
           MAC_CbackEvent          00001DA7 
               calls direct
               XSTACK = 00000000 ( 00000019 )
    -------------------------------------------------------------------------
<BANKED_CODE,BANK_RELAYS..> 1 (was BANKED_CODE)
  Relative segment, address: CODE 00002127 - 00002131 (0xb bytes), align: 0
  Segment part 12.            Intra module refs:   MAC_CbackEvent
           LOCAL                   ADDRESS         
           =====                   =======         
           ?Subroutine15           00002127 
    -------------------------------------------------------------------------
<BANKED_CODE,BANK_RELAYS..> 1 (was BANKED_CODE)
  Relative segment, address: CODE 00002132 - 0000213C (0xb bytes), align: 0
  Segment part 13.            Intra module refs:   MAC_CbackEvent
           LOCAL                   ADDRESS         
           =====                   =======         
           ?Subroutine14           00002132 
    -------------------------------------------------------------------------
<BANKED_CODE,BANK_RELAYS..> 1 (was BANKED_CODE)
  Relative segment, address: CODE 0000213D - 0000213D (0x1 bytes), align: 0
  Segment part 14.            Intra module refs:   MAC_CbackEvent
           LOCAL                   ADDRESS         
           =====                   =======         
           ?Subroutine13           0000213D 
    -------------------------------------------------------------------------
<BANKED_CODE,BANK_RELAYS..> 1 (was BANKED_CODE)
  Relative segment, address: CODE 0000213E - 00002143 (0x6 bytes), align: 0
  Segment part 15.            Intra module refs:   ?Subroutine13
                                                   MAC_CbackEvent
    -------------------------------------------------------------------------
<BANKED_CODE,BANK_RELAYS..> 1 (was BANKED_CODE)
  Relative segment, address: CODE 00002144 - 0000214D (0xa bytes), align: 0
  Segment part 16.            Intra module refs:   MAC_CbackEvent
           LOCAL                   ADDRESS         
           =====                   =======         
           ?Subroutine12           00002144 
    -------------------------------------------------------------------------
<BANKED_CODE,BANK_RELAYS..> 1 (was BANKED_CODE)
  Relative segment, address: CODE 0000214E - 0000215C (0xf bytes), align: 0
  Segment part 17.            Intra module refs:   MAC_CbackEvent
           LOCAL                   ADDRESS         
           =====                   =======         
           ?Subroutine11           0000214E 
    -------------------------------------------------------------------------
<BANKED_CODE,BANK_RELAYS..> 1 (was BANKED_CODE)
  Relative segment, address: CODE 0000215D - 0000216B (0xf bytes), align: 0
  Segment part 18.            Intra module refs:   MAC_CbackEvent
           LOCAL                   ADDRESS         
           =====                   =======         
           ?Subroutine10           0000215D 
    -------------------------------------------------------------------------
<BANKED_CODE,BANK_RELAYS..> 1 (was BANKED_CODE)
  Relative segment, address: CODE 0000216C - 00002177 (0xc bytes), align: 0
  Segment part 19.            Intra module refs:   MAC_CbackEvent
           LOCAL                   ADDRESS         
           =====                   =======         
           ?Subroutine9            0000216C 
    -------------------------------------------------------------------------
<BANKED_CODE,BANK_RELAYS..> 1 (was BANKED_CODE)
  Relative segment, address: CODE 00002178 - 00002187 (0x10 bytes), align: 0
  Segment part 20.            Intra module refs:   MAC_CbackEvent
           LOCAL                   ADDRESS         
           =====                   =======         
           ?Subroutine8            00002178 
    -------------------------------------------------------------------------
<BANKED_CODE,BANK_RELAYS..> 1 (was BANKED_CODE)
  Relative segment, address: CODE 00002188 - 00002190 (0x9 bytes), align: 0
  Segment part 21.            Intra module refs:   MAC_CbackEvent
           LOCAL                   ADDRESS         
           =====                   =======         
           ?Subroutine7            00002188 
    -------------------------------------------------------------------------
<BANKED_CODE,BANK_RELAYS..> 1 (was BANKED_CODE)
  Relative segment, address: CODE 00002191 - 00002194 (0x4 bytes), align: 0
  Segment part 22.            Intra module refs:   MAC_CbackEvent
           LOCAL                   ADDRESS         
           =====                   =======         
           ?Subroutine6            00002191 
    -------------------------------------------------------------------------
<BANKED_CODE,BANK_RELAYS..> 1 (was BANKED_CODE)
  Relative segment, address: CODE 00002195 - 00002198 (0x4 bytes), align: 0
  Segment part 23.            Intra module refs:   ?Subroutine1
                                                   ?Subroutine6
           LOCAL                   ADDRESS         
           =====                   =======         
           ?Subroutine18           00002195 
    -------------------------------------------------------------------------
<BANKED_CODE,BANK_RELAYS..> 1 (was BANKED_CODE)
  Relative segment, address: CODE 00002199 - 000021A8 (0x10 bytes), align: 0
  Segment part 24.            Intra module refs:   ?Subroutine16
                                                   ?Subroutine18
           LOCAL                   ADDRESS         
           =====                   =======         
           ?Subroutine20           00002199 
    -------------------------------------------------------------------------
<BANKED_CODE,BANK_RELAYS..> 1 (was BANKED_CODE)
  Relative segment, address: CODE 000021A9 - 000021AC (0x4 bytes), align: 0
  Segment part 25.            Intra module refs:   MAC_CbackEvent
           LOCAL                   ADDRESS         
           =====                   =======         
           ?Subroutine5            000021A9 
    -------------------------------------------------------------------------
<BANKED_CODE,BANK_RELAYS..> 1 (was BANKED_CODE)
  Relative segment, address: CODE 000021AD - 000021B2 (0x6 bytes), align: 0
  Segment part 26.            Intra module refs:   ?Subroutine2
                                                   ?Subroutine5
           LOCAL                   ADDRESS         
           =====                   =======         
           ?Subroutine16           000021AD 
    -------------------------------------------------------------------------
<BANKED_CODE,BANK_RELAYS..> 1 (was BANKED_CODE)
  Relative segment, address: CODE 000021B3 - 000021BF (0xd bytes), align: 0
  Segment part 27.            Intra module refs:   MAC_CbackEvent
           LOCAL                   ADDRESS         
           =====                   =======         
           ?Subroutine4            000021B3 
    -------------------------------------------------------------------------
<BANKED_CODE,BANK_RELAYS..> 1 (was BANKED_CODE)
  Relative segment, address: CODE 000021C0 - 000021CB (0xc bytes), align: 0
  Segment part 28.            Intra module refs:   MAC_CbackEvent
           LOCAL                   ADDRESS         
           =====                   =======         
           ?Subroutine3            000021C0 
    -------------------------------------------------------------------------
<BANKED_CODE,BANK_RELAYS..> 1 (was BANKED_CODE)
  Relative segment, address: CODE 000021CC - 000021D2 (0x7 bytes), align: 0
  Segment part 29.            Intra module refs:   MAC_CbackEvent
           LOCAL                   ADDRESS         
           =====                   =======         
           ?Subroutine2            000021CC 
    -------------------------------------------------------------------------
<BANKED_CODE,BANK_RELAYS..> 1 (was BANKED_CODE)
  Relative segment, address: CODE 000021D3 - 000021D3 (0x1 bytes), align: 0
  Segment part 30.            Intra module refs:   ?Subroutine2
                                                   MAC_CbackEvent
           LOCAL                   ADDRESS         
           =====                   =======         
           ?Subroutine19           000021D3 
    -------------------------------------------------------------------------
<BANKED_CODE,BANK_RELAYS..> 1 (was BANKED_CODE)
  Relative segment, address: CODE 000021D4 - 000021D4 (0x1 bytes), align: 0
  Segment part 31.            Intra module refs:   ?Subroutine19
                                                   ?Subroutine4
    -------------------------------------------------------------------------
<BANKED_CODE,BANK_RELAYS..> 1 (was BANKED_CODE)
  Relative segment, address: CODE 000021D5 - 000021DA (0x6 bytes), align: 0
  Segment part 32.            Intra module refs:   MAC_CbackEvent
                                                   Segment part 31
    -------------------------------------------------------------------------
<BANKED_CODE,BANK_RELAYS..> 1 (was BANKED_CODE)
  Relative segment, address: CODE 000021DB - 000021E3 (0x9 bytes), align: 0
  Segment part 33.            Intra module refs:   MAC_CbackEvent
           LOCAL                   ADDRESS         
           =====                   =======         
           ?Subroutine1            000021DB 
    -------------------------------------------------------------------------
<BANKED_CODE,BANK_RELAYS..> 1 (was BANKED_CODE)
  Relative segment, address: CODE 000021E4 - 000021EB (0x8 bytes), align: 0
  Segment part 34.            Intra module refs:   ?Subroutine1
                                                   MAC_CbackEvent
           LOCAL                   ADDRESS         
           =====                   =======         
           ?Subroutine17           000021E4 
    -------------------------------------------------------------------------
<BANKED_CODE,BANK_RELAYS..> 1 (was BANKED_CODE)
  Relative segment, address: CODE 000021EC - 000021F2 (0x7 bytes), align: 0
  Segment part 35.            Intra module refs:   MAC_CbackCheckPending::?relay
           ENTRY                   ADDRESS         REF BY
           =====                   =======         ======
           MAC_CbackCheckPending   000021EC 
               calls direct
               ISTACK = 00000000 ( 00000002 )
    -------------------------------------------------------------------------
<BANKED_CODE,BANK_RELAYS..> 1 (was BANKED_CODE)
  Relative segment, address: CODE 000021F3 - 000021F9 (0x7 bytes), align: 0
  Segment part 37.            Intra module refs:   MAC_CbackCheckPending
           LOCAL                   ADDRESS         
           =====                   =======         
           ?Subroutine0            000021F3 
    -------------------------------------------------------------------------
<BANKED_CODE,BANK_RELAYS..> 1 (was BANKED_CODE)
  Relative segment, address: CODE 000021FA - 00002263 (0x6a bytes), align: 0
  Segment part 40.            Intra module refs:   ZMacLqiAdjust::?relay
           LOCAL                   ADDRESS         
           =====                   =======         
           ZMacLqiAdjust           000021FA 
               XSTACK = 00000016 ( 0000000A )
               ISTACK = 00000000 ( 00000001 )
    -------------------------------------------------------------------------
<BANKED_CODE,BANK_RELAYS..> 1 (was BANK_RELAYS)
  Relative segment, address: CODE 0000089A - 0000089F (0x6 bytes), align: 0
  Segment part 11.
           ENTRY                   ADDRESS         REF BY
           =====                   =======         ======
           MAC_CbackEvent::?relay
                                   0000089A        Segment part 472 (mac_beacon)
                                                   macCbackForEvent (mac_beacon)
                                                   macRxCompleteCallback (mac_beacon)
    -------------------------------------------------------------------------
<BANKED_CODE,BANK_RELAYS..> 1 (was BANK_RELAYS)
  Relative segment, address: CODE 000008A0 - 000008A5 (0x6 bytes), align: 0
  Segment part 36.
           ENTRY                   ADDRESS         REF BY
           =====                   =======         ======
           MAC_CbackCheckPending::?relay
                                   000008A0        macRxCheckPendingCallback (mac_beacon)
    -------------------------------------------------------------------------
<BANKED_CODE,BANK_RELAYS..> 1 (was BANK_RELAYS)
  Relative segment, address: CODE 000008A6 - 000008AB (0x6 bytes), align: 0
  Segment part 41.            Intra module refs:   ?Subroutine12
           LOCAL                   ADDRESS         
           =====                   =======         
           ZMacLqiAdjust::?relay   000008A6 

    *************************************************************************

  FILE NAME : D:\Program Files (x86)\IAR Systems\Embedded Workbench 6.0 Evaluation\8051\LIB\CLIB\cl-pli-blxd-1e16x01.r51
  LIBRARY MODULE, NAME : ?cexit

  SEGMENTS IN THE MODULE
  ======================
<BANKED_CODE,BANK_RELAYS..> 1 (was CSTART)
  Relative segment, address: CODE 00000978 - 0000097C (0x5 bytes), align: 0
  Segment part 0.
           ENTRY                   ADDRESS         REF BY
           =====                   =======         ======
           exit                    00000978        ?call_main (?cmain)
           ?C_EXIT                 00000978 
           ?ROM_MONITOR_NOPS       00000978 

    -------------------------------------------------------------------------
  LIBRARY MODULE, NAME : ?cmain

  SEGMENTS IN THE MODULE
  ======================
<BANKED_CODE,BANK_RELAYS..> 1 (was CSTART)
  Relative segment, address: CODE 0000034A, align: 0
  Segment part 0.
           ENTRY                   ADDRESS         REF BY
           =====                   =======         ======
           ?cmain                  0000034A        __call_main (CSTARTUP)
    -------------------------------------------------------------------------
<BANKED_CODE,BANK_RELAYS..> 1 (was CSTART)
  Relative segment, address: CODE 0000034A - 00000352 (0x9 bytes), align: 0
  Segment part 1.
           ENTRY                   ADDRESS         REF BY
           =====                   =======         ======
           __low_level_init_call   0000034A        __low_level_init (hal_startup)
    -------------------------------------------------------------------------
<BANKED_CODE,BANK_RELAYS..> 1 (was CSTART)
  Relative segment, address: CODE 00000353 - 00000362 (0x10 bytes), align: 0
  Segment part 11.
           ENTRY                   ADDRESS         REF BY
           =====                   =======         ======
           __INIT_XDATA_Z          00000353        Hal_TaskID (hal_drivers)
                                                   NWK_TaskID (nwk)
                                                   Segment part 19 (nwk)
                                                   Segment part 76 (mac_beacon)
                                                   ZMac_ScanBuf (zmac)
                                                   _NIB (nwk)
                                                   accumulatedOverflowCount (mac_mcu)
                                                   backoffTimerRollover (mac_backoff_timer)
                                                   backoffTimerTrigger (mac_backoff_timer)
                                                   dmaCfg (hal_uart)
                                                   lqiAdjMode (zmac_cb)
                                                   macChipVersion (mac_mcu)
                                                   macData (mac_beacon)
                                                   macDataCheckTxTime (mac_beacon)
                                                   macMain (mac_beacon)
                                                   macPhyChannel (mac_radio)
                                                   macPhyTxPower (mac_radio)
                                                   macPib (mac_pib)
                                                   macRadioDefsRefTableId (mac_radio_defs)
                                                   macRxActive (mac_rx)
                                                   macRxEnableFlags (mac_rx_onoff)
                                                   macRxFilter (mac_rx)
                                                   macRxOnFlag (mac_rx_onoff)
                                                   macRxOutgoingAckFlag (mac_rx)
                                                   macSrcMatchIsAckAllPending (mac_autopend)
                                                   macSrcMatchIsEnabled (mac_autopend)
                                                   macTaskId (mac_beacon)
                                                   macTxActive (mac_tx)
                                                   macTxBe (mac_tx)
                                                   macTxCsmaBackoffDelay (mac_tx)
                                                   macTxType (mac_tx)
                                                   maxRssi (mac_mcu)
                                                   nb (mac_tx)
                                                   osalMemStat (OSAL_Memory)
                                                   osal_qHead (OSAL)
                                                   pFuncRxState (mac_rx)
                                                   pMacDataTx (mac_beacon)
                                                   pRxBuf (mac_rx)
                                                   pZMac_AppCallback (zmac_cb)
                                                   reqChannel (mac_radio)
                                                   reqTxPower (mac_radio)
                                                   rxBuf (mac_rx)
                                                   rxFifoOverflowCount (mac_rx)
                                                   rxFilter (mac_rx)
                                                   rxIsrActiveFlag (mac_rx)
                                                   rxNextLen (mac_rx)
                                                   rxPayloadLen (mac_rx)
                                                   rxPromiscuousMode (mac_rx)
                                                   rxResetFlag (mac_rx)
                                                   rxUnreadLen (mac_rx)
                                                   tasksEvents (OSAL_GenericApp)
                                                   timerAlignedQ (mac_beacon)
                                                   timerHead (OSAL_Timers)
                                                   timerUnalignedQ (mac_beacon)
                                                   txAckReq (mac_tx)
                                                   txRetransmitFlag (mac_tx)
                                                   txSeqn (mac_tx)
                                                   updateRolloverflag (mac_mcu)
    -------------------------------------------------------------------------
<BANKED_CODE,BANK_RELAYS..> 1 (was CSTART)
  Relative segment, address: CODE 00000363 - 0000038B (0x29 bytes), align: 0
  Segment part 28.
           ENTRY                   ADDRESS         REF BY
           =====                   =======         ======
           __INIT_XDATA_I          00000363        Segment part 72 (mac_beacon)
                                                   Segment part 74 (mac_beacon)
                                                   macDataBeaconRequeue (mac_beacon)
                                                   macDataRequeueIndirect (mac_beacon)
                                                   macDataRxBeaconCritical (mac_beacon)
                                                   macDataTxBeaconComplete (mac_beacon)
                                                   macSleepState (mac_sleep)
                                                   maxSleepLoopTime (hal_sleep)
    -------------------------------------------------------------------------
<BANKED_CODE,BANK_RELAYS..> 1 (was CSTART)
  Relative segment, address: CODE 0000038C, align: 0
  Segment part 32.            Intra module refs:   __low_level_init_call
    -------------------------------------------------------------------------
<BANKED_CODE,BANK_RELAYS..> 1 (was CSTART)
  Relative segment, address: CODE 0000038C - 000003A1 (0x16 bytes), align: 0
  Segment part 33.            Intra module refs:   ?cmain
           ENTRY                   ADDRESS         REF BY
           =====                   =======         ======
           ?call_main              0000038C 

    -------------------------------------------------------------------------
  LIBRARY MODULE, NAME : ?BANKED_CODE_SUPPORT

  SEGMENTS IN THE MODULE
  ======================
<BANKED_CODE,BANK_RELAYS..> 1 (was CSTART)
  Relative segment, address: CODE 000004BC - 000004D9 (0x1e bytes), align: 0
  Segment part 0.
           ENTRY                   ADDRESS         REF BY
           =====                   =======         ======
           ?BCALL_FF               000004BC        ?call_main (?cmain)
           ?BRET_FF                000004C2        ?BANKED_LEAVE_XDATA (?BANKED_LEAVE_XDATA)
                                                   ?Subroutine0 (OSAL)
                                                   ?Subroutine0 (OSAL_Timers)
                                                   ?Subroutine0 (hal_key)
                                                   ?Subroutine0 (mac_autopend)
                                                   ?Subroutine0 (mac_radio_defs)
                                                   ?Subroutine0 (zmac_cb)
                                                   MAC_RfFrontendSetup (mac_rffrontend)
                                                   Segment part 15 (mac_rx_onoff)
                                                   Segment part 19 (mac_radio)
                                                   Segment part 20 (mac_backoff_timer)
                                                   Segment part 32 (mac_csp_tx)
                                                   Segment part 34 (mac_tx)
                                                   Segment part 383 (nwk)
                                                   Segment part 406 (mac_beacon)
                                                   Segment part 43 (mac_mcu)
                                                   Segment part 54 (hal_uart)
                                                   Segment part 74 (mac_rx)
                                                   cspReadCountSymbols (mac_csp_tx)
                                                   halAssertHandler (hal_assert)
                                                   macBackoffTimerCancelTrigger (mac_backoff_timer)
                                                   macMcuRandomByte (mac_mcu)
                                                   macMcuTimerCapture (mac_mcu)
                                                   macNoAction (mac_beacon)
                                                   macPibIndex (mac_pib)
                                                   nwkDB_ReturnIndirectHoldingCnt (nwk)
                                                   radioComputeED (mac_radio)
           ?BDISPATCH_FF           000004C5        HalUARTIsrDMA::?relay (hal_uart)
                                                   MAC_CbackCheckPending::?relay (zmac_cb)
                                                   MAC_CbackEvent::?relay (zmac_cb)
                                                   MAC_MlmeGetReq::?relay (mac_pib)
                                                   MAC_RfFrontendSetup::?relay (mac_rffrontend)
                                                   MAC_SetRadioRegTable::?relay (mac_radio_defs)
                                                   MAC_SrcMatchCheckAllPending::?relay (mac_autopend)
                                                   MAC_SrcMatchCheckResult::?relay (mac_autopend)
                                                   ZMacLqiAdjust::?relay (zmac_cb)
                                                   cspPrepForTxProgram::?relay (mac_csp_tx)
                                                   cspReadCountSymbols::?relay (mac_csp_tx)
                                                   halAssertHandler::?relay (hal_assert)
                                                   halAssertHazardLights::?relay (hal_assert)
                                                   halProcessKeyInterrupt::?relay (hal_key)
                                                   halSetMaxSleepLoopTime::?relay (hal_sleep)
                                                   macBackoffTimerCancelTrigger::?relay (mac_backoff_timer)
                                                   macBackoffTimerCapture::?relay (mac_backoff_timer)
                                                   macBackoffTimerCompareIsr::?relay (mac_backoff_timer)
                                                   macBackoffTimerCount::?relay (mac_backoff_timer)
                                                   macBackoffTimerPeriodIsr::?relay (mac_backoff_timer)
                                                   macBackoffTimerRolloverCallback::?relay (mac_beacon)
                                                   macBackoffTimerSetRollover::?relay (mac_backoff_timer)
                                                   macBackoffTimerSetTrigger::?relay (mac_backoff_timer)
                                                   macBackoffTimerTriggerCallback::?relay (mac_beacon)
                                                   macCbackForEvent::?relay (mac_beacon)
                                                   macCommStatusInd::?relay (mac_beacon)
                                                   macCspForceTxDoneIfPending::?relay (mac_csp_tx)
                                                   macCspTxCancelAckTimeoutCallback::?relay (mac_csp_tx)
                                                   macCspTxGoCsma::?relay (mac_csp_tx)
                                                   macCspTxGoSlotted::?relay (mac_csp_tx)
                                                   macCspTxIntIsr::?relay (mac_csp_tx)
                                                   macCspTxPrepCsmaSlotted::?relay (mac_csp_tx)
                                                   macCspTxPrepCsmaUnslotted::?relay (mac_csp_tx)
                                                   macCspTxPrepSlotted::?relay (mac_csp_tx)
                                                   macCspTxRequestAckTimeoutCallback::?relay (mac_csp_tx)
                                                   macCspTxStopIsr::?relay (mac_csp_tx)
                                                   macDataRxMemAlloc::?relay (mac_beacon)
                                                   macDataRxMemFree::?relay (mac_beacon)
                                                   macDataTxComplete::?relay (mac_beacon)
                                                   macDataTxTimeAvailable::?relay (mac_beacon)
                                                   macGetBackOffTimerRollover::?relay (mac_backoff_timer)
                                                   macMcuAccumulatedOverFlow::?relay (mac_mcu)
                                                   macMcuOverflowCapture::?relay (mac_mcu)
                                                   macMcuOverflowCount::?relay (mac_mcu)
                                                   macMcuOverflowSetCompare::?relay (mac_mcu)
                                                   macMcuOverflowSetPeriod::?relay (mac_mcu)
                                                   macMcuRandomByte::?relay (mac_mcu)
                                                   macMcuTimerCapture::?relay (mac_mcu)
                                                   macMemReadRxFifo::?relay (mac_mem)
                                                   macMemWriteTxFifo::?relay (mac_mem)
                                                   macNoAction::?relay (mac_beacon)
                                                   macPibIndex::?relay (mac_pib)
                                                   macRadioComputeLQI::?relay (mac_radio)
                                                   macRadioRandomByte::?relay (mac_radio)
                                                   macRadioSetChannel::?relay (mac_radio)
                                                   macRadioSetTxPower::?relay (mac_radio)
                                                   macRadioUpdateChannel::?relay (mac_radio)
                                                   macRadioUpdateTxPower::?relay (mac_radio)
                                                   macRxAckTxDoneCallback::?relay (mac_rx)
                                                   macRxCheckMACPendingCallback::?relay (mac_beacon)
                                                   macRxCheckPendingCallback::?relay (mac_beacon)
                                                   macRxCompleteCallback::?relay (mac_beacon)
                                                   macRxFifoOverflowIsr::?relay (mac_rx)
                                                   macRxHaltCleanup::?relay (mac_rx)
                                                   macRxHardDisable::?relay (mac_rx_onoff)
                                                   macRxOff::?relay (mac_rx_onoff)
                                                   macRxOffRequest::?relay (mac_rx_onoff)
                                                   macRxOn::?relay (mac_rx_onoff)
                                                   macRxOnRequest::?relay (mac_rx_onoff)
                                                   macRxThresholdIsr::?relay (mac_rx)
                                                   macSecCpy::?relay (mac_beacon)
                                                   macSetEvent::?relay (mac_beacon)
                                                   macStateIdle::?relay (mac_beacon)
                                                   macStateScanning::?relay (mac_beacon)
                                                   macTimerCancel::?relay (mac_beacon)
                                                   macTimerRecalcUnaligned::?relay (mac_beacon)
                                                   macTimerRemoveTimer::?relay (mac_beacon)
                                                   macTimerUpdateBackoffTimer::?relay (mac_beacon)
                                                   macTxAckNotReceivedCallback::?relay (mac_tx)
                                                   macTxAckReceivedCallback::?relay (mac_tx)
                                                   macTxChannelBusyCallback::?relay (mac_tx)
                                                   macTxCompleteCallback::?relay (mac_beacon)
                                                   macTxDoneCallback::?relay (mac_tx)
                                                   macTxFrame::?relay (mac_tx)
                                                   macTxFrameRetransmit::?relay (mac_tx)
                                                   macTxStartQueuedFrame::?relay (mac_tx)
                                                   macTxTimestampCallback::?relay (mac_tx)
                                                   mac_msg_deallocate::?relay (mac_beacon)
                                                   nwkDB_ReturnIndirectHoldingCnt::?relay (nwk)
                                                   nwk_broadcastSend::?relay (nwk)
                                                   osalAddTimer::?relay (OSAL_Timers)
                                                   osalFindTimer::?relay (OSAL_Timers)
                                                   osal_mem_alloc::?relay (OSAL_Memory)
                                                   osal_mem_free::?relay (OSAL_Memory)
                                                   osal_memcpy::?relay (OSAL)
                                                   osal_msg_allocate::?relay (OSAL)
                                                   osal_msg_deallocate::?relay (OSAL)
                                                   osal_msg_enqueue::?relay (OSAL)
                                                   osal_msg_enqueue_max::?relay (OSAL)
                                                   osal_msg_send::?relay (OSAL)
                                                   osal_set_event::?relay (OSAL)
                                                   osal_start_timerEx::?relay (OSAL_Timers)
                                                   radioComputeED::?relay (mac_radio)
                                                   rxAddrIsr::?relay (mac_rx)
                                                   rxDiscardFrame::?relay (mac_rx)
                                                   rxDiscardIsr::?relay (mac_rx)
                                                   rxDone::?relay (mac_rx)
                                                   rxFcsIsr::?relay (mac_rx)
                                                   rxHaltCleanupFinalStep::?relay (mac_rx)
                                                   rxPayloadIsr::?relay (mac_rx)
                                                   rxPostRxUpdates::?relay (mac_rx)
                                                   rxPrepPayload::?relay (mac_rx)
                                                   rxStartIsr::?relay (mac_rx)
                                                   sAddrExtCpy::?relay (saddr)
                                                   txComplete::?relay (mac_tx)
                                                   txCsmaGo::?relay (mac_tx)
                                                   txCsmaPrep::?relay (mac_tx)
                                                   txGo::?relay (mac_tx)

    -------------------------------------------------------------------------
  LIBRARY MODULE, NAME : ?L_EQ

  SEGMENTS IN THE MODULE
  ======================
<BANKED_CODE,BANK_RELAYS..> 1 (was RCODE)
  Relative segment, address: CODE 00000582 - 00000596 (0x15 bytes), align: 0
  Segment part 1.
           ENTRY                   ADDRESS         REF BY
           =====                   =======         ======
           ?L_EQ                   00000582        macBackoffTimerSetTrigger (mac_backoff_timer)

    -------------------------------------------------------------------------
  LIBRARY MODULE, NAME : ?L_EQ_X

  SEGMENTS IN THE MODULE
  ======================
<BANKED_CODE,BANK_RELAYS..> 1 (was RCODE)
  Relative segment, address: CODE 0000056D - 00000581 (0x15 bytes), align: 0
  Segment part 1.
           ENTRY                   ADDRESS         REF BY
           =====                   =======         ======
           ?L_EQ_X                 0000056D        macBackoffTimerRolloverCallback (mac_beacon)

    -------------------------------------------------------------------------
  LIBRARY MODULE, NAME : ?SL_GT_X

  SEGMENTS IN THE MODULE
  ======================
<BANKED_CODE,BANK_RELAYS..> 1 (was RCODE)
  Relative segment, address: CODE 00000558 - 0000056C (0x15 bytes), align: 0
  Segment part 1.
           ENTRY                   ADDRESS         REF BY
           =====                   =======         ======
           ?SL_GT_X                00000558        macBackoffTimerRolloverCallback (mac_beacon)
                                                   macBackoffTimerTriggerCallback (mac_beacon)
                                                   macTimerRecalcUnaligned (mac_beacon)
                                                   macTimerUpdateBackoffTimer (mac_beacon)

    -------------------------------------------------------------------------
  LIBRARY MODULE, NAME : ?UL_GT

  SEGMENTS IN THE MODULE
  ======================
<BANKED_CODE,BANK_RELAYS..> 1 (was RCODE)
  Relative segment, address: CODE 0000062C - 0000063B (0x10 bytes), align: 0
  Segment part 1.
           ENTRY                   ADDRESS         REF BY
           =====                   =======         ======
           ?UL_GT                  0000062C        macBackoffTimerSetRollover (mac_backoff_timer)

    -------------------------------------------------------------------------
  LIBRARY MODULE, NAME : ?UL_GT_X

  SEGMENTS IN THE MODULE
  ======================
<BANKED_CODE,BANK_RELAYS..> 1 (was RCODE)
  Relative segment, address: CODE 0000063C - 0000064B (0x10 bytes), align: 0
  Segment part 1.
           ENTRY                   ADDRESS         REF BY
           =====                   =======         ======
           ?UL_GT_X                0000063C        halAssertHazardLights (hal_assert)

    -------------------------------------------------------------------------
  LIBRARY MODULE, NAME : ?UL_GE_X

  SEGMENTS IN THE MODULE
  ======================
<BANKED_CODE,BANK_RELAYS..> 1 (was RCODE)
  Relative segment, address: CODE 0000049D - 000004BB (0x1f bytes), align: 0
  Segment part 1.
           ENTRY                   ADDRESS         REF BY
           =====                   =======         ======
           ?UL_GE_X                0000049D        macBackoffTimerCapture (mac_backoff_timer)
                                                   macBackoffTimerCount (mac_backoff_timer)
                                                   macBackoffTimerSetTrigger (mac_backoff_timer)
                                                   macBackoffTimerTriggerCallback (mac_beacon)

    -------------------------------------------------------------------------
  LIBRARY MODULE, NAME : ?C_GPTR_LOAD

  SEGMENTS IN THE MODULE
  ======================
<BANKED_CODE,BANK_RELAYS..> 1 (was RCODE)
  Relative segment, address: CODE 000004F5 - 0000050E (0x1a bytes), align: 0
  Segment part 0.
           ENTRY                   ADDRESS         REF BY
           =====                   =======         ======
           ?C_GPTR_LOAD            000004F5        osal_memcpy (OSAL)

    -------------------------------------------------------------------------
  LIBRARY MODULE, NAME : ?L_NEG

  SEGMENTS IN THE MODULE
  ======================
<BANKED_CODE,BANK_RELAYS..> 1 (was RCODE)
  Relative segment, address: CODE 0000061B - 0000062B (0x11 bytes), align: 0
  Segment part 1.
           ENTRY                   ADDRESS         REF BY
           =====                   =======         ======
           ?L_NEG                  0000061B        macBackoffTimerRolloverCallback (mac_beacon)

    -------------------------------------------------------------------------
  LIBRARY MODULE, NAME : ?L_ADD_X

  SEGMENTS IN THE MODULE
  ======================
<BANKED_CODE,BANK_RELAYS..> 1 (was RCODE)
  Relative segment, address: CODE 000005AB - 000005BD (0x13 bytes), align: 0
  Segment part 1.
           ENTRY                   ADDRESS         REF BY
           =====                   =======         ======
           ?L_ADD_X                000005AB        halSetMaxSleepLoopTime (hal_sleep)

    -------------------------------------------------------------------------
  LIBRARY MODULE, NAME : ?L_ADD_TO_X

  SEGMENTS IN THE MODULE
  ======================
<BANKED_CODE,BANK_RELAYS..> 1 (was RCODE)
  Relative segment, address: CODE 000005D1 - 000005E3 (0x13 bytes), align: 0
  Segment part 1.
           ENTRY                   ADDRESS         REF BY
           =====                   =======         ======
           ?L_ADD_TO_X             000005D1        halAssertHazardLights (hal_assert)
                                                   macMcuAccumulatedOverFlow (mac_mcu)
                                                   macTimerRecalcUnaligned (mac_beacon)

    -------------------------------------------------------------------------
  LIBRARY MODULE, NAME : ?L_SUB_FROM_X

  SEGMENTS IN THE MODULE
  ======================
<BANKED_CODE,BANK_RELAYS..> 1 (was RCODE)
  Relative segment, address: CODE 00000597 - 000005AA (0x14 bytes), align: 0
  Segment part 1.
           ENTRY                   ADDRESS         REF BY
           =====                   =======         ======
           ?L_SUB_FROM_X           00000597        macBackoffTimerRolloverCallback (mac_beacon)

    -------------------------------------------------------------------------
  LIBRARY MODULE, NAME : ?L_AND_X

  SEGMENTS IN THE MODULE
  ======================
<BANKED_CODE,BANK_RELAYS..> 1 (was RCODE)
  Relative segment, address: CODE 000005E4 - 000005F6 (0x13 bytes), align: 0
  Segment part 1.
           ENTRY                   ADDRESS         REF BY
           =====                   =======         ======
           ?L_AND_X                000005E4        macMcuOverflowSetCompare (mac_mcu)
                                                   macMcuOverflowSetPeriod (mac_mcu)

    -------------------------------------------------------------------------
  LIBRARY MODULE, NAME : ?L_MOV_X

  SEGMENTS IN THE MODULE
  ======================
<BANKED_CODE,BANK_RELAYS..> 1 (was RCODE)
  Relative segment, address: CODE 0000066B - 00000679 (0xf bytes), align: 0
  Segment part 0.
           ENTRY                   ADDRESS         REF BY
           =====                   =======         ======
           ?L_MOV_X                0000066B        halAssertHazardLights (hal_assert)
                                                   macBackoffTimerRolloverCallback (mac_beacon)
                                                   macBackoffTimerTriggerCallback (mac_beacon)
                                                   macMcuOverflowSetCompare (mac_mcu)
                                                   macMcuOverflowSetPeriod (mac_mcu)
                                                   macTimerRecalcUnaligned (mac_beacon)
                                                   macTimerUpdateBackoffTimer (mac_beacon)

    -------------------------------------------------------------------------
  LIBRARY MODULE, NAME : ?L_MOV_TO_X

  SEGMENTS IN THE MODULE
  ======================
<BANKED_CODE,BANK_RELAYS..> 1 (was RCODE)
  Relative segment, address: CODE 0000065C - 0000066A (0xf bytes), align: 0
  Segment part 2.
           ENTRY                   ADDRESS         REF BY
           =====                   =======         ======
           ?L_MOV_TO_X             0000065C        halSetMaxSleepLoopTime (hal_sleep)
                                                   macBackoffTimerSetRollover (mac_backoff_timer)
                                                   macBackoffTimerSetTrigger (mac_backoff_timer)
                                                   macTimerUpdateBackoffTimer (mac_beacon)
                                                   macTxTimestampCallback (mac_tx)
                                                   rxStartIsr (mac_rx)

    -------------------------------------------------------------------------
  LIBRARY MODULE, NAME : ?XLOAD_R2345

  SEGMENTS IN THE MODULE
  ======================
<BANKED_CODE,BANK_RELAYS..> 1 (was RCODE)
  Relative segment, address: CODE 00000687 - 00000692 (0xc bytes), align: 0
  Segment part 0.
           ENTRY                   ADDRESS         REF BY
           =====                   =======         ======
           ?XLOAD_R2345            00000687        ?Subroutine0 (mac_backoff_timer)
                                                   ?Subroutine0 (mac_mcu)
                                                   halAssertHazardLights (hal_assert)
                                                   macBackoffTimerRolloverCallback (mac_beacon)
                                                   macCbackForEvent (mac_beacon)
                                                   macMcuOverflowSetPeriod (mac_mcu)
                                                   macTimerRecalcUnaligned (mac_beacon)
                                                   macTimerUpdateBackoffTimer (mac_beacon)

    -------------------------------------------------------------------------
  LIBRARY MODULE, NAME : ?XSTORE_R2345

  SEGMENTS IN THE MODULE
  ======================
<BANKED_CODE,BANK_RELAYS..> 1 (was RCODE)
  Relative segment, address: CODE 00000693 - 0000069E (0xc bytes), align: 0
  Segment part 0.
           ENTRY                   ADDRESS         REF BY
           =====                   =======         ======
           ?XSTORE_R2345           00000693        halAssertHazardLights (hal_assert)
                                                   macBackoffTimerRolloverCallback (mac_beacon)
                                                   macCbackForEvent (mac_beacon)
                                                   macTimerRecalcUnaligned (mac_beacon)

    -------------------------------------------------------------------------
  LIBRARY MODULE, NAME : ?MOVE_LONG8_XDATA_IDATA

  SEGMENTS IN THE MODULE
  ======================
<BANKED_CODE,BANK_RELAYS..> 1 (was RCODE)
  Relative segment, address: CODE 0000067A - 00000686 (0xd bytes), align: 0
  Segment part 0.
           ENTRY                   ADDRESS         REF BY
           =====                   =======         ======
           ?MOVE_LONG8_XDATA_IDATA
                                   0000067A        ?PUSH_XSTACK_I (?PUSH_XSTACK_I)

    -------------------------------------------------------------------------
  LIBRARY MODULE, NAME : ?MOVE_LONG8_XDATA_XDATA

  SEGMENTS IN THE MODULE
  ======================
<BANKED_CODE,BANK_RELAYS..> 1 (was RCODE)
  Relative segment, address: CODE 0000047C - 0000049C (0x21 bytes), align: 0
  Segment part 0.
           ENTRY                   ADDRESS         REF BY
           =====                   =======         ======
           ?MOVE_LONG8_XDATA_XDATA
                                   0000047C        ?PUSH_XSTACK8_X (?PUSH_XSTACK8_X)

    -------------------------------------------------------------------------
  LIBRARY MODULE, NAME : ?S_DIV_MOD

  SEGMENTS IN THE MODULE
  ======================
<BANKED_CODE,BANK_RELAYS..> 1 (was RCODE)
  Relative segment, address: CODE 0000018D - 000001CD (0x41 bytes), align: 0
  Segment part 0.
           ENTRY                   ADDRESS         REF BY
           =====                   =======         ======
           ?S_DIV_MOD              000001C6        cspReadCountSymbols (mac_csp_tx)
                                                   radioComputeED (mac_radio)
    -------------------------------------------------------------------------
<BANKED_CODE,BANK_RELAYS..> 1 (was RCODE)
  Relative segment, address: CODE 000001CE - 00000226 (0x59 bytes), align: 0
  Segment part 1.             Intra module refs:   ?S_DIV_MOD
           ENTRY                   ADDRESS         REF BY
           =====                   =======         ======
           ?US_DIV_MOD             000001CE        ZMacLqiAdjust (zmac_cb)

    -------------------------------------------------------------------------
  LIBRARY MODULE, NAME : ?S_SHL

  SEGMENTS IN THE MODULE
  ======================
<BANKED_CODE,BANK_RELAYS..> 1 (was RCODE)
  Relative segment, address: CODE 000005F7 - 000005F9 (0x3 bytes), align: 0
  Segment part 0.
           ENTRY                   ADDRESS         REF BY
           =====                   =======         ======
           ?S_SHL                  000005F7        MAC_MlmeGetReq (mac_pib)
                                                   halAssertHazardLights (hal_assert)
                                                   macCspTxRequestAckTimeoutCallback (mac_csp_tx)
                                                   txCsmaPrep (mac_tx)
    -------------------------------------------------------------------------
<BANKED_CODE,BANK_RELAYS..> 1 (was RCODE)
  Relative segment, address: CODE 000005FA - 000005FC (0x3 bytes), align: 0
  Segment part 1.             Intra module refs:   Segment part 2
           ENTRY                   ADDRESS         REF BY
           =====                   =======         ======
           ?S_SHL_REW              000005FA 
    -------------------------------------------------------------------------
<BANKED_CODE,BANK_RELAYS..> 1 (was RCODE)
  Relative segment, address: CODE 000005FD - 00000609 (0xd bytes), align: 0
  Segment part 2.             Intra module refs:   ?S_SHL
                                                   ?S_SHL_REW

    -------------------------------------------------------------------------
  LIBRARY MODULE, NAME : ?ALLOC_XSTACK8

  SEGMENTS IN THE MODULE
  ======================
<BANKED_CODE,BANK_RELAYS..> 1 (was RCODE)
  Relative segment, address: CODE 00000542 - 00000557 (0x16 bytes), align: 0
  Segment part 0.
           ENTRY                   ADDRESS         REF BY
           =====                   =======         ======
           ?ALLOC_XSTACK8          00000542        MAC_CbackEvent (zmac_cb)
                                                   halAssertHazardLights (hal_assert)
                                                   macCbackForEvent (mac_beacon)
                                                   macCommStatusInd (mac_beacon)
                                                   macMcuOverflowCapture (mac_mcu)
                                                   macMcuOverflowCount (mac_mcu)
                                                   macMcuOverflowSetCompare (mac_mcu)
                                                   macMcuOverflowSetPeriod (mac_mcu)
                                                   macRxCompleteCallback (mac_beacon)
                                                   rxAddrIsr (mac_rx)
                                                   rxDiscardIsr (mac_rx)
                                                   rxStartIsr (mac_rx)

    -------------------------------------------------------------------------
  LIBRARY MODULE, NAME : ?DEALLOC_XSTACK8

  SEGMENTS IN THE MODULE
  ======================
<BANKED_CODE,BANK_RELAYS..> 1 (was RCODE)
  Relative segment, address: CODE 0000050F - 00000528 (0x1a bytes), align: 0
  Segment part 0.
           ENTRY                   ADDRESS         REF BY
           =====                   =======         ======
           ?DEALLOC_XSTACK8        0000050F        ?Subroutine0 (mac_mcu)
                                                   MAC_CbackEvent (zmac_cb)
                                                   MAC_MlmeGetReq (mac_pib)
                                                   Segment part 315 (mac_beacon)
                                                   Segment part 323 (mac_beacon)
                                                   Segment part 417 (mac_beacon)
                                                   Segment part 73 (mac_mcu)
                                                   macBackoffTimerRolloverCallback (mac_beacon)
                                                   rxAddrIsr (mac_rx)
                                                   rxDiscardIsr (mac_rx)
                                                   rxStartIsr (mac_rx)
                                                   sAddrExtCpy (saddr)

    -------------------------------------------------------------------------
  LIBRARY MODULE, NAME : ?ADD_XSTACK_DISP8

  SEGMENTS IN THE MODULE
  ======================
<BANKED_CODE,BANK_RELAYS..> 1 (was RCODE)
  Relative segment, address: CODE 000004DA - 000004F4 (0x1b bytes), align: 0
  Segment part 1.
           ENTRY                   ADDRESS         REF BY
           =====                   =======         ======
           ?ADD_XSTACK_DISP0_8     000004DA        ?PUSH_XSTACK_I (?PUSH_XSTACK_I)

    -------------------------------------------------------------------------
  LIBRARY MODULE, NAME : ?XSTACK_DISP8

  SEGMENTS IN THE MODULE
  ======================
<BANKED_CODE,BANK_RELAYS..> 1 (was RCODE)
  Relative segment, address: CODE 000006AA - 000006B3 (0xa bytes), align: 0
  Segment part 1.
           ENTRY                   ADDRESS         REF BY
           =====                   =======         ======
           ?XSTACK_DISP0_8         000006AA        ?Subroutine0 (mac_mcu)
                                                   MAC_CbackEvent (zmac_cb)
                                                   halAssertHazardLights (hal_assert)
                                                   macCbackForEvent (mac_beacon)
                                                   macCommStatusInd (mac_beacon)
                                                   macMcuOverflowSetCompare (mac_mcu)
                                                   macMcuOverflowSetPeriod (mac_mcu)
                                                   macTimerRecalcUnaligned (mac_beacon)
                                                   osal_memcpy (OSAL)
                                                   rxAddrIsr (mac_rx)
                                                   rxStartIsr (mac_rx)

    -------------------------------------------------------------------------
  LIBRARY MODULE, NAME : ?CALL_IND

  SEGMENTS IN THE MODULE
  ======================
<BANKED_CODE,BANK_RELAYS..> 1 (was RCODE)
  Relative segment, address: CODE 0000097D - 0000097E (0x2 bytes), align: 0
  Segment part 0.
           ENTRY                   ADDRESS         REF BY
           =====                   =======         ======
           ?CALL_IND               0000097D        MAC_CbackEvent (zmac_cb)
                                                   macBackoffTimerTriggerCallback (mac_beacon)
                                                   macDataTxComplete (mac_beacon)
                                                   macDataTxTimeAvailable (mac_beacon)
                                                   macRxCompleteCallback (mac_beacon)
                                                   macRxThresholdIsr (mac_rx)
                                                   macTxCompleteCallback (mac_beacon)

    -------------------------------------------------------------------------
  LIBRARY MODULE, NAME : ?POP_BIT_ISP

  SEGMENTS IN THE MODULE
  ======================
<BANKED_CODE,BANK_RELAYS..> 1 (was RCODE)
  Relative segment, address: CODE 000005BE - 000005D0 (0x13 bytes), align: 0
  Segment part 0.
           ENTRY                   ADDRESS         REF BY
           =====                   =======         ======
           ?POP_BIT_ISP            000005BE        macMcuRfIsr (mac_mcu)
                                                   macMcuTimer2Isr (mac_mcu)

    -------------------------------------------------------------------------
  LIBRARY MODULE, NAME : ?BANKED_ENTER_XDATA

  SEGMENTS IN THE MODULE
  ======================
<BANKED_CODE,BANK_RELAYS..> 1 (was RCODE)
  Relative segment, address: CODE 00000227 - 00000292 (0x6c bytes), align: 0
  Segment part 1.
           ENTRY                   ADDRESS         REF BY
           =====                   =======         ======
           ?BANKED_ENTER_XDATA     00000227        MAC_CbackEvent (zmac_cb)
                                                   MAC_MlmeGetReq (mac_pib)
                                                   ZMacLqiAdjust (zmac_cb)
                                                   halAssertHazardLights (hal_assert)
                                                   halSetMaxSleepLoopTime (hal_sleep)
                                                   macBackoffTimerCapture (mac_backoff_timer)
                                                   macBackoffTimerCount (mac_backoff_timer)
                                                   macBackoffTimerRolloverCallback (mac_beacon)
                                                   macBackoffTimerSetRollover (mac_backoff_timer)
                                                   macBackoffTimerSetTrigger (mac_backoff_timer)
                                                   macBackoffTimerTriggerCallback (mac_beacon)
                                                   macCbackForEvent (mac_beacon)
                                                   macCommStatusInd (mac_beacon)
                                                   macCspTxGoSlotted (mac_csp_tx)
                                                   macCspTxRequestAckTimeoutCallback (mac_csp_tx)
                                                   macMcuAccumulatedOverFlow (mac_mcu)
                                                   macMcuOverflowSetCompare (mac_mcu)
                                                   macMcuOverflowSetPeriod (mac_mcu)
                                                   macMemReadRxFifo (mac_mem)
                                                   macMemWriteTxFifo (mac_mem)
                                                   macRadioComputeLQI (mac_radio)
                                                   macRadioSetChannel (mac_radio)
                                                   macRadioSetTxPower (mac_radio)
                                                   macRxOffRequest (mac_rx_onoff)
                                                   macRxOnRequest (mac_rx_onoff)
                                                   macSecCpy (mac_beacon)
                                                   macSetEvent (mac_beacon)
                                                   macTimerCancel (mac_beacon)
                                                   macTimerRecalcUnaligned (mac_beacon)
                                                   macTimerRemoveTimer (mac_beacon)
                                                   macTimerUpdateBackoffTimer (mac_beacon)
                                                   macTxAckNotReceivedCallback (mac_tx)
                                                   macTxAckReceivedCallback (mac_tx)
                                                   macTxCompleteCallback (mac_beacon)
                                                   macTxDoneCallback (mac_tx)
                                                   macTxFrame (mac_tx)
                                                   macTxTimestampCallback (mac_tx)
                                                   mac_msg_deallocate (mac_beacon)
                                                   osalAddTimer (OSAL_Timers)
                                                   osal_mem_alloc (OSAL_Memory)
                                                   osal_mem_free (OSAL_Memory)
                                                   osal_memcpy (OSAL)
                                                   osal_msg_allocate (OSAL)
                                                   osal_msg_enqueue (OSAL)
                                                   osal_msg_enqueue_max (OSAL)
                                                   osal_msg_send (OSAL)
                                                   osal_set_event (OSAL)
                                                   osal_start_timerEx (OSAL_Timers)
                                                   rxAddrIsr (mac_rx)
                                                   rxFcsIsr (mac_rx)
                                                   rxStartIsr (mac_rx)
                                                   sAddrExtCpy (saddr)
                                                   txComplete (mac_tx)
                                                   txCsmaPrep (mac_tx)

    -------------------------------------------------------------------------
  LIBRARY MODULE, NAME : ?BANKED_LEAVE_XDATA

  SEGMENTS IN THE MODULE
  ======================
<BANKED_CODE,BANK_RELAYS..> 1 (was RCODE)
  Relative segment, address: CODE 000003A2 - 000003E7 (0x46 bytes), align: 0
  Segment part 1.
           ENTRY                   ADDRESS         REF BY
           =====                   =======         ======
           ?BANKED_LEAVE_XDATA     000003A2        ?Subroutine1 (mac_mem)
                                                   ?Subroutine1 (mac_radio)
                                                   ?Subroutine1 (mac_rx)
                                                   ?Subroutine1 (mac_tx)
                                                   ?Subroutine2 (OSAL)
                                                   ?Subroutine2 (mac_backoff_timer)
                                                   MAC_CbackEvent (zmac_cb)
                                                   MAC_MlmeGetReq (mac_pib)
                                                   Segment part 171 (mac_beacon)
                                                   Segment part 21 (mac_rx_onoff)
                                                   Segment part 225 (mac_beacon)
                                                   Segment part 36 (mac_backoff_timer)
                                                   Segment part 418 (mac_beacon)
                                                   Segment part 452 (mac_beacon)
                                                   Segment part 55 (OSAL)
                                                   Segment part 632 (mac_beacon)
                                                   Segment part 74 (mac_mcu)
                                                   ZMacLqiAdjust (zmac_cb)
                                                   halSetMaxSleepLoopTime (hal_sleep)
                                                   macCspTxGoSlotted (mac_csp_tx)
                                                   macCspTxRequestAckTimeoutCallback (mac_csp_tx)
                                                   macTxTimestampCallback (mac_tx)
                                                   osalAddTimer (OSAL_Timers)
                                                   osal_mem_alloc (OSAL_Memory)
                                                   osal_mem_free (OSAL_Memory)
                                                   osal_memcpy (OSAL)
                                                   osal_start_timerEx (OSAL_Timers)
                                                   rxFcsIsr (mac_rx)
                                                   rxStartIsr (mac_rx)
                                                   sAddrExtCpy (saddr)
                                                   txCsmaPrep (mac_tx)

    -------------------------------------------------------------------------
  LIBRARY MODULE, NAME : ?INTERRUPT_ENTER_XSP

  SEGMENTS IN THE MODULE
  ======================
<BANKED_CODE,BANK_RELAYS..> 1 (was RCODE)
  Relative segment, address: CODE 00000293 - 000002F1 (0x5f bytes), align: 0
  Segment part 1.
           ENTRY                   ADDRESS         REF BY
           =====                   =======         ======
           ?INTERRUPT_ENTER_XSP    00000293        halDmaIsr (hal_dma)
                                                   halKeyPort0Isr (hal_key)
                                                   halKeyPort2Isr (hal_key)
                                                   macMcuRfErrIsr (mac_mcu)
                                                   macMcuRfIsr (mac_mcu)
                                                   macMcuTimer2Isr (mac_mcu)

    -------------------------------------------------------------------------
  LIBRARY MODULE, NAME : ?INTERRUPT_LEAVE_XSP

  SEGMENTS IN THE MODULE
  ======================
<BANKED_CODE,BANK_RELAYS..> 1 (was RCODE)
  Relative segment, address: CODE 000002F2 - 00000349 (0x58 bytes), align: 0
  Segment part 1.
           ENTRY                   ADDRESS         REF BY
           =====                   =======         ======
           ?INTERRUPT_LEAVE_XSP    000002F2        ?Subroutine2 (hal_key)
                                                   ?Subroutine2 (mac_mcu)
                                                   halDmaIsr (hal_dma)

    -------------------------------------------------------------------------
  LIBRARY MODULE, NAME : ?PUSH_XSTACK_I

  SEGMENTS IN THE MODULE
  ======================
<BANKED_CODE,BANK_RELAYS..> 1 (was RCODE)
  Relative segment, address: CODE 0000060A - 0000060D (0x4 bytes), align: 0
  Segment part 1.
           ENTRY                   ADDRESS         REF BY
           =====                   =======         ======
           ?PUSH_XSTACK_I_THREE    0000060A        MAC_CbackEvent (zmac_cb)
                                                   MAC_MlmeGetReq (mac_pib)
                                                   macSecCpy (mac_beacon)
                                                   rxStartIsr (mac_rx)
                                                   sAddrExtCpy (saddr)
    -------------------------------------------------------------------------
<BANKED_CODE,BANK_RELAYS..> 1 (was RCODE)
  Relative segment, address: CODE 0000060E - 0000061A (0xd bytes), align: 0
  Segment part 4.             Intra module refs:   ?PUSH_XSTACK_I_THREE
           ENTRY                   ADDRESS         REF BY
           =====                   =======         ======
           ?PUSH_XSTACK_I          0000060E 

    -------------------------------------------------------------------------
  LIBRARY MODULE, NAME : ?PUSH_XSTACK8_X

  SEGMENTS IN THE MODULE
  ======================
<BANKED_CODE,BANK_RELAYS..> 1 (was RCODE)
  Relative segment, address: CODE 0000042C - 0000042F (0x4 bytes), align: 0
  Segment part 3.
           ENTRY                   ADDRESS         REF BY
           =====                   =======         ======
           ?PUSH_XSTACK8_X_TWO     0000042C        macBackoffTimerRolloverCallback (mac_beacon)
    -------------------------------------------------------------------------
<BANKED_CODE,BANK_RELAYS..> 1 (was RCODE)
  Relative segment, address: CODE 00000430 - 00000458 (0x29 bytes), align: 0
  Segment part 5.             Intra module refs:   ?PUSH_XSTACK8_X_TWO
           ENTRY                   ADDRESS         REF BY
           =====                   =======         ======
           ?PUSH_XSTACK8_X         00000430 




                ****************************************
                *                                      *
                *            MODULE SUMMARY            *
                *                                      *
                ****************************************

Module                     CODE      DATA      XDATA  IDATA    BIT  CONST
------                     ----      ----      -----  -----    ---  -----
                          (Rel)  (Rel)  (Abs)  (Rel)  (Rel)  (Rel)  (Rel)
?ADD_XSTACK_DISP8            27
?ALLOC_XSTACK8               22
?BANKED_CODE_SUPPORT         30
?BANKED_ENTER_XDATA         108
?BANKED_LEAVE_XDATA          70
?CALL_IND                     2
?C_GPTR_LOAD                 26
?DEALLOC_XSTACK8             26
?INTERRUPT_ENTER_XSP         95
?INTERRUPT_LEAVE_XSP         88
?L_ADD_TO_X                  19
?L_ADD_X                     19
?L_AND_X                     19
?L_EQ                        21
?L_EQ_X                      21
?L_MOV_TO_X                  15
?L_MOV_X                     15
?L_NEG                       17
?L_SUB_FROM_X                20
?MOVE_LONG8_XDATA_IDATA      13
?MOVE_LONG8_XDATA_XDATA      33
?POP_BIT_ISP                 19
?PUSH_XSTACK8_X              45
?PUSH_XSTACK_I               17
?SL_GT_X                     21
?S_DIV_MOD                  154
?S_SHL                       19
?UL_GE_X                     31
?UL_GT                       16
?UL_GT_X                     16
?XLOAD_R2345                 12
?XSTACK_DISP8                10
?XSTORE_R2345                12
?cexit                        5
?cmain                       88
CSTARTUP                     16
  + common                    3
MT_SYS                                      1
  + shared                                  2
OSAL                        603                    2
OSAL_GenericApp               1                    2                    1
OSAL_Memory                 447                3 075
OSAL_Timers                 290                    2
  + shared                                                              4
OnBoard
  + shared                                  1
VIRTUAL_REGISTERS                    2                           8
ZDApp                         4
  + shared                                                              4
ZMain                        11
  + shared                                  7
hal_adc                                     3
  + shared                                  2
hal_aes                                     1
hal_assert                  412                                         4
  + shared                                  1
hal_dma                      35             4
  + shared                   70             3
  + common
hal_drivers                                        1
hal_flash
  + shared                                  1
hal_key                     129             7
  + shared                  110             4
  + common
hal_lcd                                     6
  + shared                                  1
hal_sleep                    73             4      4
  + shared                   46             1                           4
  + common
hal_startup                  11
hal_uart                     90             5    526
mac_autopend                 62                    2
mac_backoff_timer           350                    8
  + shared                                  2
mac_beacon                2 869                   43
mac_cfg                       5                                         5
mac_csp_tx                  738             1
  + shared                                  7
mac_mcu                     752             7      7                    4
  + shared                  134             2
  + common
mac_mem                      89             1
mac_pib                     305                   60
mac_radio                   424                    4
mac_radio_defs               51                    1
mac_rffrontend               32
mac_rx                    2 344                   19
mac_rx_onoff                228                    2
mac_sleep                     1                    1
mac_tx                      952                    8
nwk                         149                  113
nwk_globals                   1
saddr                        40
zmac                                               2
zmac_cb                   1 248                    3
N/A (command line)                  24           768    192
N/A (alignment)
----------               ------     --     --  -----    ---      -     --
Total:                   13 933     26     74  4 653    192      8     26
  + common                  134


                ****************************************
                *                                      *
                *      SEGMENTS IN ADDRESS ORDER       *
                *                                      *
                ****************************************


SEGMENT              SPACE    START ADDRESS   END ADDRESS     SIZE  TYPE  ALIGN
=======              =====    =============   ===========     ====  ====  =====
INTVEC               CODE          00000000 - 00000085          86   com    0
BIT_ID               CODE               00000086                     dse    0
DATA_ID              CODE               00000086                     dse    0
PDATA_ID             CODE               00000086                     dse    0
IXDATA_ID            CODE               00000086                     dse    0
IDATA_ID             CODE               00000086                     dse    0
BDATA_ID             CODE               00000086                     dse    0
XDATA_ID             CODE          00000086 - 0000009A          15   rel    0
<BANKED_CODE,BANK_RELAYS..> 1
                     CODE          0000009B - 000036D8        363E   rel    0
<XDATA_ROM_C_FLASH> 1
                     CODE          00018000 - 00018019          1A   rel    0
REGISTERS            DATA          00000000 - 00000007           8   rel    0
VREG                 DATA          00000008 - 00000017          10   rel    0
PSP                  DATA               00000018                     dse    0
XSP                  DATA          00000018 - 00000019           2   rel    0
BREG                 BIT        00000020.0  -  00000020.7        8   rel    0
SFR_AN               DATA          00000080 - 00000080           1   rel    0
                     DATA          00000086 - 00000087           2 
                     DATA          00000089 - 00000089           1 
                     DATA          0000008B - 0000008C           2 
                     DATA          0000008F - 00000091           3 
                     DATA          00000094 - 00000097           4 
                     DATA          0000009A - 0000009E           5 
                     DATA          000000A0 - 000000A9           A 
                     DATA          000000AB - 000000AD           3 
                     DATA          000000B3 - 000000B4           2 
                     DATA          000000B6 - 000000B6           1 
                     DATA          000000B8 - 000000C0           9 
                     DATA          000000C2 - 000000C7           6 
                     DATA          000000C9 - 000000C9           1 
                     DATA          000000D1 - 000000D7           7 
                     DATA          000000D9 - 000000D9           1 
                     DATA          000000E1 - 000000E1           1 
                     DATA          000000E8 - 000000E9           2 
                     DATA          000000F1 - 000000F5           5 
                     DATA          000000F8 - 000000FF           8 
XSTACK               XDATA         00000001 - 00000300         300   rel    0
XDATA_Z              XDATA         00000301 - 00000616         316   rel    0
XDATA_I              XDATA         00000617 - 0000062B          15   rel    0
<XDATA_N> 1          XDATA         0000062C - 0000122D         C02   rel    0
<XDATA_ROM_C> 1      CONST         00008000 - 00008019          1A   rel    0
ISTACK               IDATA         00000040 - 000000FF          C0   rel    0

                ****************************************
                *                                      *
                *        END OF CROSS REFERENCE        *
                *                                      *
                ****************************************

 14 067 bytes of CODE  memory
     26 bytes of DATA  memory (+ 74 absolute )
  4 653 bytes of XDATA memory
    192 bytes of IDATA memory
      8 bits  of BIT   memory
     26 bytes of CONST memory

Errors: none
Warnings: none

