///////////////////////////////////////////////////////////////////////////////
//                                                                            /
// IAR C/C++ Compiler V8.10.3.10338/W32 for 8051        14/Feb/2014  16:31:38 /
// Copyright 2004-2011 IAR Systems AB.                                        /
//                                                                            /
//    Core               =  plain                                             /
//    Code model         =  banked                                            /
//    Data model         =  large                                             /
//    Calling convention =  xdata reentrant                                   /
//    Constant location  =  data_rom                                          /
//    Dptr setup         =  1,16                                              /
//    Source file        =  C:\Users\OurEDA\Documents\Tencent                 /
//                          Files\1534143789\FileRecv\ZStack-CC2530-2.5.1a\ZS /
//                          tack-CC2530-2.5.1a\Projects\zstack\Samples\03Soun /
//                          d_ENDDB\Source\Sound.c                            /
//    Command line       =  -f "C:\Users\OurEDA\Documents\Tencent             /
//                          Files\1534143789\FileRecv\ZStack-CC2530-2.5.1a\ZS /
//                          tack-CC2530-2.5.1a\Projects\zstack\Samples\03Soun /
//                          d_ENDDB\CC2530DB\..\..\..\Tools\CC2530DB\f8wEndev /
//                          .cfg" (-DCPU32MHZ -DROOT=__near_func              /
//                          -DMAC_CFG_TX_DATA_MAX=3 -DMAC_CFG_TX_MAX=6        /
//                          -DMAC_CFG_RX_MAX=3) -f "C:\Users\OurEDA\Documents /
//                          \Tencent Files\1534143789\FileRecv\ZStack-CC2530- /
//                          2.5.1a\ZStack-CC2530-2.5.1a\Projects\zstack\Sampl /
//                          es\03Sound_ENDDB\CC2530DB\..\..\..\Tools\CC2530DB /
//                          \f8wConfig.cfg" (-DZIGBEEPRO -DSECURE=0           /
//                          -DZG_SECURE_DYNAMIC=0 -DREFLECTOR                 /
//                          -DDEFAULT_CHANLIST=0x00000800                     /
//                          -DZDAPP_CONFIG_PAN_ID=0xFFFF                      /
//                          -DNWK_START_DELAY=100 -DEXTENDED_JOINING_RANDOM_M /
//                          ASK=0x007F -DBEACON_REQUEST_DELAY=100             /
//                          -DBEACON_REQ_DELAY_MASK=0x00FF                    /
//                          -DLINK_STATUS_JITTER_MASK=0x007F                  /
//                          -DROUTE_EXPIRY_TIME=30 -DAPSC_ACK_WAIT_DURATION_P /
//                          OLLED=3000 -DNWK_INDIRECT_MSG_TIMEOUT=7           /
//                          -DMAX_RREQ_ENTRIES=8 -DAPSC_MAX_FRAME_RETRIES=3   /
//                          -DNWK_MAX_DATA_RETRIES=2                          /
//                          -DMAX_POLL_FAILURE_RETRIES=2 -DMAX_BCAST=9        /
//                          -DAPS_MAX_GROUPS=16 -DMAX_RTG_ENTRIES=40          /
//                          -DNWK_MAX_BINDING_ENTRIES=4                       /
//                          -DMAX_BINDING_CLUSTER_IDS=4                       /
//                          "-DDEFAULT_KEY={0x01, 0x03, 0x05, 0x07, 0x09,     /
//                          0x0B, 0x0D, 0x0F, 0x00, 0x02, 0x04, 0x06, 0x08,   /
//                          0x0A, 0x0C, 0x0D}" -DMAC_MAX_FRAME_SIZE=116       /
//                          -DZDNWKMGR_MIN_TRANSMISSIONS=20 "-DCONST=const    /
//                          __code" -DGENERIC=__generic                       /
//                          -DRFD_RCVC_ALWAYS_ON=FALSE -DPOLL_RATE=1000       /
//                          -DQUEUED_POLL_RATE=100 -DRESPONSE_POLL_RATE=100)  /
//                          -DREJOIN_POLL_RATE=440 "C:\Users\OurEDA\Documents /
//                          \Tencent Files\1534143789\FileRecv\ZStack-CC2530- /
//                          2.5.1a\ZStack-CC2530-2.5.1a\Projects\zstack\Sampl /
//                          es\03Sound_ENDDB\Source\Sound.c" -D               /
//                          NWK_AUTO_POLL -D ZTOOL_P1 -D MT_TASK -D           /
//                          MT_SYS_FUNC -D MT_ZDO_FUNC -D                     /
//                          LCD_SUPPORTED=DEBUG -D xPOWER_SAVING -lC          /
//                          "C:\Users\OurEDA\Documents\Tencent                /
//                          Files\1534143789\FileRecv\ZStack-CC2530-2.5.1a\ZS /
//                          tack-CC2530-2.5.1a\Projects\zstack\Samples\03Soun /
//                          d_ENDDB\CC2530DB\EndDeviceEB\List\" -lA           /
//                          "C:\Users\OurEDA\Documents\Tencent                /
//                          Files\1534143789\FileRecv\ZStack-CC2530-2.5.1a\ZS /
//                          tack-CC2530-2.5.1a\Projects\zstack\Samples\03Soun /
//                          d_ENDDB\CC2530DB\EndDeviceEB\List\"               /
//                          --diag_suppress Pe001,Pa010 -o                    /
//                          "C:\Users\OurEDA\Documents\Tencent                /
//                          Files\1534143789\FileRecv\ZStack-CC2530-2.5.1a\ZS /
//                          tack-CC2530-2.5.1a\Projects\zstack\Samples\03Soun /
//                          d_ENDDB\CC2530DB\EndDeviceEB\Obj\" -e             /
//                          --no_code_motion --debug --core=plain             /
//                          --dptr=16,1 --data_model=large                    /
//                          --code_model=banked --calling_convention=xdata_re /
//                          entrant --place_constants=data_rom                /
//                          --nr_virtual_regs 16 -I                           /
//                          "C:\Users\OurEDA\Documents\Tencent                /
//                          Files\1534143789\FileRecv\ZStack-CC2530-2.5.1a\ZS /
//                          tack-CC2530-2.5.1a\Projects\zstack\Samples\03Soun /
//                          d_ENDDB\CC2530DB\" -I "C:\Users\OurEDA\Documents\ /
//                          Tencent Files\1534143789\FileRecv\ZStack-CC2530-2 /
//                          .5.1a\ZStack-CC2530-2.5.1a\Projects\zstack\Sample /
//                          s\03Sound_ENDDB\CC2530DB\..\Source\" -I           /
//                          "C:\Users\OurEDA\Documents\Tencent                /
//                          Files\1534143789\FileRecv\ZStack-CC2530-2.5.1a\ZS /
//                          tack-CC2530-2.5.1a\Projects\zstack\Samples\03Soun /
//                          d_ENDDB\CC2530DB\..\..\..\ZMain\TI2530DB\" -I     /
//                          "C:\Users\OurEDA\Documents\Tencent                /
//                          Files\1534143789\FileRecv\ZStack-CC2530-2.5.1a\ZS /
//                          tack-CC2530-2.5.1a\Projects\zstack\Samples\03Soun /
//                          d_ENDDB\CC2530DB\..\..\..\..\..\Components\hal\in /
//                          clude\" -I "C:\Users\OurEDA\Documents\Tencent     /
//                          Files\1534143789\FileRecv\ZStack-CC2530-2.5.1a\ZS /
//                          tack-CC2530-2.5.1a\Projects\zstack\Samples\03Soun /
//                          d_ENDDB\CC2530DB\..\..\..\..\..\Components\hal\ta /
//                          rget\CC2530EB\" -I "C:\Users\OurEDA\Documents\Ten /
//                          cent Files\1534143789\FileRecv\ZStack-CC2530-2.5. /
//                          1a\ZStack-CC2530-2.5.1a\Projects\zstack\Samples\0 /
//                          3Sound_ENDDB\CC2530DB\..\..\..\..\..\Components\m /
//                          ac\include\" -I "C:\Users\OurEDA\Documents\Tencen /
//                          t Files\1534143789\FileRecv\ZStack-CC2530-2.5.1a\ /
//                          ZStack-CC2530-2.5.1a\Projects\zstack\Samples\03So /
//                          und_ENDDB\CC2530DB\..\..\..\..\..\Components\mac\ /
//                          high_level\" -I "C:\Users\OurEDA\Documents\Tencen /
//                          t Files\1534143789\FileRecv\ZStack-CC2530-2.5.1a\ /
//                          ZStack-CC2530-2.5.1a\Projects\zstack\Samples\03So /
//                          und_ENDDB\CC2530DB\..\..\..\..\..\Components\mac\ /
//                          low_level\srf04\" -I "C:\Users\OurEDA\Documents\T /
//                          encent Files\1534143789\FileRecv\ZStack-CC2530-2. /
//                          5.1a\ZStack-CC2530-2.5.1a\Projects\zstack\Samples /
//                          \03Sound_ENDDB\CC2530DB\..\..\..\..\..\Components /
//                          \mac\low_level\srf04\single_chip\" -I             /
//                          "C:\Users\OurEDA\Documents\Tencent                /
//                          Files\1534143789\FileRecv\ZStack-CC2530-2.5.1a\ZS /
//                          tack-CC2530-2.5.1a\Projects\zstack\Samples\03Soun /
//                          d_ENDDB\CC2530DB\..\..\..\..\..\Components\mt\"   /
//                          -I "C:\Users\OurEDA\Documents\Tencent             /
//                          Files\1534143789\FileRecv\ZStack-CC2530-2.5.1a\ZS /
//                          tack-CC2530-2.5.1a\Projects\zstack\Samples\03Soun /
//                          d_ENDDB\CC2530DB\..\..\..\..\..\Components\osal\i /
//                          nclude\" -I "C:\Users\OurEDA\Documents\Tencent    /
//                          Files\1534143789\FileRecv\ZStack-CC2530-2.5.1a\ZS /
//                          tack-CC2530-2.5.1a\Projects\zstack\Samples\03Soun /
//                          d_ENDDB\CC2530DB\..\..\..\..\..\Components\servic /
//                          es\saddr\" -I "C:\Users\OurEDA\Documents\Tencent  /
//                          Files\1534143789\FileRecv\ZStack-CC2530-2.5.1a\ZS /
//                          tack-CC2530-2.5.1a\Projects\zstack\Samples\03Soun /
//                          d_ENDDB\CC2530DB\..\..\..\..\..\Components\servic /
//                          es\sdata\" -I "C:\Users\OurEDA\Documents\Tencent  /
//                          Files\1534143789\FileRecv\ZStack-CC2530-2.5.1a\ZS /
//                          tack-CC2530-2.5.1a\Projects\zstack\Samples\03Soun /
//                          d_ENDDB\CC2530DB\..\..\..\..\..\Components\stack\ /
//                          af\" -I "C:\Users\OurEDA\Documents\Tencent        /
//                          Files\1534143789\FileRecv\ZStack-CC2530-2.5.1a\ZS /
//                          tack-CC2530-2.5.1a\Projects\zstack\Samples\03Soun /
//                          d_ENDDB\CC2530DB\..\..\..\..\..\Components\stack\ /
//                          nwk\" -I "C:\Users\OurEDA\Documents\Tencent       /
//                          Files\1534143789\FileRecv\ZStack-CC2530-2.5.1a\ZS /
//                          tack-CC2530-2.5.1a\Projects\zstack\Samples\03Soun /
//                          d_ENDDB\CC2530DB\..\..\..\..\..\Components\stack\ /
//                          sapi\" -I "C:\Users\OurEDA\Documents\Tencent      /
//                          Files\1534143789\FileRecv\ZStack-CC2530-2.5.1a\ZS /
//                          tack-CC2530-2.5.1a\Projects\zstack\Samples\03Soun /
//                          d_ENDDB\CC2530DB\..\..\..\..\..\Components\stack\ /
//                          sec\" -I "C:\Users\OurEDA\Documents\Tencent       /
//                          Files\1534143789\FileRecv\ZStack-CC2530-2.5.1a\ZS /
//                          tack-CC2530-2.5.1a\Projects\zstack\Samples\03Soun /
//                          d_ENDDB\CC2530DB\..\..\..\..\..\Components\stack\ /
//                          sys\" -I "C:\Users\OurEDA\Documents\Tencent       /
//                          Files\1534143789\FileRecv\ZStack-CC2530-2.5.1a\ZS /
//                          tack-CC2530-2.5.1a\Projects\zstack\Samples\03Soun /
//                          d_ENDDB\CC2530DB\..\..\..\..\..\Components\stack\ /
//                          zdo\" -I "C:\Users\OurEDA\Documents\Tencent       /
//                          Files\1534143789\FileRecv\ZStack-CC2530-2.5.1a\ZS /
//                          tack-CC2530-2.5.1a\Projects\zstack\Samples\03Soun /
//                          d_ENDDB\CC2530DB\..\..\..\..\..\Components\zmac\" /
//                           -I "C:\Users\OurEDA\Documents\Tencent            /
//                          Files\1534143789\FileRecv\ZStack-CC2530-2.5.1a\ZS /
//                          tack-CC2530-2.5.1a\Projects\zstack\Samples\03Soun /
//                          d_ENDDB\CC2530DB\..\..\..\..\..\Components\zmac\f /
//                          8w\" -Ohz                                         /
//    List file          =  C:\Users\OurEDA\Documents\Tencent                 /
//                          Files\1534143789\FileRecv\ZStack-CC2530-2.5.1a\ZS /
//                          tack-CC2530-2.5.1a\Projects\zstack\Samples\03Soun /
//                          d_ENDDB\CC2530DB\EndDeviceEB\List\Sound.s51       /
//                                                                            /
//                                                                            /
///////////////////////////////////////////////////////////////////////////////

        NAME Sound

        RTMODEL "__SystemLibrary", "CLib"
        RTMODEL "__calling_convention", "xdata_reentrant"
        RTMODEL "__code_model", "banked"
        RTMODEL "__core", "plain"
        RTMODEL "__data_model", "large"
        RTMODEL "__dptr_size", "16"
        RTMODEL "__extended_stack", "disabled"
        RTMODEL "__location_for_constants", "data"
        RTMODEL "__number_of_dptrs", "1"
        RTMODEL "__rt_version", "1"

        RSEG DOVERLAY:DATA:NOROOT(0)
        RSEG IOVERLAY:IDATA:NOROOT(0)
        RSEG ISTACK:IDATA:NOROOT(0)
        RSEG PSTACK:XDATA:NOROOT(0)
        RSEG XSTACK:XDATA:NOROOT(0)

        EXTERN ?ALLOC_XSTACK8
        EXTERN ?BANKED_ENTER_XDATA
        EXTERN ?BANKED_LEAVE_XDATA
        EXTERN ?BDISPATCH
        EXTERN ?BRET
        EXTERN ?DEALLOC_XSTACK8
        EXTERN ?INTERRUPT_ENTER_XSP
        EXTERN ?INTERRUPT_LEAVE_XSP
        EXTERN ?MOVE_LONG8_XDATA_XDATA
        EXTERN ?PUSH_XSTACK_I_ONE
        EXTERN ?PUSH_XSTACK_I_TWO
        EXTERN ?US_SWITCH_SPARSE
        EXTERN ?V0
        EXTERN ?XSP
        EXTERN ?XSTACK_DISP0_8
        EXTERN __INIT_XDATA_Z

        PUBLIC ??InitKey2?relay
        FUNCTION ??InitKey2?relay,0203H
        PUBLIC ??SoundMeasurement_Init?relay
        FUNCTION ??SoundMeasurement_Init?relay,0203H
        PUBLIC ??SoundMeasurement_ProcessEvent?relay
        FUNCTION ??SoundMeasurement_ProcessEvent?relay,0203H
        PUBLIC ??Sound_Init?relay
        FUNCTION ??Sound_Init?relay,0203H
        PUBLIC ??Sound_ProcessEvent?relay
        FUNCTION ??Sound_ProcessEvent?relay,0203H
        FUNCTION ??Sound_SendTheMessage?relay,0203H
        PUBWEAK `??halKeyPort1Isr??INTVEC 123`
        PUBWEAK IEN2
        PUBLIC InitKey2
        FUNCTION InitKey2,0203H
        ARGFRAME XSTACK, 9, STACK
        ARGFRAME IOVERLAY, 0, STATIC
        ARGFRAME DOVERLAY, 0, STATIC
        PUBWEAK P1DIR
        PUBWEAK P1IEN
        PUBWEAK P1IFG
        PUBWEAK PICTL
        PUBLIC SoundMeasurement_Init
        FUNCTION SoundMeasurement_Init,021203H
        ARGFRAME XSTACK, 0, STACK
        LOCFRAME XSTACK, 9, STACK
        PUBLIC SoundMeasurement_NwkState
        PUBLIC SoundMeasurement_ProcessEvent
        FUNCTION SoundMeasurement_ProcessEvent,021203H
        ARGFRAME XSTACK, 0, STACK
        LOCFRAME XSTACK, 9, STACK
        PUBLIC SoundMeasurement_TaskID
        PUBLIC SoundMeasurement_TransID
        PUBLIC Sound_ClusterList
        PUBLIC Sound_DstAddr
        PUBLIC Sound_Init
        FUNCTION Sound_Init,021203H
        ARGFRAME XSTACK, 0, STACK
        LOCFRAME XSTACK, 9, STACK
        PUBLIC Sound_NwkState
        PUBLIC Sound_ProcessEvent
        FUNCTION Sound_ProcessEvent,0a1203H
        ARGFRAME XSTACK, 0, STACK
        LOCFRAME XSTACK, 32, STACK
        FUNCTION Sound_SendTheMessage,021203H
        ARGFRAME XSTACK, 23, STACK
        ARGFRAME IOVERLAY, 0, STATIC
        ARGFRAME DOVERLAY, 0, STATIC
        LOCFRAME ISTACK, 2, STACK
        LOCFRAME XSTACK, 34, STACK
        PUBLIC Sound_SimpleDesc
        PUBLIC Sound_TaskID
        PUBLIC Sound_TransID
        PUBLIC Sound_epDesc
        PUBWEAK _A_IEN0
        PUBWEAK _A_IRCON2
        PUBLIC halKeyPort1Isr
        FUNCTION halKeyPort1Isr,021233H
        ARGFRAME XSTACK, 0, STACK
        LOCFRAME XSTACK, 14, STACK
        PUBLIC isound
        
        CFI Names cfiNames0
        CFI StackFrame CFA_SP SP IDATA
        CFI StackFrame CFA_PSP16 PSP16 XDATA
        CFI StackFrame CFA_XSP16 XSP16 XDATA
        CFI StaticOverlayFrame CFA_IOVERLAY IOVERLAY
        CFI StaticOverlayFrame CFA_DOVERLAY DOVERLAY
        CFI Resource `PSW.CY`:1, `B.BR0`:1, `B.BR1`:1, `B.BR2`:1, `B.BR3`:1
        CFI Resource `B.BR4`:1, `B.BR5`:1, `B.BR6`:1, `B.BR7`:1, `VB.BR8`:1
        CFI Resource `VB.BR9`:1, `VB.BR10`:1, `VB.BR11`:1, `VB.BR12`:1
        CFI Resource `VB.BR13`:1, `VB.BR14`:1, `VB.BR15`:1, VB:8, B:8, A:8
        CFI Resource PSW:8, DPL0:8, DPH0:8, R0:8, R1:8, R2:8, R3:8, R4:8, R5:8
        CFI Resource R6:8, R7:8, V0:8, V1:8, V2:8, V3:8, V4:8, V5:8, V6:8, V7:8
        CFI Resource V8:8, V9:8, V10:8, V11:8, V12:8, V13:8, V14:8, V15:8, SP:8
        CFI Resource PSPH:8, PSPL:8, PSP16:16, XSPH:8, XSPL:8, XSP16:16
        CFI VirtualResource ?RET:24
        CFI Resource ?BRET_EXT:8
        CFI VirtualResource ?RET_HIGH:8, ?RET_LOW:8
        CFI ResourceParts PSP16 PSPH, PSPL
        CFI ResourceParts XSP16 XSPH, XSPL
        CFI ResourceParts ?RET ?BRET_EXT, ?RET_HIGH, ?RET_LOW
        CFI EndNames cfiNames0
        
        CFI Common cfiCommon0 Using cfiNames0
        CFI CodeAlign 1
        CFI DataAlign -1
        CFI ReturnAddress ?RET CODE
        CFI CFA_DOVERLAY Used
        CFI CFA_IOVERLAY Used
        CFI CFA_SP SP+-3
        CFI CFA_PSP16 PSP16+0
        CFI CFA_XSP16 XSP16+0
        CFI `PSW.CY` SameValue
        CFI `B.BR0` SameValue
        CFI `B.BR1` SameValue
        CFI `B.BR2` SameValue
        CFI `B.BR3` SameValue
        CFI `B.BR4` SameValue
        CFI `B.BR5` SameValue
        CFI `B.BR6` SameValue
        CFI `B.BR7` SameValue
        CFI `VB.BR8` SameValue
        CFI `VB.BR9` SameValue
        CFI `VB.BR10` SameValue
        CFI `VB.BR11` SameValue
        CFI `VB.BR12` SameValue
        CFI `VB.BR13` SameValue
        CFI `VB.BR14` SameValue
        CFI `VB.BR15` SameValue
        CFI VB SameValue
        CFI B Undefined
        CFI A Undefined
        CFI PSW SameValue
        CFI DPL0 SameValue
        CFI DPH0 SameValue
        CFI R0 Undefined
        CFI R1 Undefined
        CFI R2 Undefined
        CFI R3 Undefined
        CFI R4 Undefined
        CFI R5 Undefined
        CFI R6 SameValue
        CFI R7 SameValue
        CFI V0 SameValue
        CFI V1 SameValue
        CFI V2 SameValue
        CFI V3 SameValue
        CFI V4 SameValue
        CFI V5 SameValue
        CFI V6 SameValue
        CFI V7 SameValue
        CFI V8 SameValue
        CFI V9 SameValue
        CFI V10 SameValue
        CFI V11 SameValue
        CFI V12 SameValue
        CFI V13 SameValue
        CFI V14 SameValue
        CFI V15 SameValue
        CFI PSPH Undefined
        CFI PSPL Undefined
        CFI XSPH Undefined
        CFI XSPL Undefined
        CFI ?RET Concat
        CFI ?BRET_EXT Frame(CFA_SP, 3)
        CFI ?RET_HIGH Frame(CFA_SP, 2)
        CFI ?RET_LOW Frame(CFA_SP, 1)
        CFI EndCommon cfiCommon0
        
        
        CFI Common cfiCommon1 Using cfiNames0
        CFI CodeAlign 1
        CFI DataAlign -1
        CFI ReturnAddress ?RET CODE
        CFI CFA_DOVERLAY Used
        CFI CFA_IOVERLAY Used
        CFI CFA_SP SP+-2
        CFI CFA_PSP16 PSP16+0
        CFI CFA_XSP16 XSP16+0
        CFI `PSW.CY` SameValue
        CFI `B.BR0` SameValue
        CFI `B.BR1` SameValue
        CFI `B.BR2` SameValue
        CFI `B.BR3` SameValue
        CFI `B.BR4` SameValue
        CFI `B.BR5` SameValue
        CFI `B.BR6` SameValue
        CFI `B.BR7` SameValue
        CFI `VB.BR8` SameValue
        CFI `VB.BR9` SameValue
        CFI `VB.BR10` SameValue
        CFI `VB.BR11` SameValue
        CFI `VB.BR12` SameValue
        CFI `VB.BR13` SameValue
        CFI `VB.BR14` SameValue
        CFI `VB.BR15` SameValue
        CFI VB SameValue
        CFI B SameValue
        CFI A SameValue
        CFI PSW SameValue
        CFI DPL0 SameValue
        CFI DPH0 SameValue
        CFI R0 SameValue
        CFI R1 SameValue
        CFI R2 SameValue
        CFI R3 SameValue
        CFI R4 SameValue
        CFI R5 SameValue
        CFI R6 SameValue
        CFI R7 SameValue
        CFI V0 SameValue
        CFI V1 SameValue
        CFI V2 SameValue
        CFI V3 SameValue
        CFI V4 SameValue
        CFI V5 SameValue
        CFI V6 SameValue
        CFI V7 SameValue
        CFI V8 SameValue
        CFI V9 SameValue
        CFI V10 SameValue
        CFI V11 SameValue
        CFI V12 SameValue
        CFI V13 SameValue
        CFI V14 SameValue
        CFI V15 SameValue
        CFI PSPH Undefined
        CFI PSPL Undefined
        CFI XSPH Undefined
        CFI XSPL Undefined
        CFI ?RET Concat
        CFI ?BRET_EXT SameValue
        CFI ?RET_HIGH Frame(CFA_SP, 2)
        CFI ?RET_LOW Frame(CFA_SP, 1)
        CFI EndCommon cfiCommon1
        
afRegister          SYMBOL "afRegister"
RegisterForKeys     SYMBOL "RegisterForKeys"
HalLcdWriteString   SYMBOL "HalLcdWriteString"
ZDO_RegisterForZDOMsg SYMBOL "ZDO_RegisterForZDOMsg"
osal_msg_receive    SYMBOL "osal_msg_receive"
osal_start_timerEx  SYMBOL "osal_start_timerEx"
osal_msg_deallocate SYMBOL "osal_msg_deallocate"
ZDO_ParseEPListRsp  SYMBOL "ZDO_ParseEPListRsp"
HalLedSet           SYMBOL "HalLedSet"
osal_mem_free       SYMBOL "osal_mem_free"
NLME_GetShortAddr   SYMBOL "NLME_GetShortAddr"
ZDP_EndDeviceBindReq SYMBOL "ZDP_EndDeviceBindReq"
ZDP_MatchDescReq    SYMBOL "ZDP_MatchDescReq"
HalLcdWriteScreen   SYMBOL "HalLcdWriteScreen"
_ltoa               SYMBOL "_ltoa"
osal_strlen         SYMBOL "osal_strlen"
AF_DataRequest      SYMBOL "AF_DataRequest"
??AF_DataRequest?relay SYMBOL "?relay", AF_DataRequest
??HalLcdWriteScreen?relay SYMBOL "?relay", HalLcdWriteScreen
??HalLcdWriteString?relay SYMBOL "?relay", HalLcdWriteString
??HalLedSet?relay   SYMBOL "?relay", HalLedSet
??NLME_GetShortAddr?relay SYMBOL "?relay", NLME_GetShortAddr
??RegisterForKeys?relay SYMBOL "?relay", RegisterForKeys
??ZDO_ParseEPListRsp?relay SYMBOL "?relay", ZDO_ParseEPListRsp
??ZDO_RegisterForZDOMsg?relay SYMBOL "?relay", ZDO_RegisterForZDOMsg
??ZDP_EndDeviceBindReq?relay SYMBOL "?relay", ZDP_EndDeviceBindReq
??ZDP_MatchDescReq?relay SYMBOL "?relay", ZDP_MatchDescReq
??_ltoa?relay       SYMBOL "?relay", _ltoa
??afRegister?relay  SYMBOL "?relay", afRegister
??osal_mem_free?relay SYMBOL "?relay", osal_mem_free
??osal_msg_deallocate?relay SYMBOL "?relay", osal_msg_deallocate
??osal_msg_receive?relay SYMBOL "?relay", osal_msg_receive
??osal_start_timerEx?relay SYMBOL "?relay", osal_start_timerEx
??osal_strlen?relay SYMBOL "?relay", osal_strlen
InitKey2            SYMBOL "InitKey2"
??InitKey2?relay    SYMBOL "?relay", InitKey2
SoundMeasurement_Init SYMBOL "SoundMeasurement_Init"
??SoundMeasurement_Init?relay SYMBOL "?relay", SoundMeasurement_Init
SoundMeasurement_ProcessEvent SYMBOL "SoundMeasurement_ProcessEvent"
??SoundMeasurement_ProcessEvent?relay SYMBOL "?relay", SoundMeasurement_ProcessEvent
Sound_Init          SYMBOL "Sound_Init"
??Sound_Init?relay  SYMBOL "?relay", Sound_Init
Sound_ProcessEvent  SYMBOL "Sound_ProcessEvent"
??Sound_ProcessEvent?relay SYMBOL "?relay", Sound_ProcessEvent
halKeyPort1Isr      SYMBOL "halKeyPort1Isr"
`??halKeyPort1Isr??INTVEC 123` SYMBOL "??INTVEC 123", halKeyPort1Isr

        EXTERN afRegister
        FUNCTION afRegister,0202H
        ARGFRAME ISTACK, 0, STACK
        ARGFRAME PSTACK, 0, STACK
        ARGFRAME XSTACK, 9, STACK
        ARGFRAME IOVERLAY, 0, STATIC
        ARGFRAME DOVERLAY, 0, STATIC
        EXTERN RegisterForKeys
        FUNCTION RegisterForKeys,0202H
        ARGFRAME ISTACK, 0, STACK
        ARGFRAME PSTACK, 0, STACK
        ARGFRAME XSTACK, 9, STACK
        ARGFRAME IOVERLAY, 0, STATIC
        ARGFRAME DOVERLAY, 0, STATIC
        EXTERN HalLcdWriteString
        FUNCTION HalLcdWriteString,0202H
        ARGFRAME ISTACK, 0, STACK
        ARGFRAME PSTACK, 0, STACK
        ARGFRAME XSTACK, 9, STACK
        ARGFRAME IOVERLAY, 0, STATIC
        ARGFRAME DOVERLAY, 0, STATIC
        EXTERN ZDO_RegisterForZDOMsg
        FUNCTION ZDO_RegisterForZDOMsg,0202H
        ARGFRAME ISTACK, 0, STACK
        ARGFRAME PSTACK, 0, STACK
        ARGFRAME XSTACK, 9, STACK
        ARGFRAME IOVERLAY, 0, STATIC
        ARGFRAME DOVERLAY, 0, STATIC
        EXTERN osal_msg_receive
        FUNCTION osal_msg_receive,0202H
        ARGFRAME ISTACK, 0, STACK
        ARGFRAME PSTACK, 0, STACK
        ARGFRAME XSTACK, 23, STACK
        ARGFRAME IOVERLAY, 0, STATIC
        ARGFRAME DOVERLAY, 0, STATIC
        EXTERN osal_start_timerEx
        FUNCTION osal_start_timerEx,0202H
        ARGFRAME ISTACK, 0, STACK
        ARGFRAME PSTACK, 0, STACK
        ARGFRAME XSTACK, 23, STACK
        ARGFRAME IOVERLAY, 0, STATIC
        ARGFRAME DOVERLAY, 0, STATIC
        EXTERN osal_msg_deallocate
        FUNCTION osal_msg_deallocate,0202H
        ARGFRAME ISTACK, 0, STACK
        ARGFRAME PSTACK, 0, STACK
        ARGFRAME XSTACK, 23, STACK
        ARGFRAME IOVERLAY, 0, STATIC
        ARGFRAME DOVERLAY, 0, STATIC
        EXTERN ZDO_ParseEPListRsp
        FUNCTION ZDO_ParseEPListRsp,0202H
        ARGFRAME ISTACK, 0, STACK
        ARGFRAME PSTACK, 0, STACK
        ARGFRAME XSTACK, 23, STACK
        ARGFRAME IOVERLAY, 0, STATIC
        ARGFRAME DOVERLAY, 0, STATIC
        EXTERN HalLedSet
        FUNCTION HalLedSet,0202H
        ARGFRAME ISTACK, 0, STACK
        ARGFRAME PSTACK, 0, STACK
        ARGFRAME XSTACK, 23, STACK
        ARGFRAME IOVERLAY, 0, STATIC
        ARGFRAME DOVERLAY, 0, STATIC
        EXTERN osal_mem_free
        FUNCTION osal_mem_free,0202H
        ARGFRAME ISTACK, 0, STACK
        ARGFRAME PSTACK, 0, STACK
        ARGFRAME XSTACK, 23, STACK
        ARGFRAME IOVERLAY, 0, STATIC
        ARGFRAME DOVERLAY, 0, STATIC
        EXTERN NLME_GetShortAddr
        FUNCTION NLME_GetShortAddr,0202H
        ARGFRAME ISTACK, 0, STACK
        ARGFRAME PSTACK, 0, STACK
        ARGFRAME XSTACK, 23, STACK
        ARGFRAME IOVERLAY, 0, STATIC
        ARGFRAME DOVERLAY, 0, STATIC
        EXTERN ZDP_EndDeviceBindReq
        FUNCTION ZDP_EndDeviceBindReq,0202H
        ARGFRAME ISTACK, 0, STACK
        ARGFRAME PSTACK, 0, STACK
        ARGFRAME XSTACK, 32, STACK
        ARGFRAME IOVERLAY, 0, STATIC
        ARGFRAME DOVERLAY, 0, STATIC
        EXTERN ZDP_MatchDescReq
        FUNCTION ZDP_MatchDescReq,0202H
        ARGFRAME ISTACK, 0, STACK
        ARGFRAME PSTACK, 0, STACK
        ARGFRAME XSTACK, 31, STACK
        ARGFRAME IOVERLAY, 0, STATIC
        ARGFRAME DOVERLAY, 0, STATIC
        EXTERN HalLcdWriteScreen
        FUNCTION HalLcdWriteScreen,0202H
        ARGFRAME ISTACK, 0, STACK
        ARGFRAME PSTACK, 0, STACK
        ARGFRAME XSTACK, 23, STACK
        ARGFRAME IOVERLAY, 0, STATIC
        ARGFRAME DOVERLAY, 0, STATIC
        EXTERN _ltoa
        FUNCTION _ltoa,0202H
        ARGFRAME ISTACK, 0, STACK
        ARGFRAME PSTACK, 0, STACK
        ARGFRAME XSTACK, 27, STACK
        ARGFRAME IOVERLAY, 0, STATIC
        ARGFRAME DOVERLAY, 0, STATIC
        EXTERN osal_strlen
        FUNCTION osal_strlen,0202H
        ARGFRAME ISTACK, 0, STACK
        ARGFRAME PSTACK, 0, STACK
        ARGFRAME XSTACK, 30, STACK
        ARGFRAME IOVERLAY, 0, STATIC
        ARGFRAME DOVERLAY, 0, STATIC
        EXTERN AF_DataRequest
        FUNCTION AF_DataRequest,0202H
        ARGFRAME ISTACK, 0, STACK
        ARGFRAME PSTACK, 0, STACK
        ARGFRAME XSTACK, 34, STACK
        ARGFRAME IOVERLAY, 0, STATIC
        ARGFRAME DOVERLAY, 0, STATIC
        EXTERN ??AF_DataRequest?relay
        FUNCTION ??AF_DataRequest?relay,00H
        EXTERN ??HalLcdWriteScreen?relay
        FUNCTION ??HalLcdWriteScreen?relay,00H
        EXTERN ??HalLcdWriteString?relay
        FUNCTION ??HalLcdWriteString?relay,00H
        EXTERN ??HalLedSet?relay
        FUNCTION ??HalLedSet?relay,00H
        EXTERN ??NLME_GetShortAddr?relay
        FUNCTION ??NLME_GetShortAddr?relay,00H
        EXTERN ??RegisterForKeys?relay
        FUNCTION ??RegisterForKeys?relay,00H
        EXTERN ??ZDO_ParseEPListRsp?relay
        FUNCTION ??ZDO_ParseEPListRsp?relay,00H
        EXTERN ??ZDO_RegisterForZDOMsg?relay
        FUNCTION ??ZDO_RegisterForZDOMsg?relay,00H
        EXTERN ??ZDP_EndDeviceBindReq?relay
        FUNCTION ??ZDP_EndDeviceBindReq?relay,00H
        EXTERN ??ZDP_MatchDescReq?relay
        FUNCTION ??ZDP_MatchDescReq?relay,00H
        EXTERN ??_ltoa?relay
        FUNCTION ??_ltoa?relay,00H
        EXTERN ??afRegister?relay
        FUNCTION ??afRegister?relay,00H
        EXTERN ??osal_mem_free?relay
        FUNCTION ??osal_mem_free?relay,00H
        EXTERN ??osal_msg_deallocate?relay
        FUNCTION ??osal_msg_deallocate?relay,00H
        EXTERN ??osal_msg_receive?relay
        FUNCTION ??osal_msg_receive?relay,00H
        EXTERN ??osal_start_timerEx?relay
        FUNCTION ??osal_start_timerEx?relay,00H
        EXTERN ??osal_strlen?relay
        FUNCTION ??osal_strlen?relay,00H

// C:\Users\OurEDA\Documents\Tencent Files\1534143789\FileRecv\ZStack-CC2530-2.5.1a\ZStack-CC2530-2.5.1a\Projects\zstack\Samples\03Sound_ENDDB\Source\Sound.c
//    1 /******************************************************************************
//    2   Filename:       Sound.c
//    3   Revised:        $Date: 2012-03-07 01:04:58 -0800 (Wed, 07 Mar 2012) $
//    4   Revision:       $Revision: 29656 $
//    5 
//    6   Description:    Generic Application (no Profile).
//    7 
//    8 
//    9   Copyright 2004-2012 Texas Instruments Incorporated. All rights reserved.
//   10 
//   11   IMPORTANT: Your use of this Software is limited to those specific rights
//   12   granted under the terms of a software license agreement between the user
//   13   who downloaded the software, his/her employer (which must be your employer)
//   14   and Texas Instruments Incorporated (the "License"). You may not use this
//   15   Software unless you agree to abide by the terms of the License. The License
//   16   limits your use, and you acknowledge, that the Software may not be modified,
//   17   copied or distributed unless embedded on a Texas Instruments microcontroller
//   18   or used solely and exclusively in conjunction with a Texas Instruments radio
//   19   frequency transceiver, which is integrated into your product. Other than for
//   20   the foregoing purpose, you may not use, reproduce, copy, prepare derivative
//   21   works of, modify, distribute, perform, display or sell this Software and/or
//   22   its documentation for any purpose.
//   23 
//   24   YOU FURTHER ACKNOWLEDGE AND AGREE THAT THE SOFTWARE AND DOCUMENTATION ARE
//   25   PROVIDED AS IS?WITHOUT WARRANTY OF ANY KIND, EITHER EXPRESS OR IMPLIED,
//   26   INCLUDING WITHOUT LIMITATION, ANY WARRANTY OF MERCHANTABILITY, TITLE,
//   27   NON-INFRINGEMENT AND FITNESS FOR A PARTICULAR PURPOSE. IN NO EVENT SHALL
//   28   TEXAS INSTRUMENTS OR ITS LICENSORS BE LIABLE OR OBLIGATED UNDER CONTRACT,
//   29   NEGLIGENCE, STRICT LIABILITY, CONTRIBUTION, BREACH OF WARRANTY, OR OTHER
//   30   LEGAL EQUITABLE THEORY ANY DIRECT OR INDIRECT DAMAGES OR EXPENSES
//   31   INCLUDING BUT NOT LIMITED TO ANY INCIDENTAL, SPECIAL, INDIRECT, PUNITIVE
//   32   OR CONSEQUENTIAL DAMAGES, LOST PROFITS OR LOST DATA, COST OF PROCUREMENT
//   33   OF SUBSTITUTE GOODS, TECHNOLOGY, SERVICES, OR ANY CLAIMS BY THIRD PARTIES
//   34   (INCLUDING BUT NOT LIMITED TO ANY DEFENSE THEREOF), OR OTHER SIMILAR COSTS.
//   35 
//   36   Should you have any questions regarding your right to use this Software,
//   37   contact Texas Instruments Incorporated at www.TI.com.
//   38 ******************************************************************************/
//   39 
//   40 /*********************************************************************
//   41   This application isn't intended to do anything useful, it is
//   42   intended to be a simple example of an application's structure.
//   43 
//   44   This application sends "Hello World" to another "Generic"
//   45   application every 5 seconds.  The application will also
//   46   receives "Hello World" packets.
//   47 
//   48   The "Hello World" messages are sent/received as MSG type message.
//   49 
//   50   This applications doesn't have a profile, so it handles everything
//   51   directly - itself.
//   52 
//   53   Key control:
//   54     SW1:
//   55     SW2:  initiates end device binding
//   56     SW3:
//   57     SW4:  initiates a match description request
//   58 *********************************************************************/
//   59 
//   60 /*********************************************************************
//   61  * INCLUDES
//   62  */
//   63 #include "OSAL.h"
//   64 #include "AF.h"
//   65 #include "ZDApp.h"
//   66 #include "ZDObject.h"
//   67 #include "ZDProfile.h"
//   68 
//   69 #include "Sound.h"
//   70 #include "DebugTrace.h"
//   71 
//   72 #if !defined( WIN32 )
//   73   #include "OnBoard.h"

        ASEGN SFR_AN:DATA:NOROOT,08aH
// unsigned char volatile __sfr P1IFG
P1IFG:
        DATA8
        DS 1

        ASEGN SFR_AN:DATA:NOROOT,08cH
// unsigned char volatile __sfr PICTL
PICTL:
        DATA8
        DS 1

        ASEGN SFR_AN:DATA:NOROOT,08dH
// unsigned char volatile __sfr P1IEN
P1IEN:
        DATA8
        DS 1

        ASEGN SFR_AN:DATA:NOROOT,09aH
// unsigned char volatile __sfr IEN2
IEN2:
        DATA8
        DS 1

        ASEGN SFR_AN:DATA:NOROOT,0a8H
// union <unnamed> volatile __sfr _A_IEN0
_A_IEN0:
        DATA8
        DS 1

        ASEGN SFR_AN:DATA:NOROOT,0e8H
// union <unnamed> volatile __sfr _A_IRCON2
_A_IRCON2:
        DATA8
        DS 1

        ASEGN SFR_AN:DATA:NOROOT,0feH
// unsigned char volatile __sfr P1DIR
P1DIR:
        DATA8
        DS 1
//   74 #endif
//   75 
//   76 /* HAL */
//   77 #include "hal_lcd.h"
//   78 #include "hal_led.h"
//   79 #include "hal_key.h"
//   80 #include "hal_uart.h"
//   81 
//   82 /* RTOS */
//   83 #if defined( IAR_ARMCM3_LM )
//   84 #include "RTOS_App.h"
//   85 #endif  
//   86 
//   87 /*********************************************************************
//   88  * MACROS
//   89  */
//   90 
//   91 /*********************************************************************
//   92  * CONSTANTS
//   93  */
//   94 
//   95 /*********************************************************************
//   96  * TYPEDEFS
//   97  */
//   98 
//   99 /*********************************************************************
//  100  * GLOBAL VARIABLES
//  101  */
//  102 // This list should be filled with Application specific Cluster IDs.
//  103 
//  104 /* SW_6 is at P0.1 */
//  105 #define HAL_KEY_SW_7_PORT   P1
//  106 #define HAL_KEY_SW_7_BIT    BV(3)
//  107 #define HAL_KEY_SW_7_SEL    P1SEL
//  108 #define HAL_KEY_SW_7_DIR    P1DIR
//  109 
//  110 /* edge interrupt */
//  111 #define HAL_KEY_SW_7_EDGEBIT  BV(0)
//  112 #define HAL_KEY_SW_7_EDGE     HAL_KEY_RISING_EDGE
//  113 
//  114 
//  115 /* SW_6 interrupts */
//  116 #define HAL_KEY_SW_7_IEN      IEN2  /* CPU interrupt mask register */
//  117 #define HAL_KEY_SW_7_IENBIT   BV(4) /* Mask bit for all of Port_0 */
//  118 #define HAL_KEY_SW_7_ICTL     P1IEN /* Port Interrupt Control register */
//  119 #define HAL_KEY_SW_7_ICTLBIT  BV(3) /* P0IEN - P0.1 enable/disable bit */
//  120 #define HAL_KEY_SW_7_PXIFG    P1IFG /* Interrupt flag at source */
//  121 

        RSEG XDATA_ROM_C:CONST:REORDER:NOROOT(0)
        DATA16
//  122 const cId_t Sound_ClusterList[Sound_MAX_CLUSTERS] =
Sound_ClusterList:
        DW 3
//  123 {
//  124   Sound_CLUSTERID
//  125 };
//  126 

        RSEG XDATA_ROM_C:CONST:REORDER:NOROOT(0)
        DATA8
//  127 const SimpleDescriptionFormat_t Sound_SimpleDesc =
Sound_SimpleDesc:
        DB 10
        DATA16
        DW 3844
        DW 1
        DATA8
        DB 0
        DB 1
        DATA16
        DW Sound_ClusterList
        DATA8
        DB 1
        DATA16
        DW Sound_ClusterList
//  128 {
//  129   Sound_ENDPOINT,              //  int Endpoint;
//  130   Sound_PROFID,                //  uint16 AppProfId[2];
//  131   Sound_DEVICEID,              //  uint16 AppDeviceId[2];
//  132   Sound_DEVICE_VERSION,        //  int   AppDevVer:4;
//  133   Sound_FLAGS,                 //  int   AppFlags:4;
//  134   Sound_MAX_CLUSTERS,          //  byte  AppNumInClusters;
//  135   (cId_t *)Sound_ClusterList,  //  byte *pAppInClusterList;
//  136   Sound_MAX_CLUSTERS,          //  byte  AppNumInClusters;
//  137   (cId_t *)Sound_ClusterList   //  byte *pAppInClusterList;
//  138 };
//  139 
//  140 // This is the Endpoint/Interface description.  It is defined here, but
//  141 // filled-in in Sound_Init().  Another way to go would be to fill
//  142 // in the structure here and make it a "const" (in code space).  The
//  143 // way it's defined in this sample app it is define in RAM.

        RSEG XDATA_Z:XDATA:NOROOT(0)
        DATA8
//  144 endPointDesc_t Sound_epDesc;
Sound_epDesc:
        DS 6
        REQUIRE __INIT_XDATA_Z
//  145 
//  146 /*********************************************************************
//  147  * EXTERNAL VARIABLES
//  148  */
//  149 
//  150 /*********************************************************************
//  151  * EXTERNAL FUNCTIONS
//  152  */
//  153 
//  154 /*********************************************************************
//  155  * LOCAL VARIABLES
//  156  */

        RSEG XDATA_Z:XDATA:NOROOT(0)
        DATA8
//  157 byte Sound_TaskID;   // Task ID for internal task/event processing
Sound_TaskID:
        DS 1
        REQUIRE __INIT_XDATA_Z
//  158                           // This variable will be received when
//  159                           // Sound_Init() is called.

        RSEG XDATA_Z:XDATA:NOROOT(0)
        DATA8
//  160 devStates_t Sound_NwkState;
Sound_NwkState:
        DS 1
        REQUIRE __INIT_XDATA_Z
//  161 
//  162 

        RSEG XDATA_Z:XDATA:NOROOT(0)
        DATA8
//  163 byte Sound_TransID;  // This is the unique message ID (counter)
Sound_TransID:
        DS 1
        REQUIRE __INIT_XDATA_Z
//  164 

        RSEG XDATA_Z:XDATA:NOROOT(0)
        DATA8
//  165 afAddrType_t Sound_DstAddr;
Sound_DstAddr:
        DS 12
        REQUIRE __INIT_XDATA_Z
//  166 

        RSEG XDATA_Z:XDATA:NOROOT(0)
        DATA8
//  167 byte SoundMeasurement_TaskID;
SoundMeasurement_TaskID:
        DS 1
        REQUIRE __INIT_XDATA_Z

        RSEG XDATA_Z:XDATA:NOROOT(0)
        DATA8
//  168 devStates_t SoundMeasurement_NwkState;
SoundMeasurement_NwkState:
        DS 1
        REQUIRE __INIT_XDATA_Z

        RSEG XDATA_Z:XDATA:NOROOT(0)
        DATA8
//  169 byte SoundMeasurement_TransID;
SoundMeasurement_TransID:
        DS 1
        REQUIRE __INIT_XDATA_Z
//  170 

        RSEG XDATA_Z:XDATA:NOROOT(0)
        DATA16
//  171 unsigned int isound=0;
isound:
        DS 2
        REQUIRE __INIT_XDATA_Z
//  172 
//  173 /*********************************************************************
//  174  * LOCAL FUNCTIONS
//  175  */
//  176 static void Sound_ProcessZDOMsgs( zdoIncomingMsg_t *inMsg );
//  177 static void Sound_HandleKeys( byte shift, byte keys );
//  178 static void Sound_MessageMSGCB( afIncomingMSGPacket_t *pckt );
//  179 static void Sound_SendTheMessage( void );
//  180 
//  181 #if defined( IAR_ARMCM3_LM )
//  182 static void Sound_ProcessRtosMessage( void );
//  183 #endif
//  184 
//  185 /*********************************************************************
//  186  * NETWORK LAYER CALLBACKS
//  187  */
//  188 
//  189 /*********************************************************************
//  190  * PUBLIC FUNCTIONS
//  191  */
//  192 
//  193 /*********************************************************************
//  194  * @fn      Sound_Init
//  195  *
//  196  * @brief   Initialization function for the Generic App Task.
//  197  *          This is called during initialization and should contain
//  198  *          any application specific initialization (ie. hardware
//  199  *          initialization/setup, table initialization, power up
//  200  *          notificaiton ... ).
//  201  *
//  202  * @param   task_id - the ID assigned by OSAL.  This ID should be
//  203  *                    used to send messages and set timers.
//  204  *
//  205  * @return  none
//  206  */

        RSEG BANKED_CODE:CODE:NOROOT(0)
//  207 void Sound_Init( uint8 task_id )
Sound_Init:
        CFI Block cfiBlock0 Using cfiCommon0
        CFI Function Sound_Init
        CODE
//  208 {
        FUNCALL Sound_Init, afRegister
        LOCFRAME ISTACK, 0, STACK
        LOCFRAME PSTACK, 0, STACK
        LOCFRAME XSTACK, 9, STACK
        LOCFRAME IOVERLAY, 0, STATIC
        LOCFRAME DOVERLAY, 0, STATIC
        ARGFRAME ISTACK, 0, STACK
        ARGFRAME PSTACK, 0, STACK
        ARGFRAME XSTACK, 9, STACK
        ARGFRAME IOVERLAY, 0, STATIC
        ARGFRAME DOVERLAY, 0, STATIC
        FUNCALL Sound_Init, RegisterForKeys
        LOCFRAME ISTACK, 0, STACK
        LOCFRAME PSTACK, 0, STACK
        LOCFRAME XSTACK, 9, STACK
        LOCFRAME IOVERLAY, 0, STATIC
        LOCFRAME DOVERLAY, 0, STATIC
        ARGFRAME ISTACK, 0, STACK
        ARGFRAME PSTACK, 0, STACK
        ARGFRAME XSTACK, 9, STACK
        ARGFRAME IOVERLAY, 0, STATIC
        ARGFRAME DOVERLAY, 0, STATIC
        FUNCALL Sound_Init, HalLcdWriteString
        LOCFRAME ISTACK, 0, STACK
        LOCFRAME PSTACK, 0, STACK
        LOCFRAME XSTACK, 9, STACK
        LOCFRAME IOVERLAY, 0, STATIC
        LOCFRAME DOVERLAY, 0, STATIC
        ARGFRAME ISTACK, 0, STACK
        ARGFRAME PSTACK, 0, STACK
        ARGFRAME XSTACK, 9, STACK
        ARGFRAME IOVERLAY, 0, STATIC
        ARGFRAME DOVERLAY, 0, STATIC
        FUNCALL Sound_Init, ZDO_RegisterForZDOMsg
        LOCFRAME ISTACK, 0, STACK
        LOCFRAME PSTACK, 0, STACK
        LOCFRAME XSTACK, 9, STACK
        LOCFRAME IOVERLAY, 0, STATIC
        LOCFRAME DOVERLAY, 0, STATIC
        ARGFRAME ISTACK, 0, STACK
        ARGFRAME PSTACK, 0, STACK
        ARGFRAME XSTACK, 9, STACK
        ARGFRAME IOVERLAY, 0, STATIC
        ARGFRAME DOVERLAY, 0, STATIC
        FUNCALL Sound_Init, ZDO_RegisterForZDOMsg
        LOCFRAME ISTACK, 0, STACK
        LOCFRAME PSTACK, 0, STACK
        LOCFRAME XSTACK, 9, STACK
        LOCFRAME IOVERLAY, 0, STATIC
        LOCFRAME DOVERLAY, 0, STATIC
        ARGFRAME ISTACK, 0, STACK
        ARGFRAME PSTACK, 0, STACK
        ARGFRAME XSTACK, 9, STACK
        ARGFRAME IOVERLAY, 0, STATIC
        ARGFRAME DOVERLAY, 0, STATIC
        MOV     A,#-0x9
        LCALL   ?BANKED_ENTER_XDATA
        CFI DPH0 load(1, XDATA, add(CFA_XSP16, literal(-1)))
        CFI DPL0 load(1, XDATA, add(CFA_XSP16, literal(-2)))
        CFI ?BRET_EXT load(1, XDATA, add(CFA_XSP16, literal(-3)))
        CFI ?RET_HIGH load(1, XDATA, add(CFA_XSP16, literal(-4)))
        CFI ?RET_LOW load(1, XDATA, add(CFA_XSP16, literal(-5)))
        CFI R7 load(1, XDATA, add(CFA_XSP16, literal(-6)))
        CFI V0 load(1, XDATA, add(CFA_XSP16, literal(-7)))
        CFI VB load(1, XDATA, add(CFA_XSP16, literal(-8)))
        CFI R6 load(1, XDATA, add(CFA_XSP16, literal(-9)))
        CFI CFA_SP SP+0
        CFI CFA_XSP16 add(XSP16, 9)
        ; Saved register size: 9
        ; Auto size: 0
        MOV     A,R1
//  209   Sound_TaskID = task_id;
        MOV     DPTR,#Sound_TaskID
        MOVX    @DPTR,A
//  210   Sound_NwkState = DEV_INIT;
        MOV     DPTR,#Sound_NwkState
        MOV     A,#0x1
        MOVX    @DPTR,A
//  211   Sound_TransID = 0;
        MOV     DPTR,#Sound_TransID
        CLR     A
        MOVX    @DPTR,A
//  212 
//  213   // Device hardware initialization can be added here or in main() (Zmain.c).
//  214   // If the hardware is application specific - add it here.
//  215   // If the hardware is other parts of the device add it in main().
//  216 
//  217   Sound_DstAddr.addrMode = (afAddrMode_t)AddrNotPresent;
        MOV     DPTR,#Sound_DstAddr + 8
        MOVX    @DPTR,A
//  218   Sound_DstAddr.endPoint = 0;
        INC     DPTR
        MOVX    @DPTR,A
//  219   Sound_DstAddr.addr.shortAddr = 0;
        MOV     DPTR,#Sound_DstAddr
        MOVX    @DPTR,A
        INC     DPTR
        MOVX    @DPTR,A
//  220 
//  221   // Fill out the endpoint description.
//  222   Sound_epDesc.endPoint = Sound_ENDPOINT;
        MOV     DPTR,#Sound_epDesc
        MOV     A,#0xa
        MOVX    @DPTR,A
//  223   Sound_epDesc.task_id = &Sound_TaskID;
        INC     DPTR
        MOV     A,#Sound_TaskID & 0xff
        MOVX    @DPTR,A
        INC     DPTR
        MOV     A,#(Sound_TaskID >> 8) & 0xff
        MOVX    @DPTR,A
//  224   Sound_epDesc.simpleDesc
//  225             = (SimpleDescriptionFormat_t *)&Sound_SimpleDesc;
        INC     DPTR
        MOV     A,#Sound_SimpleDesc & 0xff
        MOVX    @DPTR,A
        INC     DPTR
        MOV     A,#(Sound_SimpleDesc >> 8) & 0xff
        MOVX    @DPTR,A
//  226   Sound_epDesc.latencyReq = noLatencyReqs;
        INC     DPTR
        CLR     A
        MOVX    @DPTR,A
//  227 
//  228   // Register the endpoint description with the AF
//  229   afRegister( &Sound_epDesc );
        ; Setup parameters for call to function afRegister
        MOV     R2,#Sound_epDesc & 0xff
        MOV     R3,#(Sound_epDesc >> 8) & 0xff
        LCALL   ??afRegister?relay
//  230 
//  231   // Register for all key events - This app will handle all key events
//  232   RegisterForKeys( Sound_TaskID );
        ; Setup parameters for call to function RegisterForKeys
        MOV     DPTR,#Sound_TaskID
        MOVX    A,@DPTR
        MOV     R1,A
        LCALL   ??RegisterForKeys?relay
//  233 
//  234   // Update the display
//  235 #if defined ( LCD_SUPPORTED )
//  236   HalLcdWriteString( "Sound", HAL_LCD_LINE_1 );
        ; Setup parameters for call to function HalLcdWriteString
        MOV     R1,#0x1
        MOV     R2,#`?<Constant "Sound">` & 0xff
        MOV     R3,#(`?<Constant "Sound">` >> 8) & 0xff
        LCALL   ??HalLcdWriteString?relay
//  237 #endif
//  238 
//  239   ZDO_RegisterForZDOMsg( Sound_TaskID, End_Device_Bind_rsp );
        ; Setup parameters for call to function ZDO_RegisterForZDOMsg
        MOV     R2,#0x20
        MOV     R3,#-0x80
        MOV     DPTR,#Sound_TaskID
        MOVX    A,@DPTR
        MOV     R1,A
        LCALL   ??ZDO_RegisterForZDOMsg?relay
//  240   ZDO_RegisterForZDOMsg( Sound_TaskID, Match_Desc_rsp );
        ; Setup parameters for call to function ZDO_RegisterForZDOMsg
        MOV     R2,#0x6
        MOV     R3,#-0x80
        MOV     DPTR,#Sound_TaskID
        MOVX    A,@DPTR
        MOV     R1,A
        LCALL   ??ZDO_RegisterForZDOMsg?relay
        CFI EndBlock cfiBlock0
//  241 
//  242 #if defined( IAR_ARMCM3_LM )
//  243   // Register this task with RTOS task initiator
//  244   RTOS_RegisterApp( task_id, Sound_RTOS_MSG_EVT );
//  245 #endif
//  246 }
        REQUIRE ?Subroutine0
        ; // Fall through to label ?Subroutine0

        RSEG BANKED_CODE:CODE:NOROOT(0)
?Subroutine0:
        CFI Block cfiBlock1 Using cfiCommon0
        CFI NoFunction
        CFI CFA_SP SP+0
        CFI CFA_XSP16 add(XSP16, 9)
        CFI VB load(1, XDATA, add(CFA_XSP16, literal(-8)))
        CFI DPL0 load(1, XDATA, add(CFA_XSP16, literal(-2)))
        CFI DPH0 load(1, XDATA, add(CFA_XSP16, literal(-1)))
        CFI R6 load(1, XDATA, add(CFA_XSP16, literal(-9)))
        CFI R7 load(1, XDATA, add(CFA_XSP16, literal(-6)))
        CFI V0 load(1, XDATA, add(CFA_XSP16, literal(-7)))
        CFI ?BRET_EXT load(1, XDATA, add(CFA_XSP16, literal(-3)))
        CFI ?RET_HIGH load(1, XDATA, add(CFA_XSP16, literal(-4)))
        CFI ?RET_LOW load(1, XDATA, add(CFA_XSP16, literal(-5)))
        MOV     R7,#0x1
        LJMP    ?BANKED_LEAVE_XDATA
        CFI EndBlock cfiBlock1
//  247 
//  248 /*********************************************************************
//  249  * @fn      Sound_ProcessEvent
//  250  *
//  251  * @brief   Generic Application Task event processor.  This function
//  252  *          is called to process all events for the task.  Events
//  253  *          include timers, messages and any other user defined events.
//  254  *
//  255  * @param   task_id  - The OSAL assigned task ID.
//  256  * @param   events - events to process.  This is a bit map and can
//  257  *                   contain more than one event.
//  258  *
//  259  * @return  none
//  260  */
//  261 //KET1 外部中断方式

        RSEG BANKED_CODE:CODE:NOROOT(0)
//  262 void InitKey2(void)
InitKey2:
        CFI Block cfiBlock2 Using cfiCommon0
        CFI Function InitKey2
        CODE
//  263 {
        ; Saved register size: 0
        ; Auto size: 0
//  264   P1IEN |= 0X08;
        ORL     0x8d,#0x8
//  265   PICTL |= 0X2; // 下降沿触发   
        ORL     0x8c,#0x2
//  266   IEN2 |= 0X10;   // 允许P1口中断; 
        ORL     0x9a,#0x10
//  267   P1IFG = 0x08;   // 初始化中断标志位
        MOV     0x8a,#0x8
//  268   P1DIR |= 0x13;
        ORL     0xfe,#0x13
//  269   EA = 1; 
        SETB    0xa8.7
//  270 }
        LJMP    ?BRET
        CFI EndBlock cfiBlock2
        REQUIRE P1IEN
        REQUIRE PICTL
        REQUIRE IEN2
        REQUIRE P1IFG
        REQUIRE P1DIR
        REQUIRE _A_IEN0
//  271 

        RSEG BANKED_CODE:CODE:NOROOT(0)
//  272 uint16 Sound_ProcessEvent( uint8 task_id, uint16 events )
Sound_ProcessEvent:
        CFI Block cfiBlock3 Using cfiCommon0
        CFI Function Sound_ProcessEvent
        CODE
//  273 {
        FUNCALL Sound_ProcessEvent, osal_msg_receive
        LOCFRAME ISTACK, 0, STACK
        LOCFRAME PSTACK, 0, STACK
        LOCFRAME XSTACK, 23, STACK
        LOCFRAME IOVERLAY, 0, STATIC
        LOCFRAME DOVERLAY, 0, STATIC
        ARGFRAME ISTACK, 0, STACK
        ARGFRAME PSTACK, 0, STACK
        ARGFRAME XSTACK, 23, STACK
        ARGFRAME IOVERLAY, 0, STATIC
        ARGFRAME DOVERLAY, 0, STATIC
        FUNCALL Sound_ProcessEvent, osal_start_timerEx
        LOCFRAME ISTACK, 0, STACK
        LOCFRAME PSTACK, 0, STACK
        LOCFRAME XSTACK, 23, STACK
        LOCFRAME IOVERLAY, 0, STATIC
        LOCFRAME DOVERLAY, 0, STATIC
        ARGFRAME ISTACK, 0, STACK
        ARGFRAME PSTACK, 0, STACK
        ARGFRAME XSTACK, 23, STACK
        ARGFRAME IOVERLAY, 0, STATIC
        ARGFRAME DOVERLAY, 0, STATIC
        FUNCALL Sound_ProcessEvent, osal_msg_deallocate
        LOCFRAME ISTACK, 0, STACK
        LOCFRAME PSTACK, 0, STACK
        LOCFRAME XSTACK, 23, STACK
        LOCFRAME IOVERLAY, 0, STATIC
        LOCFRAME DOVERLAY, 0, STATIC
        ARGFRAME ISTACK, 0, STACK
        ARGFRAME PSTACK, 0, STACK
        ARGFRAME XSTACK, 23, STACK
        ARGFRAME IOVERLAY, 0, STATIC
        ARGFRAME DOVERLAY, 0, STATIC
        FUNCALL Sound_ProcessEvent, osal_msg_receive
        LOCFRAME ISTACK, 0, STACK
        LOCFRAME PSTACK, 0, STACK
        LOCFRAME XSTACK, 23, STACK
        LOCFRAME IOVERLAY, 0, STATIC
        LOCFRAME DOVERLAY, 0, STATIC
        ARGFRAME ISTACK, 0, STACK
        ARGFRAME PSTACK, 0, STACK
        ARGFRAME XSTACK, 23, STACK
        ARGFRAME IOVERLAY, 0, STATIC
        ARGFRAME DOVERLAY, 0, STATIC
        FUNCALL Sound_ProcessEvent, ZDO_ParseEPListRsp
        LOCFRAME ISTACK, 0, STACK
        LOCFRAME PSTACK, 0, STACK
        LOCFRAME XSTACK, 23, STACK
        LOCFRAME IOVERLAY, 0, STATIC
        LOCFRAME DOVERLAY, 0, STATIC
        ARGFRAME ISTACK, 0, STACK
        ARGFRAME PSTACK, 0, STACK
        ARGFRAME XSTACK, 23, STACK
        ARGFRAME IOVERLAY, 0, STATIC
        ARGFRAME DOVERLAY, 0, STATIC
        FUNCALL Sound_ProcessEvent, HalLedSet
        LOCFRAME ISTACK, 0, STACK
        LOCFRAME PSTACK, 0, STACK
        LOCFRAME XSTACK, 23, STACK
        LOCFRAME IOVERLAY, 0, STATIC
        LOCFRAME DOVERLAY, 0, STATIC
        ARGFRAME ISTACK, 0, STACK
        ARGFRAME PSTACK, 0, STACK
        ARGFRAME XSTACK, 23, STACK
        ARGFRAME IOVERLAY, 0, STATIC
        ARGFRAME DOVERLAY, 0, STATIC
        FUNCALL Sound_ProcessEvent, osal_mem_free
        LOCFRAME ISTACK, 0, STACK
        LOCFRAME PSTACK, 0, STACK
        LOCFRAME XSTACK, 23, STACK
        LOCFRAME IOVERLAY, 0, STATIC
        LOCFRAME DOVERLAY, 0, STATIC
        ARGFRAME ISTACK, 0, STACK
        ARGFRAME PSTACK, 0, STACK
        ARGFRAME XSTACK, 23, STACK
        ARGFRAME IOVERLAY, 0, STATIC
        ARGFRAME DOVERLAY, 0, STATIC
        FUNCALL Sound_ProcessEvent, HalLedSet
        LOCFRAME ISTACK, 0, STACK
        LOCFRAME PSTACK, 0, STACK
        LOCFRAME XSTACK, 23, STACK
        LOCFRAME IOVERLAY, 0, STATIC
        LOCFRAME DOVERLAY, 0, STATIC
        ARGFRAME ISTACK, 0, STACK
        ARGFRAME PSTACK, 0, STACK
        ARGFRAME XSTACK, 23, STACK
        ARGFRAME IOVERLAY, 0, STATIC
        ARGFRAME DOVERLAY, 0, STATIC
        FUNCALL Sound_ProcessEvent, HalLedSet
        LOCFRAME ISTACK, 0, STACK
        LOCFRAME PSTACK, 0, STACK
        LOCFRAME XSTACK, 23, STACK
        LOCFRAME IOVERLAY, 0, STATIC
        LOCFRAME DOVERLAY, 0, STATIC
        ARGFRAME ISTACK, 0, STACK
        ARGFRAME PSTACK, 0, STACK
        ARGFRAME XSTACK, 23, STACK
        ARGFRAME IOVERLAY, 0, STATIC
        ARGFRAME DOVERLAY, 0, STATIC
        FUNCALL Sound_ProcessEvent, HalLedSet
        LOCFRAME ISTACK, 0, STACK
        LOCFRAME PSTACK, 0, STACK
        LOCFRAME XSTACK, 23, STACK
        LOCFRAME IOVERLAY, 0, STATIC
        LOCFRAME DOVERLAY, 0, STATIC
        ARGFRAME ISTACK, 0, STACK
        ARGFRAME PSTACK, 0, STACK
        ARGFRAME XSTACK, 23, STACK
        ARGFRAME IOVERLAY, 0, STATIC
        ARGFRAME DOVERLAY, 0, STATIC
        FUNCALL Sound_ProcessEvent, NLME_GetShortAddr
        LOCFRAME ISTACK, 0, STACK
        LOCFRAME PSTACK, 0, STACK
        LOCFRAME XSTACK, 23, STACK
        LOCFRAME IOVERLAY, 0, STATIC
        LOCFRAME DOVERLAY, 0, STATIC
        ARGFRAME ISTACK, 0, STACK
        ARGFRAME PSTACK, 0, STACK
        ARGFRAME XSTACK, 23, STACK
        ARGFRAME IOVERLAY, 0, STATIC
        ARGFRAME DOVERLAY, 0, STATIC
        FUNCALL Sound_ProcessEvent, ZDP_EndDeviceBindReq
        LOCFRAME ISTACK, 0, STACK
        LOCFRAME PSTACK, 0, STACK
        LOCFRAME XSTACK, 32, STACK
        LOCFRAME IOVERLAY, 0, STATIC
        LOCFRAME DOVERLAY, 0, STATIC
        ARGFRAME ISTACK, 0, STACK
        ARGFRAME PSTACK, 0, STACK
        ARGFRAME XSTACK, 32, STACK
        ARGFRAME IOVERLAY, 0, STATIC
        ARGFRAME DOVERLAY, 0, STATIC
        FUNCALL Sound_ProcessEvent, HalLedSet
        LOCFRAME ISTACK, 0, STACK
        LOCFRAME PSTACK, 0, STACK
        LOCFRAME XSTACK, 23, STACK
        LOCFRAME IOVERLAY, 0, STATIC
        LOCFRAME DOVERLAY, 0, STATIC
        ARGFRAME ISTACK, 0, STACK
        ARGFRAME PSTACK, 0, STACK
        ARGFRAME XSTACK, 23, STACK
        ARGFRAME IOVERLAY, 0, STATIC
        ARGFRAME DOVERLAY, 0, STATIC
        FUNCALL Sound_ProcessEvent, ZDP_MatchDescReq
        LOCFRAME ISTACK, 0, STACK
        LOCFRAME PSTACK, 0, STACK
        LOCFRAME XSTACK, 31, STACK
        LOCFRAME IOVERLAY, 0, STATIC
        LOCFRAME DOVERLAY, 0, STATIC
        ARGFRAME ISTACK, 0, STACK
        ARGFRAME PSTACK, 0, STACK
        ARGFRAME XSTACK, 31, STACK
        ARGFRAME IOVERLAY, 0, STATIC
        ARGFRAME DOVERLAY, 0, STATIC
        FUNCALL Sound_ProcessEvent, HalLcdWriteScreen
        LOCFRAME ISTACK, 0, STACK
        LOCFRAME PSTACK, 0, STACK
        LOCFRAME XSTACK, 23, STACK
        LOCFRAME IOVERLAY, 0, STATIC
        LOCFRAME DOVERLAY, 0, STATIC
        ARGFRAME ISTACK, 0, STACK
        ARGFRAME PSTACK, 0, STACK
        ARGFRAME XSTACK, 23, STACK
        ARGFRAME IOVERLAY, 0, STATIC
        ARGFRAME DOVERLAY, 0, STATIC
        FUNCALL Sound_ProcessEvent, Sound_SendTheMessage
        LOCFRAME ISTACK, 0, STACK
        LOCFRAME PSTACK, 0, STACK
        LOCFRAME XSTACK, 23, STACK
        LOCFRAME IOVERLAY, 0, STATIC
        LOCFRAME DOVERLAY, 0, STATIC
        ARGFRAME ISTACK, 0, STACK
        ARGFRAME PSTACK, 0, STACK
        ARGFRAME XSTACK, 23, STACK
        ARGFRAME IOVERLAY, 0, STATIC
        ARGFRAME DOVERLAY, 0, STATIC
        FUNCALL Sound_ProcessEvent, osal_start_timerEx
        LOCFRAME ISTACK, 0, STACK
        LOCFRAME PSTACK, 0, STACK
        LOCFRAME XSTACK, 23, STACK
        LOCFRAME IOVERLAY, 0, STATIC
        LOCFRAME DOVERLAY, 0, STATIC
        ARGFRAME ISTACK, 0, STACK
        ARGFRAME PSTACK, 0, STACK
        ARGFRAME XSTACK, 23, STACK
        ARGFRAME IOVERLAY, 0, STATIC
        ARGFRAME DOVERLAY, 0, STATIC
        MOV     A,#-0xe
        LCALL   ?BANKED_ENTER_XDATA
        CFI DPH0 load(1, XDATA, add(CFA_XSP16, literal(-1)))
        CFI DPL0 load(1, XDATA, add(CFA_XSP16, literal(-2)))
        CFI ?BRET_EXT load(1, XDATA, add(CFA_XSP16, literal(-3)))
        CFI ?RET_HIGH load(1, XDATA, add(CFA_XSP16, literal(-4)))
        CFI ?RET_LOW load(1, XDATA, add(CFA_XSP16, literal(-5)))
        CFI R7 load(1, XDATA, add(CFA_XSP16, literal(-6)))
        CFI V5 load(1, XDATA, add(CFA_XSP16, literal(-7)))
        CFI V4 load(1, XDATA, add(CFA_XSP16, literal(-8)))
        CFI V3 load(1, XDATA, add(CFA_XSP16, literal(-9)))
        CFI V2 load(1, XDATA, add(CFA_XSP16, literal(-10)))
        CFI V1 load(1, XDATA, add(CFA_XSP16, literal(-11)))
        CFI V0 load(1, XDATA, add(CFA_XSP16, literal(-12)))
        CFI VB load(1, XDATA, add(CFA_XSP16, literal(-13)))
        CFI R6 load(1, XDATA, add(CFA_XSP16, literal(-14)))
        CFI CFA_SP SP+0
        CFI CFA_XSP16 add(XSP16, 14)
        ; Saved register size: 14
        ; Auto size: 9
        MOV     A,#-0x9
        LCALL   ?ALLOC_XSTACK8
        CFI CFA_XSP16 add(XSP16, 23)
        MOV     A,R2
        MOV     R6,A
        MOV     A,R3
        MOV     R7,A
//  274   afIncomingMSGPacket_t *MSGpkt;
//  275   afDataConfirm_t *afDataConfirm;
//  276 
//  277   // Data Confirmation message fields
//  278   byte sentEP;
//  279   ZStatus_t sentStatus;
//  280   byte sentTransID;       // This should match the value sent
//  281   (void)task_id;  // Intentionally unreferenced parameter
//  282 
//  283   if ( events & SYS_EVENT_MSG )
        ANL     A,#0x80
        JNZ     $+5
        LJMP    ??Sound_ProcessEvent_0 & 0xFFFF
//  284   {
//  285     MSGpkt = (afIncomingMSGPacket_t *)osal_msg_receive( Sound_TaskID );
        ; Setup parameters for call to function osal_msg_receive
        SJMP    ??Sound_ProcessEvent_1
//  286     while ( MSGpkt )
//  287     {
//  288       switch ( MSGpkt->hdr.event )
//  289       {
//  290         case ZDO_CB_MSG:
//  291           Sound_ProcessZDOMsgs( (zdoIncomingMsg_t *)MSGpkt );
//  292           break;
//  293 
//  294         case KEY_CHANGE:
//  295           Sound_HandleKeys( ((keyChange_t *)MSGpkt)->state, ((keyChange_t *)MSGpkt)->keys );
//  296           break;
//  297 
//  298         case AF_DATA_CONFIRM_CMD:
//  299           // This message is received as a confirmation of a data packet sent.
//  300           // The status is of ZStatus_t type [defined in ZComDef.h]
//  301           // The message fields are defined in AF.h
//  302           afDataConfirm = (afDataConfirm_t *)MSGpkt;
//  303           sentEP = afDataConfirm->endpoint;
//  304           sentStatus = afDataConfirm->hdr.status;
//  305           sentTransID = afDataConfirm->transID;
//  306           (void)sentEP;
//  307           (void)sentTransID;
//  308 
//  309           // Action taken when confirmation is received.
//  310           if ( sentStatus != ZSuccess )
//  311           {
//  312             // The data wasn't delivered -- Do something
//  313           }
//  314           break;
//  315 
//  316         case AF_INCOMING_MSG_CMD:
//  317           Sound_MessageMSGCB( MSGpkt );
//  318           break;
//  319 
//  320         case ZDO_STATE_CHANGE:
//  321           Sound_NwkState = (devStates_t)(MSGpkt->hdr.status);
??Sound_ProcessEvent_2:
        INC     DPTR
        MOVX    A,@DPTR
        MOV     DPTR,#Sound_NwkState
        MOVX    @DPTR,A
//  322           if ( (Sound_NwkState == DEV_ZB_COORD)
//  323               || (Sound_NwkState == DEV_ROUTER)
//  324               || (Sound_NwkState == DEV_END_DEVICE) )
        XRL     A,#0x9
        JZ      ??Sound_ProcessEvent_3
        MOVX    A,@DPTR
        XRL     A,#0x7
        JZ      ??Sound_ProcessEvent_3
        MOVX    A,@DPTR
        XRL     A,#0x6
        JNZ     ??CrossCallReturnLabel_2
//  325           {
//  326             // Start sending "the" message in a regular interval.
//  327             osal_start_timerEx( Sound_TaskID,
//  328                                 Sound_SEND_MSG_EVT,
//  329                                 Sound_SEND_MSG_TIMEOUT );
??Sound_ProcessEvent_3:
        ; Setup parameters for call to function osal_start_timerEx
        LCALL   ?Subroutine2 & 0xFFFF
//  330           }
//  331           break;
//  332 
//  333         default:
//  334           break;
//  335       }
//  336 
//  337       // Release the memory
//  338       osal_msg_deallocate( (uint8 *)MSGpkt );
??CrossCallReturnLabel_2:
        ; Setup parameters for call to function osal_msg_deallocate
        MOV     R2,?V0 + 0
        MOV     R3,?V0 + 1
        LCALL   ??osal_msg_deallocate?relay
//  339 
//  340       // Next
//  341       MSGpkt = (afIncomingMSGPacket_t *)osal_msg_receive( Sound_TaskID );
        ; Setup parameters for call to function osal_msg_receive
??Sound_ProcessEvent_1:
        MOV     DPTR,#Sound_TaskID
        MOVX    A,@DPTR
        MOV     R1,A
        LCALL   ??osal_msg_receive?relay
        MOV     ?V0 + 0,R2
        MOV     ?V0 + 1,R3
        MOV     A,?V0 + 0
        ORL     A,?V0 + 1
        JNZ     $+5
        LJMP    ??Sound_ProcessEvent_4 & 0xFFFF
        MOV     DPL,?V0 + 0
        MOV     DPH,?V0 + 1
        MOVX    A,@DPTR
        ADD     A,#-0x1a
        JNZ     $+5
        LJMP    ??Sound_ProcessEvent_5 & 0xFFFF
        ADD     A,#0x5a
        JNZ     $+5
        LJMP    ??Sound_ProcessEvent_6 & 0xFFFF
        ADD     A,#-0x11
        JZ      ??Sound_ProcessEvent_2
        ADD     A,#-0x2
        JNZ     ??CrossCallReturnLabel_2
        MOV     A,?V0 + 0
        ADD     A,#0xc
        MOV     DPL,A
        MOV     A,?V0 + 1
        ADDC    A,#0x0
        MOV     DPH,A
        MOVX    A,@DPTR
        MOV     ?V0 + 2,A
        INC     DPTR
        MOVX    A,@DPTR
        MOV     ?V0 + 3,A
        MOV     R0,#?V0 + 2
        LCALL   ?US_SWITCH_SPARSE
`?<Jumptable for Sound_ProcessEvent>_0`:
        DATA
        DATA16
        DATA
        DATA16
        DATA
        DATA16
        DW        0
        DATA
        DATA16
        DATA
        DATA16
        DATA
        DATA16
        DW        2
        DATA
        DATA16
        DATA
        DATA16
        DATA
        DATA16
        DW        32774
        DATA
        DATA16
        DATA
        DATA16
        DATA
        DATA16
        DW        ??Sound_ProcessEvent_7
        DATA
        DATA16
        DATA
        DATA16
        DATA
        DATA16
        DW        32800
        DATA
        DATA16
        DATA
        DATA16
        DATA
        DATA16
        DW        ??Sound_ProcessEvent_8
        DATA
        DATA16
        DATA
        DATA16
        DW        ??CrossCallReturnLabel_2
        CODE
??Sound_ProcessEvent_7:
        ; Setup parameters for call to function ZDO_ParseEPListRsp
        MOV     R2,?V0 + 0
        MOV     R3,?V0 + 1
        LCALL   ??ZDO_ParseEPListRsp?relay
        MOV     ?V0 + 2,R2
        MOV     ?V0 + 3,R3
        MOV     A,R2
        ORL     A,?V0 + 3
        JZ      ??CrossCallReturnLabel_2
        MOV     DPL,R2
        MOV     DPH,R3
        MOVX    A,@DPTR
        JNZ     ??Sound_ProcessEvent_9
        INC     DPTR
        INC     DPTR
        INC     DPTR
        MOVX    A,@DPTR
        JZ      ??Sound_ProcessEvent_9
        MOV     DPTR,#Sound_DstAddr + 8
        MOV     A,#0x2
        MOVX    @DPTR,A
        MOV     DPL,R2
        MOV     DPH,R3
        INC     DPTR
        MOVX    A,@DPTR
        MOV     R0,A
        INC     DPTR
        MOVX    A,@DPTR
        MOV     R1,A
        MOV     DPTR,#Sound_DstAddr
        MOV     A,R0
        MOVX    @DPTR,A
        INC     DPTR
        MOV     A,R1
        MOVX    @DPTR,A
        MOV     DPL,R2
        MOV     DPH,R3
        INC     DPTR
        INC     DPTR
        INC     DPTR
        INC     DPTR
        MOVX    A,@DPTR
        MOV     DPTR,#Sound_DstAddr + 9
        MOVX    @DPTR,A
        ; Setup parameters for call to function HalLedSet
        MOV     R2,#0x1
        MOV     R1,#0x8
        LCALL   ??HalLedSet?relay
??Sound_ProcessEvent_9:
        ; Setup parameters for call to function osal_mem_free
        MOV     R2,?V0 + 2
        MOV     R3,?V0 + 3
        LCALL   ??osal_mem_free?relay
        LJMP    ??CrossCallReturnLabel_2 & 0xFFFF
??Sound_ProcessEvent_8:
        MOV     A,?V0 + 0
        ADD     A,#0x13
        MOV     DPL,A
        MOV     A,?V0 + 1
        ADDC    A,#0x0
        MOV     DPH,A
        MOVX    A,@DPTR
        MOV     R0,A
        INC     DPTR
        MOVX    A,@DPTR
        MOV     DPH,A
        MOV     DPL,R0
        MOVX    A,@DPTR
        JNZ     ??Sound_ProcessEvent_10
        ; Setup parameters for call to function HalLedSet
        MOV     R2,#0x1
??Sound_ProcessEvent_11:
        MOV     R1,#0x8
        LCALL   ??HalLedSet?relay
        LJMP    ??CrossCallReturnLabel_2 & 0xFFFF
??Sound_ProcessEvent_10:
        ; Setup parameters for call to function HalLedSet
        MOV     R2,#0x4
        SJMP    ??Sound_ProcessEvent_11
??Sound_ProcessEvent_6:
        INC     DPTR
        INC     DPTR
        INC     DPTR
        MOVX    A,@DPTR
        MOV     ?V0 + 4,A
        MOV     DPL,?V0 + 0
        MOV     DPH,?V0 + 1
        INC     DPTR
        INC     DPTR
        MOVX    A,@DPTR
        JZ      $+5
        LJMP    ??CrossCallReturnLabel_2 & 0xFFFF
        MOV     A,?V0 + 4
        MOV     C,0xE0 /* A   */.1
        JNC     ??Sound_ProcessEvent_12
        ; Setup parameters for call to function HalLedSet
        MOV     R2,#0x0
        MOV     R1,#0x8
        LCALL   ??HalLedSet?relay
        MOV     A,#0x8
        LCALL   ?XSTACK_DISP0_8
        MOV     A,#0x2
        MOVX    @DPTR,A
        MOV     DPL,?XSP + 0
        MOV     DPH,?XSP + 1
        CLR     A
        MOVX    @DPTR,A
        INC     DPTR
        MOVX    @DPTR,A
        ; Setup parameters for call to function NLME_GetShortAddr
        LCALL   ??NLME_GetShortAddr?relay
        MOV     ?V0 + 2,R2
        MOV     ?V0 + 3,R3
        MOV     R4,?V0 + 2
        MOV     R5,?V0 + 3
        MOV     ?V0 + 2,#Sound_ClusterList & 0xff
        MOV     ?V0 + 3,#(Sound_ClusterList >> 8) & 0xff
        ; Setup parameters for call to function ZDP_EndDeviceBindReq
        MOV     ?V0 + 5,#0x0
        MOV     R0,#?V0 + 5
        LCALL   ?PUSH_XSTACK_I_ONE
        CFI CFA_XSP16 add(XSP16, 24)
        MOV     R0,#?V0 + 2
        LCALL   ?PUSH_XSTACK_I_TWO
        CFI CFA_XSP16 add(XSP16, 26)
        MOV     ?V0 + 5,#0x1
        MOV     R0,#?V0 + 5
        LCALL   ?PUSH_XSTACK_I_ONE
        CFI CFA_XSP16 add(XSP16, 27)
        MOV     R0,#?V0 + 2
        LCALL   ?PUSH_XSTACK_I_TWO
        CFI CFA_XSP16 add(XSP16, 29)
        MOV     ?V0 + 2,#0x1
        MOV     R0,#?V0 + 2
        LCALL   ?PUSH_XSTACK_I_ONE
        CFI CFA_XSP16 add(XSP16, 30)
        MOV     ?V0 + 2,#0x4
        MOV     ?V0 + 3,#0xf
        MOV     R0,#?V0 + 2
        LCALL   ?PUSH_XSTACK_I_TWO
        CFI CFA_XSP16 add(XSP16, 32)
        MOV     DPTR,#Sound_epDesc
        MOVX    A,@DPTR
        MOV     R1,A
        MOV     A,#0x9
        LCALL   ?XSTACK_DISP0_8
        MOV     R2,DPL
        MOV     R3,DPH
        LCALL   ??ZDP_EndDeviceBindReq?relay
        MOV     A,#0x9
        LCALL   ?DEALLOC_XSTACK8
        CFI CFA_XSP16 add(XSP16, 23)
??Sound_ProcessEvent_12:
        MOV     A,?V0 + 4
        MOV     C,0xE0 /* A   */.3
        JC      $+5
        LJMP    ??CrossCallReturnLabel_2 & 0xFFFF
        ; Setup parameters for call to function HalLedSet
        MOV     R2,#0x0
        MOV     R1,#0x8
        LCALL   ??HalLedSet?relay
        MOV     A,#0x8
        LCALL   ?XSTACK_DISP0_8
        MOV     A,#0xf
        MOVX    @DPTR,A
        MOV     DPL,?XSP + 0
        MOV     DPH,?XSP + 1
        MOV     A,#-0x1
        MOVX    @DPTR,A
        INC     DPTR
        MOVX    @DPTR,A
        MOV     ?V0 + 2,#Sound_ClusterList & 0xff
        MOV     ?V0 + 3,#(Sound_ClusterList >> 8) & 0xff
        ; Setup parameters for call to function ZDP_MatchDescReq
        MOV     ?V0 + 4,#0x0
        MOV     R0,#?V0 + 4
        LCALL   ?PUSH_XSTACK_I_ONE
        CFI CFA_XSP16 add(XSP16, 24)
        MOV     R0,#?V0 + 2
        LCALL   ?PUSH_XSTACK_I_TWO
        CFI CFA_XSP16 add(XSP16, 26)
        MOV     ?V0 + 4,#0x1
        MOV     R0,#?V0 + 4
        LCALL   ?PUSH_XSTACK_I_ONE
        CFI CFA_XSP16 add(XSP16, 27)
        MOV     R0,#?V0 + 2
        LCALL   ?PUSH_XSTACK_I_TWO
        CFI CFA_XSP16 add(XSP16, 29)
        MOV     ?V0 + 2,#0x4
        MOV     ?V0 + 3,#0xf
        MOV     R0,#?V0 + 2
        LCALL   ?PUSH_XSTACK_I_TWO
        CFI CFA_XSP16 add(XSP16, 31)
        MOV     R1,#0x1
        MOV     R4,#-0x1
        MOV     R5,#-0x1
        MOV     A,#0x8
        LCALL   ?XSTACK_DISP0_8
        MOV     R2,DPL
        MOV     R3,DPH
        LCALL   ??ZDP_MatchDescReq?relay
        MOV     A,#0x8
        LCALL   ?DEALLOC_XSTACK8
        CFI CFA_XSP16 add(XSP16, 23)
        LJMP    ??CrossCallReturnLabel_2 & 0xFFFF
??Sound_ProcessEvent_5:
        INC     DPTR
        INC     DPTR
        INC     DPTR
        INC     DPTR
        MOVX    A,@DPTR
        XRL     A,#0x3
        JNZ     ??Sound_ProcessEvent_13
        INC     DPTR
        MOVX    A,@DPTR
??Sound_ProcessEvent_13:
        JZ      $+5
        LJMP    ??CrossCallReturnLabel_2 & 0xFFFF
        ; Setup parameters for call to function HalLcdWriteScreen
        MOV     R4,#`?<Constant "rcvd">` & 0xff
        MOV     R5,#(`?<Constant "rcvd">` >> 8) & 0xff
        MOV     A,?V0 + 0
        ADD     A,#0x22
        MOV     DPL,A
        MOV     A,?V0 + 1
        ADDC    A,#0x0
        MOV     DPH,A
        MOVX    A,@DPTR
        MOV     R2,A
        INC     DPTR
        MOVX    A,@DPTR
        MOV     R3,A
        LCALL   ??HalLcdWriteScreen?relay
        LJMP    ??CrossCallReturnLabel_2 & 0xFFFF
//  342     }
//  343 
//  344     // return unprocessed events
//  345     return (events ^ SYS_EVENT_MSG);
??Sound_ProcessEvent_4:
        MOV     A,R6
        MOV     R2,A
        MOV     A,R7
        XRL     A,#0x80
??Sound_ProcessEvent_14:
        MOV     R3,A
        SJMP    ??Sound_ProcessEvent_15
//  346   }
//  347 
//  348   // Send a message out - This event is generated by a timer
//  349   //  (setup in Sound_Init()).
//  350   if ( events & Sound_SEND_MSG_EVT )
??Sound_ProcessEvent_0:
        MOV     A,R6
        MOV     C,0xE0 /* A   */.0
        JNC     ??Sound_ProcessEvent_16
//  351   {
//  352     // Send "the" message
//  353     Sound_SendTheMessage();
        ; Setup parameters for call to function Sound_SendTheMessage
        LCALL   ??Sound_SendTheMessage?relay
//  354 
//  355     // Setup to send message again
//  356     osal_start_timerEx( Sound_TaskID,
//  357                         Sound_SEND_MSG_EVT,
//  358                         Sound_SEND_MSG_TIMEOUT );
        ; Setup parameters for call to function osal_start_timerEx
        LCALL   ?Subroutine2 & 0xFFFF
//  359 
//  360     // return unprocessed events
//  361     return (events ^ Sound_SEND_MSG_EVT);
??CrossCallReturnLabel_3:
        MOV     A,R6
        XRL     A,#0x1
        MOV     R2,A
        MOV     A,R7
        SJMP    ??Sound_ProcessEvent_14
//  362   }
//  363 
//  364   
//  365 #if defined( IAR_ARMCM3_LM )
//  366   // Receive a message from the RTOS queue
//  367   if ( events & Sound_RTOS_MSG_EVT )
//  368   {
//  369     // Process message from RTOS queue
//  370     Sound_ProcessRtosMessage();
//  371 
//  372     // return unprocessed events
//  373     return (events ^ Sound_RTOS_MSG_EVT);
//  374   }
//  375 #endif
//  376 
//  377   // Discard unknown events
//  378   return 0;
??Sound_ProcessEvent_16:
        MOV     R2,#0x0
        MOV     R3,#0x0
??Sound_ProcessEvent_15:
        MOV     A,#0x9
        LCALL   ?DEALLOC_XSTACK8
        CFI CFA_XSP16 add(XSP16, 14)
        MOV     R7,#0x6
        LJMP    ?BANKED_LEAVE_XDATA
        CFI EndBlock cfiBlock3
//  379 }

        RSEG BANKED_CODE:CODE:NOROOT(0)
?Subroutine2:
        CFI Block cfiCond4 Using cfiCommon0
        CFI NoFunction
        CFI Conditional ??CrossCallReturnLabel_2
        CFI R6 load(1, XDATA, add(CFA_XSP16, literal(-14)))
        CFI VB load(1, XDATA, add(CFA_XSP16, literal(-13)))
        CFI V0 load(1, XDATA, add(CFA_XSP16, literal(-12)))
        CFI V1 load(1, XDATA, add(CFA_XSP16, literal(-11)))
        CFI V2 load(1, XDATA, add(CFA_XSP16, literal(-10)))
        CFI V3 load(1, XDATA, add(CFA_XSP16, literal(-9)))
        CFI V4 load(1, XDATA, add(CFA_XSP16, literal(-8)))
        CFI V5 load(1, XDATA, add(CFA_XSP16, literal(-7)))
        CFI R7 load(1, XDATA, add(CFA_XSP16, literal(-6)))
        CFI ?RET_LOW load(1, XDATA, add(CFA_XSP16, literal(-5)))
        CFI ?RET_HIGH load(1, XDATA, add(CFA_XSP16, literal(-4)))
        CFI ?BRET_EXT load(1, XDATA, add(CFA_XSP16, literal(-3)))
        CFI DPL0 load(1, XDATA, add(CFA_XSP16, literal(-2)))
        CFI DPH0 load(1, XDATA, add(CFA_XSP16, literal(-1)))
        CFI CFA_SP SP+0
        CFI CFA_XSP16 add(XSP16, 23)
        CFI Block cfiCond5 Using cfiCommon0
        CFI (cfiCond5) NoFunction
        CFI (cfiCond5) Conditional ??CrossCallReturnLabel_3
        CFI (cfiCond5) R6 load(1, XDATA, add(CFA_XSP16, literal(-14)))
        CFI (cfiCond5) VB load(1, XDATA, add(CFA_XSP16, literal(-13)))
        CFI (cfiCond5) V0 load(1, XDATA, add(CFA_XSP16, literal(-12)))
        CFI (cfiCond5) V1 load(1, XDATA, add(CFA_XSP16, literal(-11)))
        CFI (cfiCond5) V2 load(1, XDATA, add(CFA_XSP16, literal(-10)))
        CFI (cfiCond5) V3 load(1, XDATA, add(CFA_XSP16, literal(-9)))
        CFI (cfiCond5) V4 load(1, XDATA, add(CFA_XSP16, literal(-8)))
        CFI (cfiCond5) V5 load(1, XDATA, add(CFA_XSP16, literal(-7)))
        CFI (cfiCond5) R7 load(1, XDATA, add(CFA_XSP16, literal(-6)))
        CFI (cfiCond5) ?RET_LOW load(1, XDATA, add(CFA_XSP16, literal(-5)))
        CFI (cfiCond5) ?RET_HIGH load(1, XDATA, add(CFA_XSP16, literal(-4)))
        CFI (cfiCond5) ?BRET_EXT load(1, XDATA, add(CFA_XSP16, literal(-3)))
        CFI (cfiCond5) DPL0 load(1, XDATA, add(CFA_XSP16, literal(-2)))
        CFI (cfiCond5) DPH0 load(1, XDATA, add(CFA_XSP16, literal(-1)))
        CFI (cfiCond5) CFA_SP SP+0
        CFI (cfiCond5) CFA_XSP16 add(XSP16, 23)
        CFI Block cfiPicker6 Using cfiCommon1
        CFI (cfiPicker6) NoFunction
        CFI (cfiPicker6) Picker
        MOV     R4,#-0x78
        MOV     R5,#0x13
        MOV     R2,#0x1
        MOV     R3,#0x0
        MOV     DPTR,#Sound_TaskID
        CFI EndBlock cfiCond4
        CFI EndBlock cfiCond5
        CFI EndBlock cfiPicker6
        REQUIRE ??Subroutine3_0
        ; // Fall through to label ??Subroutine3_0

        RSEG BANKED_CODE:CODE:NOROOT(0)
??Subroutine3_0:
        CFI Block cfiCond7 Using cfiCommon0
        CFI NoFunction
        CFI Conditional ??CrossCallReturnLabel_4
        CFI R6 load(1, XDATA, add(CFA_XSP16, literal(-9)))
        CFI VB load(1, XDATA, add(CFA_XSP16, literal(-8)))
        CFI V0 load(1, XDATA, add(CFA_XSP16, literal(-7)))
        CFI R7 load(1, XDATA, add(CFA_XSP16, literal(-6)))
        CFI ?RET_LOW load(1, XDATA, add(CFA_XSP16, literal(-5)))
        CFI ?RET_HIGH load(1, XDATA, add(CFA_XSP16, literal(-4)))
        CFI ?BRET_EXT load(1, XDATA, add(CFA_XSP16, literal(-3)))
        CFI DPL0 load(1, XDATA, add(CFA_XSP16, literal(-2)))
        CFI DPH0 load(1, XDATA, add(CFA_XSP16, literal(-1)))
        CFI CFA_SP SP+0
        CFI CFA_XSP16 add(XSP16, 9)
        CFI Block cfiCond8 Using cfiCommon0
        CFI (cfiCond8) NoFunction
        CFI (cfiCond8) Conditional ??CrossCallReturnLabel_2
        CFI (cfiCond8) R6 load(1, XDATA, add(CFA_XSP16, literal(-14)))
        CFI (cfiCond8) VB load(1, XDATA, add(CFA_XSP16, literal(-13)))
        CFI (cfiCond8) V0 load(1, XDATA, add(CFA_XSP16, literal(-12)))
        CFI (cfiCond8) V1 load(1, XDATA, add(CFA_XSP16, literal(-11)))
        CFI (cfiCond8) V2 load(1, XDATA, add(CFA_XSP16, literal(-10)))
        CFI (cfiCond8) V3 load(1, XDATA, add(CFA_XSP16, literal(-9)))
        CFI (cfiCond8) V4 load(1, XDATA, add(CFA_XSP16, literal(-8)))
        CFI (cfiCond8) V5 load(1, XDATA, add(CFA_XSP16, literal(-7)))
        CFI (cfiCond8) R7 load(1, XDATA, add(CFA_XSP16, literal(-6)))
        CFI (cfiCond8) ?RET_LOW load(1, XDATA, add(CFA_XSP16, literal(-5)))
        CFI (cfiCond8) ?RET_HIGH load(1, XDATA, add(CFA_XSP16, literal(-4)))
        CFI (cfiCond8) ?BRET_EXT load(1, XDATA, add(CFA_XSP16, literal(-3)))
        CFI (cfiCond8) DPL0 load(1, XDATA, add(CFA_XSP16, literal(-2)))
        CFI (cfiCond8) DPH0 load(1, XDATA, add(CFA_XSP16, literal(-1)))
        CFI (cfiCond8) CFA_SP SP+0
        CFI (cfiCond8) CFA_XSP16 add(XSP16, 23)
        CFI Block cfiCond9 Using cfiCommon0
        CFI (cfiCond9) NoFunction
        CFI (cfiCond9) Conditional ??CrossCallReturnLabel_3
        CFI (cfiCond9) R6 load(1, XDATA, add(CFA_XSP16, literal(-14)))
        CFI (cfiCond9) VB load(1, XDATA, add(CFA_XSP16, literal(-13)))
        CFI (cfiCond9) V0 load(1, XDATA, add(CFA_XSP16, literal(-12)))
        CFI (cfiCond9) V1 load(1, XDATA, add(CFA_XSP16, literal(-11)))
        CFI (cfiCond9) V2 load(1, XDATA, add(CFA_XSP16, literal(-10)))
        CFI (cfiCond9) V3 load(1, XDATA, add(CFA_XSP16, literal(-9)))
        CFI (cfiCond9) V4 load(1, XDATA, add(CFA_XSP16, literal(-8)))
        CFI (cfiCond9) V5 load(1, XDATA, add(CFA_XSP16, literal(-7)))
        CFI (cfiCond9) R7 load(1, XDATA, add(CFA_XSP16, literal(-6)))
        CFI (cfiCond9) ?RET_LOW load(1, XDATA, add(CFA_XSP16, literal(-5)))
        CFI (cfiCond9) ?RET_HIGH load(1, XDATA, add(CFA_XSP16, literal(-4)))
        CFI (cfiCond9) ?BRET_EXT load(1, XDATA, add(CFA_XSP16, literal(-3)))
        CFI (cfiCond9) DPL0 load(1, XDATA, add(CFA_XSP16, literal(-2)))
        CFI (cfiCond9) DPH0 load(1, XDATA, add(CFA_XSP16, literal(-1)))
        CFI (cfiCond9) CFA_SP SP+0
        CFI (cfiCond9) CFA_XSP16 add(XSP16, 23)
        CFI Block cfiPicker10 Using cfiCommon1
        CFI (cfiPicker10) NoFunction
        CFI (cfiPicker10) Picker
        MOVX    A,@DPTR
        MOV     R1,A
        LCALL   ??osal_start_timerEx?relay
        RET
        CFI EndBlock cfiCond7
        CFI EndBlock cfiCond8
        CFI EndBlock cfiCond9
        CFI EndBlock cfiPicker10
//  380 
//  381 /*********************************************************************
//  382  * Event Generation Functions
//  383  */
//  384 
//  385 /*********************************************************************
//  386  * @fn      Sound_ProcessZDOMsgs()
//  387  *
//  388  * @brief   Process response messages
//  389  *
//  390  * @param   none
//  391  *
//  392  * @return  none
//  393  */
//  394 static void Sound_ProcessZDOMsgs( zdoIncomingMsg_t *inMsg )
//  395 {
//  396   switch ( inMsg->clusterID )
//  397   {
//  398     case End_Device_Bind_rsp:
//  399       if ( ZDO_ParseBindRsp( inMsg ) == ZSuccess )
//  400       {
//  401         // Sound LED
//  402         HalLedSet( HAL_LED_4, HAL_LED_MODE_ON );
//  403       }
//  404 #if defined( BLINK_LEDS )
//  405       else
//  406       {
//  407         // Flash LED to show failure
//  408         HalLedSet ( HAL_LED_4, HAL_LED_MODE_FLASH );
//  409       }
//  410 #endif
//  411       break;
//  412 
//  413     case Match_Desc_rsp:
//  414       {
//  415         ZDO_ActiveEndpointRsp_t *pRsp = ZDO_ParseEPListRsp( inMsg );
//  416         if ( pRsp )
//  417         {
//  418           if ( pRsp->status == ZSuccess && pRsp->cnt )
//  419           {
//  420             Sound_DstAddr.addrMode = (afAddrMode_t)Addr16Bit;
//  421             Sound_DstAddr.addr.shortAddr = pRsp->nwkAddr;
//  422             // Take the first endpoint, Can be changed to search through endpoints
//  423             Sound_DstAddr.endPoint = pRsp->epList[0];
//  424 
//  425             // Sound LED
//  426             HalLedSet( HAL_LED_4, HAL_LED_MODE_ON );
//  427           }
//  428           osal_mem_free( pRsp );
//  429         }
//  430       }
//  431       break;
//  432   }
//  433 }
//  434 
//  435 /*********************************************************************
//  436  * @fn      Sound_HandleKeys
//  437  *
//  438  * @brief   Handles all key events for this device.
//  439  *
//  440  * @param   shift - true if in shift/alt.
//  441  * @param   keys - bit field for key events. Valid entries:
//  442  *                 HAL_KEY_SW_4
//  443  *                 HAL_KEY_SW_3
//  444  *                 HAL_KEY_SW_2
//  445  *                 HAL_KEY_SW_1
//  446  *
//  447  * @return  none
//  448  */
//  449 static void Sound_HandleKeys( uint8 shift, uint8 keys )
//  450 {
//  451   zAddrType_t dstAddr;
//  452 
//  453   // Shift is used to make each button/switch dual purpose.
//  454   if ( shift )
//  455   {
//  456     if ( keys & HAL_KEY_SW_1 )
//  457     {
//  458     }
//  459     if ( keys & HAL_KEY_SW_2 )
//  460     {
//  461     }
//  462     if ( keys & HAL_KEY_SW_3 )
//  463     {
//  464     }
//  465     if ( keys & HAL_KEY_SW_4 )
//  466     {
//  467     }
//  468   }
//  469   else
//  470   {
//  471     if ( keys & HAL_KEY_SW_1 )
//  472     {
//  473       // Since SW1 isn't used for anything else in this application...
//  474 #if defined( SWITCH1_BIND )
//  475       // we can use SW1 to simulate SW2 for devices that only have one switch,
//  476       keys |= HAL_KEY_SW_2;
//  477 #elif defined( SWITCH1_MATCH )
//  478       // or use SW1 to simulate SW4 for devices that only have one switch
//  479       keys |= HAL_KEY_SW_4;
//  480 #endif
//  481     }
//  482 
//  483     if ( keys & HAL_KEY_SW_2 )
//  484     {
//  485       HalLedSet ( HAL_LED_4, HAL_LED_MODE_OFF );
//  486 
//  487       // Initiate an End Device Bind Request for the mandatory endpoint
//  488       dstAddr.addrMode = Addr16Bit;
//  489       dstAddr.addr.shortAddr = 0x0000; // Coordinator
//  490       ZDP_EndDeviceBindReq( &dstAddr, NLME_GetShortAddr(),
//  491                             Sound_epDesc.endPoint,
//  492                             Sound_PROFID,
//  493                             Sound_MAX_CLUSTERS, (cId_t *)Sound_ClusterList,
//  494                             Sound_MAX_CLUSTERS, (cId_t *)Sound_ClusterList,
//  495                             FALSE );
//  496     }
//  497 
//  498     if ( keys & HAL_KEY_SW_3 )
//  499     {
//  500     }
//  501 
//  502     if ( keys & HAL_KEY_SW_4 )
//  503     {
//  504       HalLedSet ( HAL_LED_4, HAL_LED_MODE_OFF );
//  505       // Initiate a Match Description Request (Service Discovery)
//  506       dstAddr.addrMode = AddrBroadcast;
//  507       dstAddr.addr.shortAddr = NWK_BROADCAST_SHORTADDR;
//  508       ZDP_MatchDescReq( &dstAddr, NWK_BROADCAST_SHORTADDR,
//  509                         Sound_PROFID,
//  510                         Sound_MAX_CLUSTERS, (cId_t *)Sound_ClusterList,
//  511                         Sound_MAX_CLUSTERS, (cId_t *)Sound_ClusterList,
//  512                         FALSE );
//  513     }
//  514   }
//  515 }
//  516 
//  517 /*********************************************************************
//  518  * LOCAL FUNCTIONS
//  519  */
//  520 
//  521 /*********************************************************************
//  522  * @fn      Sound_MessageMSGCB
//  523  *
//  524  * @brief   Data message processor callback.  This function processes
//  525  *          any incoming data - probably from other devices.  So, based
//  526  *          on cluster ID, perform the intended action.
//  527  *
//  528  * @param   none
//  529  *
//  530  * @return  none
//  531  */
//  532 static void Sound_MessageMSGCB( afIncomingMSGPacket_t *pkt )
//  533 {
//  534   switch ( pkt->clusterId )
//  535   {
//  536     case Sound_CLUSTERID:
//  537       // "the" message
//  538 #if defined( LCD_SUPPORTED )
//  539       HalLcdWriteScreen( (char*)pkt->cmd.Data, "rcvd" );
//  540 #elif defined( WIN32 )
//  541       WPRINTSTR( pkt->cmd.Data );
//  542 #endif
//  543       break;
//  544   }
//  545 }
//  546 
//  547 /*********************************************************************
//  548  * @fn      Sound_SendTheMessage
//  549  *
//  550  * @brief   Send "the" message.
//  551  *
//  552  * @param   none
//  553  *
//  554  * @return  none
//  555  */

        RSEG BANKED_CODE:CODE:NOROOT(0)
//  556 static void Sound_SendTheMessage( void )
Sound_SendTheMessage:
        CFI Block cfiBlock11 Using cfiCommon0
        CFI Function Sound_SendTheMessage
        CODE
//  557 {
        FUNCALL Sound_SendTheMessage, _ltoa
        LOCFRAME ISTACK, 0, STACK
        LOCFRAME PSTACK, 0, STACK
        LOCFRAME XSTACK, 27, STACK
        LOCFRAME IOVERLAY, 0, STATIC
        LOCFRAME DOVERLAY, 0, STATIC
        ARGFRAME ISTACK, 0, STACK
        ARGFRAME PSTACK, 0, STACK
        ARGFRAME XSTACK, 27, STACK
        ARGFRAME IOVERLAY, 0, STATIC
        ARGFRAME DOVERLAY, 0, STATIC
        FUNCALL Sound_SendTheMessage, osal_strlen
        LOCFRAME ISTACK, 0, STACK
        LOCFRAME PSTACK, 0, STACK
        LOCFRAME XSTACK, 30, STACK
        LOCFRAME IOVERLAY, 0, STATIC
        LOCFRAME DOVERLAY, 0, STATIC
        ARGFRAME ISTACK, 0, STACK
        ARGFRAME PSTACK, 0, STACK
        ARGFRAME XSTACK, 30, STACK
        ARGFRAME IOVERLAY, 0, STATIC
        ARGFRAME DOVERLAY, 0, STATIC
        FUNCALL Sound_SendTheMessage, AF_DataRequest
        LOCFRAME ISTACK, 0, STACK
        LOCFRAME PSTACK, 0, STACK
        LOCFRAME XSTACK, 34, STACK
        LOCFRAME IOVERLAY, 0, STATIC
        LOCFRAME DOVERLAY, 0, STATIC
        ARGFRAME ISTACK, 0, STACK
        ARGFRAME PSTACK, 0, STACK
        ARGFRAME XSTACK, 34, STACK
        ARGFRAME IOVERLAY, 0, STATIC
        ARGFRAME DOVERLAY, 0, STATIC
        MOV     A,#-0xa
        LCALL   ?BANKED_ENTER_XDATA
        CFI DPH0 load(1, XDATA, add(CFA_XSP16, literal(-1)))
        CFI DPL0 load(1, XDATA, add(CFA_XSP16, literal(-2)))
        CFI ?BRET_EXT load(1, XDATA, add(CFA_XSP16, literal(-3)))
        CFI ?RET_HIGH load(1, XDATA, add(CFA_XSP16, literal(-4)))
        CFI ?RET_LOW load(1, XDATA, add(CFA_XSP16, literal(-5)))
        CFI R7 load(1, XDATA, add(CFA_XSP16, literal(-6)))
        CFI V1 load(1, XDATA, add(CFA_XSP16, literal(-7)))
        CFI V0 load(1, XDATA, add(CFA_XSP16, literal(-8)))
        CFI VB load(1, XDATA, add(CFA_XSP16, literal(-9)))
        CFI R6 load(1, XDATA, add(CFA_XSP16, literal(-10)))
        CFI CFA_SP SP+0
        CFI CFA_XSP16 add(XSP16, 10)
        ; Saved register size: 10
        ; Auto size: 15
        MOV     A,#-0xf
        LCALL   ?ALLOC_XSTACK8
        CFI CFA_XSP16 add(XSP16, 25)
//  558   unsigned char theMessageData[15] = "Sound:";
        MOV     DPL,?XSP + 0
        MOV     DPH,?XSP + 1
        MOV     R4,DPL
        MOV     R5,DPH
        MOV     DPH,#(`?<Constant "Sound:">` >> 8) & 0xff
        MOV     DPL,#`?<Constant "Sound:">` & 0xff
        MOV     A,#0xf
        LCALL   ?MOVE_LONG8_XDATA_XDATA
//  559   
//  560   _ltoa( (uint32)(isound), &theMessageData[6], 10 );
        ; Setup parameters for call to function _ltoa
        MOV     A,#0x6
        LCALL   ?XSTACK_DISP0_8
        MOV     ?V0 + 0,DPL
        MOV     ?V0 + 1,DPH
        MOV     R0,#?V0 + 0
        LCALL   ?PUSH_XSTACK_I_TWO
        CFI CFA_XSP16 add(XSP16, 27)
        MOV     R1,#0xa
        MOV     DPTR,#isound
        MOVX    A,@DPTR
        MOV     ?V0 + 0,A
        INC     DPTR
        MOVX    A,@DPTR
        MOV     R2,?V0 + 0
        MOV     R3,A
        CLR     A
        MOV     R4,A
        MOV     R5,A
        LCALL   ??_ltoa?relay
        MOV     A,#0x2
        LCALL   ?DEALLOC_XSTACK8
        CFI CFA_XSP16 add(XSP16, 25)
//  561   
//  562   for (unsigned char i=0; i<15-1; i++)
        MOV     R0,#0x0
//  563   {
//  564     if (theMessageData[i] == 0x00 )
??Sound_SendTheMessage_0:
        MOV     ?V0 + 0,R0
        LCALL   ?Subroutine1 & 0xFFFF
??CrossCallReturnLabel_0:
        MOVX    A,@DPTR
        JNZ     ??Sound_SendTheMessage_1
//  565     {
//  566       theMessageData[i] = ' ';
        LCALL   ?Subroutine1 & 0xFFFF
//  567     }
//  568   }
??CrossCallReturnLabel_1:
        MOV     A,#0x20
        MOVX    @DPTR,A
??Sound_SendTheMessage_1:
        INC     R0
        MOV     A,R0
        CLR     C
        SUBB    A,#0xe
        JC      ??Sound_SendTheMessage_0
//  569 
//  570   if ( AF_DataRequest( &Sound_DstAddr, &Sound_epDesc,
//  571                        Sound_CLUSTERID,
//  572                        (byte)osal_strlen( theMessageData ) + 1,
//  573                        (byte *)&theMessageData,
//  574                        &Sound_TransID,
//  575                        AF_DISCV_ROUTE, AF_DEFAULT_RADIUS ) == afStatus_SUCCESS )
        ; Setup parameters for call to function AF_DataRequest
        MOV     ?V0 + 0,#0x1e
        MOV     R0,#?V0 + 0
        LCALL   ?PUSH_XSTACK_I_ONE
        CFI CFA_XSP16 add(XSP16, 26)
        MOV     ?V0 + 0,#Sound_TransID & 0xff
        MOV     ?V0 + 1,#(Sound_TransID >> 8) & 0xff
        MOV     R0,#?V0 + 0
        LCALL   ?PUSH_XSTACK_I_TWO
        CFI CFA_XSP16 add(XSP16, 28)
        MOV     A,#0x3
        LCALL   ?XSTACK_DISP0_8
        MOV     ?V0 + 0,DPL
        MOV     ?V0 + 1,DPH
        MOV     R0,#?V0 + 0
        LCALL   ?PUSH_XSTACK_I_TWO
        CFI CFA_XSP16 add(XSP16, 30)
        ; Setup parameters for call to function osal_strlen
        MOV     A,#0x5
        LCALL   ?XSTACK_DISP0_8
        MOV     R2,DPL
        MOV     R3,DPH
        LCALL   ??osal_strlen?relay
        MOV     A,R2
        ADD     A,#0x1
        MOV     ?V0 + 0,A
        CLR     A
        ADDC    A,#0x0
        MOV     ?V0 + 1,A
        MOV     R0,#?V0 + 0
        LCALL   ?PUSH_XSTACK_I_TWO
        CFI CFA_XSP16 add(XSP16, 32)
        MOV     ?V0 + 0,#0x3
        MOV     ?V0 + 1,#0x0
        MOV     R0,#?V0 + 0
        LCALL   ?PUSH_XSTACK_I_TWO
        CFI CFA_XSP16 add(XSP16, 34)
        MOV     R1,#0x20
        MOV     R4,#Sound_epDesc & 0xff
        MOV     R5,#(Sound_epDesc >> 8) & 0xff
        MOV     R2,#Sound_DstAddr & 0xff
        MOV     R3,#(Sound_DstAddr >> 8) & 0xff
        LCALL   ??AF_DataRequest?relay
        MOV     A,#0x9
        LCALL   ?DEALLOC_XSTACK8
        CFI CFA_XSP16 add(XSP16, 25)
//  576   {
//  577     // Successfully requested to be sent.
//  578   }
//  579   else
//  580   {
//  581     // Error occurred in request to send.
//  582   }
//  583 }
        MOV     A,#0xf
        LCALL   ?DEALLOC_XSTACK8
        CFI CFA_XSP16 add(XSP16, 10)
        MOV     R7,#0x2
        LJMP    ?BANKED_LEAVE_XDATA
        CFI EndBlock cfiBlock11

        RSEG BANKED_CODE:CODE:NOROOT(0)
?Subroutine1:
        CFI Block cfiCond12 Using cfiCommon0
        CFI NoFunction
        CFI Conditional ??CrossCallReturnLabel_0
        CFI R6 load(1, XDATA, add(CFA_XSP16, literal(-10)))
        CFI VB load(1, XDATA, add(CFA_XSP16, literal(-9)))
        CFI V0 load(1, XDATA, add(CFA_XSP16, literal(-8)))
        CFI V1 load(1, XDATA, add(CFA_XSP16, literal(-7)))
        CFI R7 load(1, XDATA, add(CFA_XSP16, literal(-6)))
        CFI ?RET_LOW load(1, XDATA, add(CFA_XSP16, literal(-5)))
        CFI ?RET_HIGH load(1, XDATA, add(CFA_XSP16, literal(-4)))
        CFI ?BRET_EXT load(1, XDATA, add(CFA_XSP16, literal(-3)))
        CFI DPL0 load(1, XDATA, add(CFA_XSP16, literal(-2)))
        CFI DPH0 load(1, XDATA, add(CFA_XSP16, literal(-1)))
        CFI CFA_SP SP+0
        CFI CFA_XSP16 add(XSP16, 25)
        CFI Block cfiCond13 Using cfiCommon0
        CFI (cfiCond13) NoFunction
        CFI (cfiCond13) Conditional ??CrossCallReturnLabel_1
        CFI (cfiCond13) R6 load(1, XDATA, add(CFA_XSP16, literal(-10)))
        CFI (cfiCond13) VB load(1, XDATA, add(CFA_XSP16, literal(-9)))
        CFI (cfiCond13) V0 load(1, XDATA, add(CFA_XSP16, literal(-8)))
        CFI (cfiCond13) V1 load(1, XDATA, add(CFA_XSP16, literal(-7)))
        CFI (cfiCond13) R7 load(1, XDATA, add(CFA_XSP16, literal(-6)))
        CFI (cfiCond13) ?RET_LOW load(1, XDATA, add(CFA_XSP16, literal(-5)))
        CFI (cfiCond13) ?RET_HIGH load(1, XDATA, add(CFA_XSP16, literal(-4)))
        CFI (cfiCond13) ?BRET_EXT load(1, XDATA, add(CFA_XSP16, literal(-3)))
        CFI (cfiCond13) DPL0 load(1, XDATA, add(CFA_XSP16, literal(-2)))
        CFI (cfiCond13) DPH0 load(1, XDATA, add(CFA_XSP16, literal(-1)))
        CFI (cfiCond13) CFA_SP SP+0
        CFI (cfiCond13) CFA_XSP16 add(XSP16, 25)
        CFI Block cfiPicker14 Using cfiCommon1
        CFI (cfiPicker14) NoFunction
        CFI (cfiPicker14) Picker
        MOV     DPL,?XSP + 0
        MOV     DPH,?XSP + 1
        MOV     A,DPL
        ADD     A,?V0 + 0
        MOV     DPL,A
        MOV     A,DPH
        ADDC    A,#0x0
        MOV     DPH,A
        RET
        CFI EndBlock cfiCond12
        CFI EndBlock cfiCond13
        CFI EndBlock cfiPicker14
//  584 
//  585 #if defined( IAR_ARMCM3_LM )
//  586 /*********************************************************************
//  587  * @fn      Sound_ProcessRtosMessage
//  588  *
//  589  * @brief   Receive message from RTOS queue, send response back.
//  590  *
//  591  * @param   none
//  592  *
//  593  * @return  none
//  594  */
//  595 static void Sound_ProcessRtosMessage( void )
//  596 {
//  597   osalQueue_t inMsg;
//  598 
//  599   if ( osal_queue_receive( OsalQueue, &inMsg, 0 ) == pdPASS )
//  600   {
//  601     uint8 cmndId = inMsg.cmnd;
//  602     uint32 counter = osal_build_uint32( inMsg.cbuf, 4 );
//  603 
//  604     switch ( cmndId )
//  605     {
//  606       case CMD_INCR:
//  607         counter += 1;  /* Increment the incoming counter */
//  608                        /* Intentionally fall through next case */
//  609 
//  610       case CMD_ECHO:
//  611       {
//  612         userQueue_t outMsg;
//  613 
//  614         outMsg.resp = RSP_CODE | cmndId;  /* Response ID */
//  615         osal_buffer_uint32( outMsg.rbuf, counter );    /* Increment counter */
//  616         osal_queue_send( UserQueue1, &outMsg, 0 );  /* Send back to UserTask */
//  617         break;
//  618       }
//  619       
//  620       default:
//  621         break;  /* Ignore unknown command */    
//  622     }
//  623   }
//  624 }
//  625 
//  626 #endif
//  627 
//  628 //***********************************************************************************
//  629 

        RSEG BANKED_CODE:CODE:NOROOT(0)
//  630 uint16 SoundMeasurement_ProcessEvent( uint8 task_id, uint16 events )
SoundMeasurement_ProcessEvent:
        CFI Block cfiBlock15 Using cfiCommon0
        CFI Function SoundMeasurement_ProcessEvent
        CODE
//  631 {
        FUNCALL SoundMeasurement_ProcessEvent, osal_start_timerEx
        LOCFRAME ISTACK, 0, STACK
        LOCFRAME PSTACK, 0, STACK
        LOCFRAME XSTACK, 9, STACK
        LOCFRAME IOVERLAY, 0, STATIC
        LOCFRAME DOVERLAY, 0, STATIC
        ARGFRAME ISTACK, 0, STACK
        ARGFRAME PSTACK, 0, STACK
        ARGFRAME XSTACK, 9, STACK
        ARGFRAME IOVERLAY, 0, STATIC
        ARGFRAME DOVERLAY, 0, STATIC
        FUNCALL SoundMeasurement_ProcessEvent, InitKey2
        LOCFRAME ISTACK, 0, STACK
        LOCFRAME PSTACK, 0, STACK
        LOCFRAME XSTACK, 9, STACK
        LOCFRAME IOVERLAY, 0, STATIC
        LOCFRAME DOVERLAY, 0, STATIC
        ARGFRAME ISTACK, 0, STACK
        ARGFRAME PSTACK, 0, STACK
        ARGFRAME XSTACK, 9, STACK
        ARGFRAME IOVERLAY, 0, STATIC
        ARGFRAME DOVERLAY, 0, STATIC
        MOV     A,#-0x9
        LCALL   ?BANKED_ENTER_XDATA
        CFI DPH0 load(1, XDATA, add(CFA_XSP16, literal(-1)))
        CFI DPL0 load(1, XDATA, add(CFA_XSP16, literal(-2)))
        CFI ?BRET_EXT load(1, XDATA, add(CFA_XSP16, literal(-3)))
        CFI ?RET_HIGH load(1, XDATA, add(CFA_XSP16, literal(-4)))
        CFI ?RET_LOW load(1, XDATA, add(CFA_XSP16, literal(-5)))
        CFI R7 load(1, XDATA, add(CFA_XSP16, literal(-6)))
        CFI V0 load(1, XDATA, add(CFA_XSP16, literal(-7)))
        CFI VB load(1, XDATA, add(CFA_XSP16, literal(-8)))
        CFI R6 load(1, XDATA, add(CFA_XSP16, literal(-9)))
        CFI CFA_SP SP+0
        CFI CFA_XSP16 add(XSP16, 9)
        ; Saved register size: 9
        ; Auto size: 0
        MOV     A,R2
        MOV     R6,A
        MOV     A,R3
        MOV     R7,A
//  632   if ( events & SOUNDMEASUREMENT_EVT )
        MOV     A,R6
        MOV     C,0xE0 /* A   */.0
        JNC     ??SoundMeasurement_ProcessEvent_0
//  633   {
//  634   osal_start_timerEx( SoundMeasurement_TaskID,
//  635                         SOUNDMEASUREMENT_EVT,
//  636                         SOUNDMEASUREMENT_TIMEOUT );
        ; Setup parameters for call to function osal_start_timerEx
        MOV     R4,#-0x60
        MOV     R5,#0xf
        MOV     R2,#0x1
        MOV     R3,#0x0
        MOV     DPTR,#SoundMeasurement_TaskID
        LCALL   ??Subroutine3_0 & 0xFFFF
//  637 
//  638     InitKey2();
??CrossCallReturnLabel_4:
        ; Setup parameters for call to function InitKey2
        LCALL   ??InitKey2?relay
//  639     return (events ^ SOUNDMEASUREMENT_EVT);
        MOV     A,R6
        XRL     A,#0x1
        MOV     R2,A
        MOV     A,R7
        MOV     R3,A
        SJMP    ??SoundMeasurement_ProcessEvent_1
//  640   }
//  641 
//  642   // Discard unknown events
//  643   return 0;
??SoundMeasurement_ProcessEvent_0:
        MOV     R2,#0x0
        MOV     R3,#0x0
??SoundMeasurement_ProcessEvent_1:
        LJMP    ?Subroutine0 & 0xFFFF
        CFI EndBlock cfiBlock15
//  644 }
//  645 

        RSEG BANKED_CODE:CODE:NOROOT(0)
//  646 void SoundMeasurement_Init( uint8 task_id )
SoundMeasurement_Init:
        CFI Block cfiBlock16 Using cfiCommon0
        CFI Function SoundMeasurement_Init
        CODE
//  647 {
        FUNCALL SoundMeasurement_Init, osal_start_timerEx
        LOCFRAME ISTACK, 0, STACK
        LOCFRAME PSTACK, 0, STACK
        LOCFRAME XSTACK, 9, STACK
        LOCFRAME IOVERLAY, 0, STATIC
        LOCFRAME DOVERLAY, 0, STATIC
        ARGFRAME ISTACK, 0, STACK
        ARGFRAME PSTACK, 0, STACK
        ARGFRAME XSTACK, 9, STACK
        ARGFRAME IOVERLAY, 0, STATIC
        ARGFRAME DOVERLAY, 0, STATIC
        FUNCALL SoundMeasurement_Init, RegisterForKeys
        LOCFRAME ISTACK, 0, STACK
        LOCFRAME PSTACK, 0, STACK
        LOCFRAME XSTACK, 9, STACK
        LOCFRAME IOVERLAY, 0, STATIC
        LOCFRAME DOVERLAY, 0, STATIC
        ARGFRAME ISTACK, 0, STACK
        ARGFRAME PSTACK, 0, STACK
        ARGFRAME XSTACK, 9, STACK
        ARGFRAME IOVERLAY, 0, STATIC
        ARGFRAME DOVERLAY, 0, STATIC
        MOV     A,#-0x9
        LCALL   ?BANKED_ENTER_XDATA
        CFI DPH0 load(1, XDATA, add(CFA_XSP16, literal(-1)))
        CFI DPL0 load(1, XDATA, add(CFA_XSP16, literal(-2)))
        CFI ?BRET_EXT load(1, XDATA, add(CFA_XSP16, literal(-3)))
        CFI ?RET_HIGH load(1, XDATA, add(CFA_XSP16, literal(-4)))
        CFI ?RET_LOW load(1, XDATA, add(CFA_XSP16, literal(-5)))
        CFI R7 load(1, XDATA, add(CFA_XSP16, literal(-6)))
        CFI V0 load(1, XDATA, add(CFA_XSP16, literal(-7)))
        CFI VB load(1, XDATA, add(CFA_XSP16, literal(-8)))
        CFI R6 load(1, XDATA, add(CFA_XSP16, literal(-9)))
        CFI CFA_SP SP+0
        CFI CFA_XSP16 add(XSP16, 9)
        ; Saved register size: 9
        ; Auto size: 0
        MOV     A,R1
//  648   SoundMeasurement_TaskID = task_id;
        MOV     DPTR,#SoundMeasurement_TaskID
        MOVX    @DPTR,A
//  649   SoundMeasurement_TransID = 0;
        MOV     DPTR,#SoundMeasurement_TransID
        CLR     A
        MOVX    @DPTR,A
//  650   
//  651   osal_start_timerEx( SoundMeasurement_TaskID,
//  652                         SOUNDMEASUREMENT_EVT,
//  653                         SOUNDMEASUREMENT_TIMEOUT );
        ; Setup parameters for call to function osal_start_timerEx
        MOV     R4,#-0x60
        MOV     R5,#0xf
        MOV     R2,#0x1
        MOV     R3,A
        LCALL   ??osal_start_timerEx?relay
//  654   
//  655   RegisterForKeys( SoundMeasurement_TaskID );  
        ; Setup parameters for call to function RegisterForKeys
        MOV     DPTR,#SoundMeasurement_TaskID
        MOVX    A,@DPTR
        MOV     R1,A
        LCALL   ??RegisterForKeys?relay
//  656 }
        LJMP    ?Subroutine0 & 0xFFFF
        CFI EndBlock cfiBlock16
//  657 
//  658 
//  659 /*********************************************************************
//  660  */

        RSEG NEAR_CODE:CODE:NOROOT(0)
//  661 HAL_ISR_FUNCTION( halKeyPort1Isr, P1INT_VECTOR )
halKeyPort1Isr:
        CFI Block cfiBlock17 Using cfiCommon1
        CFI Function halKeyPort1Isr
        CODE
//  662 {
        FUNCALL halKeyPort1Isr, Sound_SendTheMessage
        LOCFRAME ISTACK, 0, STACK
        LOCFRAME PSTACK, 0, STACK
        LOCFRAME XSTACK, 14, STACK
        LOCFRAME IOVERLAY, 0, STATIC
        LOCFRAME DOVERLAY, 0, STATIC
        ARGFRAME ISTACK, 0, STACK
        ARGFRAME PSTACK, 0, STACK
        ARGFRAME XSTACK, 14, STACK
        ARGFRAME IOVERLAY, 0, STATIC
        ARGFRAME DOVERLAY, 0, STATIC
        PUSH    A
        CFI A Frame(CFA_SP, 3)
        CFI CFA_SP SP+-3
        MOV     A,#-0xe
        LCALL   ?INTERRUPT_ENTER_XSP
        CFI B load(1, XDATA, add(CFA_XSP16, literal(-1)))
        CFI VB load(1, XDATA, add(CFA_XSP16, literal(-2)))
        CFI PSW load(1, XDATA, add(CFA_XSP16, literal(-3)))
        CFI DPL0 load(1, XDATA, add(CFA_XSP16, literal(-4)))
        CFI DPH0 load(1, XDATA, add(CFA_XSP16, literal(-5)))
        CFI R7 load(1, XDATA, add(CFA_XSP16, literal(-6)))
        CFI R6 load(1, XDATA, add(CFA_XSP16, literal(-7)))
        CFI R5 load(1, XDATA, add(CFA_XSP16, literal(-8)))
        CFI R4 load(1, XDATA, add(CFA_XSP16, literal(-9)))
        CFI V0 load(1, XDATA, add(CFA_XSP16, literal(-10)))
        CFI R3 load(1, XDATA, add(CFA_XSP16, literal(-11)))
        CFI R2 load(1, XDATA, add(CFA_XSP16, literal(-12)))
        CFI R1 load(1, XDATA, add(CFA_XSP16, literal(-13)))
        CFI R0 load(1, XDATA, add(CFA_XSP16, literal(-14)))
        CFI CFA_XSP16 add(XSP16, 14)
        ; Saved register size: 14
        ; Auto size: 0
//  663   
//  664   if (HAL_KEY_SW_7_PXIFG & HAL_KEY_SW_7_BIT)
        MOV     A,0x8a
        MOV     C,0xE0 /* A   */.3
        JNC     ??halKeyPort1Isr_0
//  665   {
//  666     isound=1;
        MOV     DPTR,#isound
        MOV     A,#0x1
        MOVX    @DPTR,A
        INC     DPTR
        CLR     A
        MOVX    @DPTR,A
//  667     Sound_SendTheMessage( );
        ; Setup parameters for call to function Sound_SendTheMessage
        LCALL   ??Sound_SendTheMessage?relay
//  668     isound=0;
        MOV     DPTR,#isound
        CLR     A
        MOVX    @DPTR,A
        INC     DPTR
        MOVX    @DPTR,A
//  669     P1IFG = 0;             //清中断标志 
        MOV     0x8a,#0x0
//  670     P1IF = 0;             //清中断标志 
        CLR     0xe8.3
//  671   }
//  672 }
??halKeyPort1Isr_0:
        MOV     R7,#0x1
        LJMP    ?INTERRUPT_LEAVE_XSP
        CFI EndBlock cfiBlock17
        REQUIRE P1IFG
        REQUIRE _A_IRCON2

        COMMON INTVEC:CODE:ROOT(0)
        ORG 123
`??halKeyPort1Isr??INTVEC 123`:
        LJMP       (halKeyPort1Isr)

        RSEG BANK_RELAYS:CODE:REORDER:NOROOT(0)
??Sound_Init?relay:
        LCALL   ?BDISPATCH
        DATA
        DC24    Sound_Init

        RSEG BANK_RELAYS:CODE:REORDER:NOROOT(0)
??InitKey2?relay:
        LCALL   ?BDISPATCH
        DATA
        DC24    InitKey2

        RSEG BANK_RELAYS:CODE:REORDER:NOROOT(0)
??Sound_ProcessEvent?relay:
        LCALL   ?BDISPATCH
        DATA
        DC24    Sound_ProcessEvent

        RSEG BANK_RELAYS:CODE:REORDER:NOROOT(0)
??Sound_SendTheMessage?relay:
        LCALL   ?BDISPATCH
        DATA
        DC24    Sound_SendTheMessage

        RSEG BANK_RELAYS:CODE:REORDER:NOROOT(0)
??SoundMeasurement_ProcessEvent?relay:
        LCALL   ?BDISPATCH
        DATA
        DC24    SoundMeasurement_ProcessEvent

        RSEG BANK_RELAYS:CODE:REORDER:NOROOT(0)
??SoundMeasurement_Init?relay:
        LCALL   ?BDISPATCH
        DATA
        DC24    SoundMeasurement_Init

        RSEG XDATA_ROM_C:CONST:REORDER:NOROOT(0)
        DATA8
`?<Constant "Sound">`:
        DB "Sound"

        RSEG XDATA_ROM_C:CONST:REORDER:NOROOT(0)
        DATA8
`?<Constant "rcvd">`:
        DB "rcvd"

        RSEG XDATA_ROM_C:CONST:REORDER:NOROOT(0)
        DATA8
`?<Constant "Sound:">`:
        DB "Sound:"
        DB 0, 0, 0, 0, 0, 0, 0, 0

        END
// 
// 1 027 bytes in segment BANKED_CODE
//    36 bytes in segment BANK_RELAYS
//     3 bytes in segment INTVEC
//    42 bytes in segment NEAR_CODE
//     7 bytes in segment SFR_AN
//    40 bytes in segment XDATA_ROM_C
//    26 bytes in segment XDATA_Z
// 
// 1 105 bytes of CODE  memory (+ 3 bytes shared)
//    40 bytes of CONST memory
//     0 bytes of DATA  memory (+ 7 bytes shared)
//    26 bytes of XDATA memory
//
//Errors: none
//Warnings: 1
