///////////////////////////////////////////////////////////////////////////////
//                                                                            /
// IAR C/C++ Compiler V8.10.3.10338/W32 for 8051        12/Feb/2014  13:06:02 /
// Copyright 2004-2011 IAR Systems AB.                                        /
//                                                                            /
//    Core               =  plain                                             /
//    Code model         =  banked                                            /
//    Data model         =  large                                             /
//    Calling convention =  xdata reentrant                                   /
//    Constant location  =  data_rom                                          /
//    Dptr setup         =  1,16                                              /
//    Source file        =  C:\Users\OurEDA\Documents\Tencent                 /
//                          Files\1534143789\FileRecv\ZStack-CC2530-2.5.1a\ZS /
//                          tack-CC2530-2.5.1a\Projects\zstack\Samples\02Ligh /
//                          t_ENDDB\Source\Light.c                            /
//    Command line       =  -f "C:\Users\OurEDA\Documents\Tencent             /
//                          Files\1534143789\FileRecv\ZStack-CC2530-2.5.1a\ZS /
//                          tack-CC2530-2.5.1a\Projects\zstack\Samples\02Ligh /
//                          t_ENDDB\CC2530DB\..\..\..\Tools\CC2530DB\f8wEndev /
//                          .cfg" (-DCPU32MHZ -DROOT=__near_func              /
//                          -DMAC_CFG_TX_DATA_MAX=3 -DMAC_CFG_TX_MAX=6        /
//                          -DMAC_CFG_RX_MAX=3) -f "C:\Users\OurEDA\Documents /
//                          \Tencent Files\1534143789\FileRecv\ZStack-CC2530- /
//                          2.5.1a\ZStack-CC2530-2.5.1a\Projects\zstack\Sampl /
//                          es\02Light_ENDDB\CC2530DB\..\..\..\Tools\CC2530DB /
//                          \f8wConfig.cfg" (-DZIGBEEPRO -DSECURE=0           /
//                          -DZG_SECURE_DYNAMIC=0 -DREFLECTOR                 /
//                          -DDEFAULT_CHANLIST=0x00000800                     /
//                          -DZDAPP_CONFIG_PAN_ID=0xFFFF                      /
//                          -DNWK_START_DELAY=100 -DEXTENDED_JOINING_RANDOM_M /
//                          ASK=0x007F -DBEACON_REQUEST_DELAY=100             /
//                          -DBEACON_REQ_DELAY_MASK=0x00FF                    /
//                          -DLINK_STATUS_JITTER_MASK=0x007F                  /
//                          -DROUTE_EXPIRY_TIME=30 -DAPSC_ACK_WAIT_DURATION_P /
//                          OLLED=3000 -DNWK_INDIRECT_MSG_TIMEOUT=7           /
//                          -DMAX_RREQ_ENTRIES=8 -DAPSC_MAX_FRAME_RETRIES=3   /
//                          -DNWK_MAX_DATA_RETRIES=2                          /
//                          -DMAX_POLL_FAILURE_RETRIES=2 -DMAX_BCAST=9        /
//                          -DAPS_MAX_GROUPS=16 -DMAX_RTG_ENTRIES=40          /
//                          -DNWK_MAX_BINDING_ENTRIES=4                       /
//                          -DMAX_BINDING_CLUSTER_IDS=4                       /
//                          "-DDEFAULT_KEY={0x01, 0x03, 0x05, 0x07, 0x09,     /
//                          0x0B, 0x0D, 0x0F, 0x00, 0x02, 0x04, 0x06, 0x08,   /
//                          0x0A, 0x0C, 0x0D}" -DMAC_MAX_FRAME_SIZE=116       /
//                          -DZDNWKMGR_MIN_TRANSMISSIONS=20 "-DCONST=const    /
//                          __code" -DGENERIC=__generic                       /
//                          -DRFD_RCVC_ALWAYS_ON=FALSE -DPOLL_RATE=1000       /
//                          -DQUEUED_POLL_RATE=100 -DRESPONSE_POLL_RATE=100)  /
//                          -DREJOIN_POLL_RATE=440 "C:\Users\OurEDA\Documents /
//                          \Tencent Files\1534143789\FileRecv\ZStack-CC2530- /
//                          2.5.1a\ZStack-CC2530-2.5.1a\Projects\zstack\Sampl /
//                          es\02Light_ENDDB\Source\Light.c" -D               /
//                          NWK_AUTO_POLL -D ZTOOL_P1 -D MT_TASK -D           /
//                          MT_SYS_FUNC -D MT_ZDO_FUNC -D                     /
//                          LCD_SUPPORTED=DEBUG -D xPOWER_SAVING -lC          /
//                          "C:\Users\OurEDA\Documents\Tencent                /
//                          Files\1534143789\FileRecv\ZStack-CC2530-2.5.1a\ZS /
//                          tack-CC2530-2.5.1a\Projects\zstack\Samples\02Ligh /
//                          t_ENDDB\CC2530DB\EndDeviceEB\List\" -lA           /
//                          "C:\Users\OurEDA\Documents\Tencent                /
//                          Files\1534143789\FileRecv\ZStack-CC2530-2.5.1a\ZS /
//                          tack-CC2530-2.5.1a\Projects\zstack\Samples\02Ligh /
//                          t_ENDDB\CC2530DB\EndDeviceEB\List\"               /
//                          --diag_suppress Pe001,Pa010 -o                    /
//                          "C:\Users\OurEDA\Documents\Tencent                /
//                          Files\1534143789\FileRecv\ZStack-CC2530-2.5.1a\ZS /
//                          tack-CC2530-2.5.1a\Projects\zstack\Samples\02Ligh /
//                          t_ENDDB\CC2530DB\EndDeviceEB\Obj\" -e             /
//                          --no_code_motion --debug --core=plain             /
//                          --dptr=16,1 --data_model=large                    /
//                          --code_model=banked --calling_convention=xdata_re /
//                          entrant --place_constants=data_rom                /
//                          --nr_virtual_regs 16 -I                           /
//                          "C:\Users\OurEDA\Documents\Tencent                /
//                          Files\1534143789\FileRecv\ZStack-CC2530-2.5.1a\ZS /
//                          tack-CC2530-2.5.1a\Projects\zstack\Samples\02Ligh /
//                          t_ENDDB\CC2530DB\" -I "C:\Users\OurEDA\Documents\ /
//                          Tencent Files\1534143789\FileRecv\ZStack-CC2530-2 /
//                          .5.1a\ZStack-CC2530-2.5.1a\Projects\zstack\Sample /
//                          s\02Light_ENDDB\CC2530DB\..\Source\" -I           /
//                          "C:\Users\OurEDA\Documents\Tencent                /
//                          Files\1534143789\FileRecv\ZStack-CC2530-2.5.1a\ZS /
//                          tack-CC2530-2.5.1a\Projects\zstack\Samples\02Ligh /
//                          t_ENDDB\CC2530DB\..\..\..\ZMain\TI2530DB\" -I     /
//                          "C:\Users\OurEDA\Documents\Tencent                /
//                          Files\1534143789\FileRecv\ZStack-CC2530-2.5.1a\ZS /
//                          tack-CC2530-2.5.1a\Projects\zstack\Samples\02Ligh /
//                          t_ENDDB\CC2530DB\..\..\..\..\..\Components\hal\in /
//                          clude\" -I "C:\Users\OurEDA\Documents\Tencent     /
//                          Files\1534143789\FileRecv\ZStack-CC2530-2.5.1a\ZS /
//                          tack-CC2530-2.5.1a\Projects\zstack\Samples\02Ligh /
//                          t_ENDDB\CC2530DB\..\..\..\..\..\Components\hal\ta /
//                          rget\CC2530EB\" -I "C:\Users\OurEDA\Documents\Ten /
//                          cent Files\1534143789\FileRecv\ZStack-CC2530-2.5. /
//                          1a\ZStack-CC2530-2.5.1a\Projects\zstack\Samples\0 /
//                          2Light_ENDDB\CC2530DB\..\..\..\..\..\Components\m /
//                          ac\include\" -I "C:\Users\OurEDA\Documents\Tencen /
//                          t Files\1534143789\FileRecv\ZStack-CC2530-2.5.1a\ /
//                          ZStack-CC2530-2.5.1a\Projects\zstack\Samples\02Li /
//                          ght_ENDDB\CC2530DB\..\..\..\..\..\Components\mac\ /
//                          high_level\" -I "C:\Users\OurEDA\Documents\Tencen /
//                          t Files\1534143789\FileRecv\ZStack-CC2530-2.5.1a\ /
//                          ZStack-CC2530-2.5.1a\Projects\zstack\Samples\02Li /
//                          ght_ENDDB\CC2530DB\..\..\..\..\..\Components\mac\ /
//                          low_level\srf04\" -I "C:\Users\OurEDA\Documents\T /
//                          encent Files\1534143789\FileRecv\ZStack-CC2530-2. /
//                          5.1a\ZStack-CC2530-2.5.1a\Projects\zstack\Samples /
//                          \02Light_ENDDB\CC2530DB\..\..\..\..\..\Components /
//                          \mac\low_level\srf04\single_chip\" -I             /
//                          "C:\Users\OurEDA\Documents\Tencent                /
//                          Files\1534143789\FileRecv\ZStack-CC2530-2.5.1a\ZS /
//                          tack-CC2530-2.5.1a\Projects\zstack\Samples\02Ligh /
//                          t_ENDDB\CC2530DB\..\..\..\..\..\Components\mt\"   /
//                          -I "C:\Users\OurEDA\Documents\Tencent             /
//                          Files\1534143789\FileRecv\ZStack-CC2530-2.5.1a\ZS /
//                          tack-CC2530-2.5.1a\Projects\zstack\Samples\02Ligh /
//                          t_ENDDB\CC2530DB\..\..\..\..\..\Components\osal\i /
//                          nclude\" -I "C:\Users\OurEDA\Documents\Tencent    /
//                          Files\1534143789\FileRecv\ZStack-CC2530-2.5.1a\ZS /
//                          tack-CC2530-2.5.1a\Projects\zstack\Samples\02Ligh /
//                          t_ENDDB\CC2530DB\..\..\..\..\..\Components\servic /
//                          es\saddr\" -I "C:\Users\OurEDA\Documents\Tencent  /
//                          Files\1534143789\FileRecv\ZStack-CC2530-2.5.1a\ZS /
//                          tack-CC2530-2.5.1a\Projects\zstack\Samples\02Ligh /
//                          t_ENDDB\CC2530DB\..\..\..\..\..\Components\servic /
//                          es\sdata\" -I "C:\Users\OurEDA\Documents\Tencent  /
//                          Files\1534143789\FileRecv\ZStack-CC2530-2.5.1a\ZS /
//                          tack-CC2530-2.5.1a\Projects\zstack\Samples\02Ligh /
//                          t_ENDDB\CC2530DB\..\..\..\..\..\Components\stack\ /
//                          af\" -I "C:\Users\OurEDA\Documents\Tencent        /
//                          Files\1534143789\FileRecv\ZStack-CC2530-2.5.1a\ZS /
//                          tack-CC2530-2.5.1a\Projects\zstack\Samples\02Ligh /
//                          t_ENDDB\CC2530DB\..\..\..\..\..\Components\stack\ /
//                          nwk\" -I "C:\Users\OurEDA\Documents\Tencent       /
//                          Files\1534143789\FileRecv\ZStack-CC2530-2.5.1a\ZS /
//                          tack-CC2530-2.5.1a\Projects\zstack\Samples\02Ligh /
//                          t_ENDDB\CC2530DB\..\..\..\..\..\Components\stack\ /
//                          sapi\" -I "C:\Users\OurEDA\Documents\Tencent      /
//                          Files\1534143789\FileRecv\ZStack-CC2530-2.5.1a\ZS /
//                          tack-CC2530-2.5.1a\Projects\zstack\Samples\02Ligh /
//                          t_ENDDB\CC2530DB\..\..\..\..\..\Components\stack\ /
//                          sec\" -I "C:\Users\OurEDA\Documents\Tencent       /
//                          Files\1534143789\FileRecv\ZStack-CC2530-2.5.1a\ZS /
//                          tack-CC2530-2.5.1a\Projects\zstack\Samples\02Ligh /
//                          t_ENDDB\CC2530DB\..\..\..\..\..\Components\stack\ /
//                          sys\" -I "C:\Users\OurEDA\Documents\Tencent       /
//                          Files\1534143789\FileRecv\ZStack-CC2530-2.5.1a\ZS /
//                          tack-CC2530-2.5.1a\Projects\zstack\Samples\02Ligh /
//                          t_ENDDB\CC2530DB\..\..\..\..\..\Components\stack\ /
//                          zdo\" -I "C:\Users\OurEDA\Documents\Tencent       /
//                          Files\1534143789\FileRecv\ZStack-CC2530-2.5.1a\ZS /
//                          tack-CC2530-2.5.1a\Projects\zstack\Samples\02Ligh /
//                          t_ENDDB\CC2530DB\..\..\..\..\..\Components\zmac\" /
//                           -I "C:\Users\OurEDA\Documents\Tencent            /
//                          Files\1534143789\FileRecv\ZStack-CC2530-2.5.1a\ZS /
//                          tack-CC2530-2.5.1a\Projects\zstack\Samples\02Ligh /
//                          t_ENDDB\CC2530DB\..\..\..\..\..\Components\zmac\f /
//                          8w\" -Ohz --require_prototypes                    /
//    List file          =  C:\Users\OurEDA\Documents\Tencent                 /
//                          Files\1534143789\FileRecv\ZStack-CC2530-2.5.1a\ZS /
//                          tack-CC2530-2.5.1a\Projects\zstack\Samples\02Ligh /
//                          t_ENDDB\CC2530DB\EndDeviceEB\List\Light.s51       /
//                                                                            /
//                                                                            /
///////////////////////////////////////////////////////////////////////////////

        NAME Light

        RTMODEL "__SystemLibrary", "CLib"
        RTMODEL "__calling_convention", "xdata_reentrant"
        RTMODEL "__code_model", "banked"
        RTMODEL "__core", "plain"
        RTMODEL "__data_model", "large"
        RTMODEL "__dptr_size", "16"
        RTMODEL "__extended_stack", "disabled"
        RTMODEL "__location_for_constants", "data"
        RTMODEL "__number_of_dptrs", "1"
        RTMODEL "__rt_version", "1"

        RSEG DOVERLAY:DATA:NOROOT(0)
        RSEG IOVERLAY:IDATA:NOROOT(0)
        RSEG ISTACK:IDATA:NOROOT(0)
        RSEG PSTACK:XDATA:NOROOT(0)
        RSEG XSTACK:XDATA:NOROOT(0)

        EXTERN ?ALLOC_XSTACK8
        EXTERN ?BANKED_ENTER_XDATA
        EXTERN ?BANKED_LEAVE_XDATA
        EXTERN ?BDISPATCH
        EXTERN ?DEALLOC_XSTACK8
        EXTERN ?FLT_DIV
        EXTERN ?L_MOV_TO_X
        EXTERN ?L_MOV_X
        EXTERN ?L_TO_FLT
        EXTERN ?MOVE_LONG8_XDATA_XDATA
        EXTERN ?PUSH_XSTACK_I_ONE
        EXTERN ?PUSH_XSTACK_I_TWO
        EXTERN ?R2345_FLT_TO_UL
        EXTERN ?US_SWITCH_SPARSE
        EXTERN ?V0
        EXTERN ?XLOAD_R2345
        EXTERN ?XSP
        EXTERN ?XSTACK_DISP0_8
        EXTERN __INIT_XDATA_Z

        PUBLIC ??LightMeasurement_Init?relay
        FUNCTION ??LightMeasurement_Init?relay,0203H
        PUBLIC ??LightMeasurement_ProcessEvent?relay
        FUNCTION ??LightMeasurement_ProcessEvent?relay,0203H
        PUBLIC ??Light_Init?relay
        FUNCTION ??Light_Init?relay,0203H
        PUBLIC ??Light_ProcessEvent?relay
        FUNCTION ??Light_ProcessEvent?relay,0203H
        PUBLIC LightMeasurement_Init
        FUNCTION LightMeasurement_Init,021203H
        ARGFRAME XSTACK, 0, STACK
        LOCFRAME XSTACK, 9, STACK
        PUBLIC LightMeasurement_NwkState
        PUBLIC LightMeasurement_ProcessEvent
        FUNCTION LightMeasurement_ProcessEvent,021203H
        ARGFRAME XSTACK, 0, STACK
        LOCFRAME XSTACK, 16, STACK
        PUBLIC LightMeasurement_TaskID
        PUBLIC LightMeasurement_TransID
        PUBLIC Light_ClusterList
        PUBLIC Light_DstAddr
        PUBLIC Light_Init
        FUNCTION Light_Init,021203H
        ARGFRAME XSTACK, 0, STACK
        LOCFRAME XSTACK, 9, STACK
        PUBLIC Light_NwkState
        PUBLIC Light_ProcessEvent
        FUNCTION Light_ProcessEvent,0a1203H
        ARGFRAME XSTACK, 0, STACK
        LOCFRAME ISTACK, 2, STACK
        LOCFRAME XSTACK, 47, STACK
        PUBLIC Light_SimpleDesc
        PUBLIC Light_TaskID
        PUBLIC Light_TransID
        PUBLIC Light_epDesc
        PUBWEAK __Constant_3fc00000
        PUBLIC fLight
        
        CFI Names cfiNames0
        CFI StackFrame CFA_SP SP IDATA
        CFI StackFrame CFA_PSP16 PSP16 XDATA
        CFI StackFrame CFA_XSP16 XSP16 XDATA
        CFI StaticOverlayFrame CFA_IOVERLAY IOVERLAY
        CFI StaticOverlayFrame CFA_DOVERLAY DOVERLAY
        CFI Resource `PSW.CY`:1, `B.BR0`:1, `B.BR1`:1, `B.BR2`:1, `B.BR3`:1
        CFI Resource `B.BR4`:1, `B.BR5`:1, `B.BR6`:1, `B.BR7`:1, `VB.BR8`:1
        CFI Resource `VB.BR9`:1, `VB.BR10`:1, `VB.BR11`:1, `VB.BR12`:1
        CFI Resource `VB.BR13`:1, `VB.BR14`:1, `VB.BR15`:1, VB:8, B:8, A:8
        CFI Resource PSW:8, DPL0:8, DPH0:8, R0:8, R1:8, R2:8, R3:8, R4:8, R5:8
        CFI Resource R6:8, R7:8, V0:8, V1:8, V2:8, V3:8, V4:8, V5:8, V6:8, V7:8
        CFI Resource V8:8, V9:8, V10:8, V11:8, V12:8, V13:8, V14:8, V15:8, SP:8
        CFI Resource PSPH:8, PSPL:8, PSP16:16, XSPH:8, XSPL:8, XSP16:16
        CFI VirtualResource ?RET:24
        CFI Resource ?BRET_EXT:8
        CFI VirtualResource ?RET_HIGH:8, ?RET_LOW:8
        CFI ResourceParts PSP16 PSPH, PSPL
        CFI ResourceParts XSP16 XSPH, XSPL
        CFI ResourceParts ?RET ?BRET_EXT, ?RET_HIGH, ?RET_LOW
        CFI EndNames cfiNames0
        
        CFI Common cfiCommon0 Using cfiNames0
        CFI CodeAlign 1
        CFI DataAlign -1
        CFI ReturnAddress ?RET CODE
        CFI CFA_DOVERLAY Used
        CFI CFA_IOVERLAY Used
        CFI CFA_SP SP+-3
        CFI CFA_PSP16 PSP16+0
        CFI CFA_XSP16 XSP16+0
        CFI `PSW.CY` SameValue
        CFI `B.BR0` SameValue
        CFI `B.BR1` SameValue
        CFI `B.BR2` SameValue
        CFI `B.BR3` SameValue
        CFI `B.BR4` SameValue
        CFI `B.BR5` SameValue
        CFI `B.BR6` SameValue
        CFI `B.BR7` SameValue
        CFI `VB.BR8` SameValue
        CFI `VB.BR9` SameValue
        CFI `VB.BR10` SameValue
        CFI `VB.BR11` SameValue
        CFI `VB.BR12` SameValue
        CFI `VB.BR13` SameValue
        CFI `VB.BR14` SameValue
        CFI `VB.BR15` SameValue
        CFI VB SameValue
        CFI B Undefined
        CFI A Undefined
        CFI PSW SameValue
        CFI DPL0 SameValue
        CFI DPH0 SameValue
        CFI R0 Undefined
        CFI R1 Undefined
        CFI R2 Undefined
        CFI R3 Undefined
        CFI R4 Undefined
        CFI R5 Undefined
        CFI R6 SameValue
        CFI R7 SameValue
        CFI V0 SameValue
        CFI V1 SameValue
        CFI V2 SameValue
        CFI V3 SameValue
        CFI V4 SameValue
        CFI V5 SameValue
        CFI V6 SameValue
        CFI V7 SameValue
        CFI V8 SameValue
        CFI V9 SameValue
        CFI V10 SameValue
        CFI V11 SameValue
        CFI V12 SameValue
        CFI V13 SameValue
        CFI V14 SameValue
        CFI V15 SameValue
        CFI PSPH Undefined
        CFI PSPL Undefined
        CFI XSPH Undefined
        CFI XSPL Undefined
        CFI ?RET Concat
        CFI ?BRET_EXT Frame(CFA_SP, 3)
        CFI ?RET_HIGH Frame(CFA_SP, 2)
        CFI ?RET_LOW Frame(CFA_SP, 1)
        CFI EndCommon cfiCommon0
        
        
        CFI Common cfiCommon1 Using cfiNames0
        CFI CodeAlign 1
        CFI DataAlign -1
        CFI ReturnAddress ?RET CODE
        CFI CFA_DOVERLAY Used
        CFI CFA_IOVERLAY Used
        CFI CFA_SP SP+-2
        CFI CFA_PSP16 PSP16+0
        CFI CFA_XSP16 XSP16+0
        CFI `PSW.CY` SameValue
        CFI `B.BR0` SameValue
        CFI `B.BR1` SameValue
        CFI `B.BR2` SameValue
        CFI `B.BR3` SameValue
        CFI `B.BR4` SameValue
        CFI `B.BR5` SameValue
        CFI `B.BR6` SameValue
        CFI `B.BR7` SameValue
        CFI `VB.BR8` SameValue
        CFI `VB.BR9` SameValue
        CFI `VB.BR10` SameValue
        CFI `VB.BR11` SameValue
        CFI `VB.BR12` SameValue
        CFI `VB.BR13` SameValue
        CFI `VB.BR14` SameValue
        CFI `VB.BR15` SameValue
        CFI VB SameValue
        CFI B SameValue
        CFI A SameValue
        CFI PSW SameValue
        CFI DPL0 SameValue
        CFI DPH0 SameValue
        CFI R0 SameValue
        CFI R1 SameValue
        CFI R2 SameValue
        CFI R3 SameValue
        CFI R4 SameValue
        CFI R5 SameValue
        CFI R6 SameValue
        CFI R7 SameValue
        CFI V0 SameValue
        CFI V1 SameValue
        CFI V2 SameValue
        CFI V3 SameValue
        CFI V4 SameValue
        CFI V5 SameValue
        CFI V6 SameValue
        CFI V7 SameValue
        CFI V8 SameValue
        CFI V9 SameValue
        CFI V10 SameValue
        CFI V11 SameValue
        CFI V12 SameValue
        CFI V13 SameValue
        CFI V14 SameValue
        CFI V15 SameValue
        CFI PSPH Undefined
        CFI PSPL Undefined
        CFI XSPH Undefined
        CFI XSPL Undefined
        CFI ?RET Concat
        CFI ?BRET_EXT SameValue
        CFI ?RET_HIGH Frame(CFA_SP, 2)
        CFI ?RET_LOW Frame(CFA_SP, 1)
        CFI EndCommon cfiCommon1
        
afRegister          SYMBOL "afRegister"
RegisterForKeys     SYMBOL "RegisterForKeys"
HalLcdWriteString   SYMBOL "HalLcdWriteString"
ZDO_RegisterForZDOMsg SYMBOL "ZDO_RegisterForZDOMsg"
osal_msg_receive    SYMBOL "osal_msg_receive"
osal_start_timerEx  SYMBOL "osal_start_timerEx"
osal_msg_deallocate SYMBOL "osal_msg_deallocate"
ZDO_ParseEPListRsp  SYMBOL "ZDO_ParseEPListRsp"
HalLedSet           SYMBOL "HalLedSet"
osal_mem_free       SYMBOL "osal_mem_free"
NLME_GetShortAddr   SYMBOL "NLME_GetShortAddr"
ZDP_EndDeviceBindReq SYMBOL "ZDP_EndDeviceBindReq"
ZDP_MatchDescReq    SYMBOL "ZDP_MatchDescReq"
HalLcdWriteScreen   SYMBOL "HalLcdWriteScreen"
_ltoa               SYMBOL "_ltoa"
osal_strlen         SYMBOL "osal_strlen"
AF_DataRequest      SYMBOL "AF_DataRequest"
Init_BH1750         SYMBOL "Init_BH1750"
Single_Write_BH1750 SYMBOL "Single_Write_BH1750"
delay_nms           SYMBOL "delay_nms"
Multiple_Read       SYMBOL "Multiple_Read"
??AF_DataRequest?relay SYMBOL "?relay", AF_DataRequest
??HalLcdWriteScreen?relay SYMBOL "?relay", HalLcdWriteScreen
??HalLcdWriteString?relay SYMBOL "?relay", HalLcdWriteString
??HalLedSet?relay   SYMBOL "?relay", HalLedSet
??Init_BH1750?relay SYMBOL "?relay", Init_BH1750
??Multiple_Read?relay SYMBOL "?relay", Multiple_Read
??NLME_GetShortAddr?relay SYMBOL "?relay", NLME_GetShortAddr
??RegisterForKeys?relay SYMBOL "?relay", RegisterForKeys
??Single_Write_BH1750?relay SYMBOL "?relay", Single_Write_BH1750
??ZDO_ParseEPListRsp?relay SYMBOL "?relay", ZDO_ParseEPListRsp
??ZDO_RegisterForZDOMsg?relay SYMBOL "?relay", ZDO_RegisterForZDOMsg
??ZDP_EndDeviceBindReq?relay SYMBOL "?relay", ZDP_EndDeviceBindReq
??ZDP_MatchDescReq?relay SYMBOL "?relay", ZDP_MatchDescReq
??_ltoa?relay       SYMBOL "?relay", _ltoa
??afRegister?relay  SYMBOL "?relay", afRegister
??delay_nms?relay   SYMBOL "?relay", delay_nms
??osal_mem_free?relay SYMBOL "?relay", osal_mem_free
??osal_msg_deallocate?relay SYMBOL "?relay", osal_msg_deallocate
??osal_msg_receive?relay SYMBOL "?relay", osal_msg_receive
??osal_start_timerEx?relay SYMBOL "?relay", osal_start_timerEx
??osal_strlen?relay SYMBOL "?relay", osal_strlen
LightMeasurement_Init SYMBOL "LightMeasurement_Init"
??LightMeasurement_Init?relay SYMBOL "?relay", LightMeasurement_Init
LightMeasurement_ProcessEvent SYMBOL "LightMeasurement_ProcessEvent"
??LightMeasurement_ProcessEvent?relay SYMBOL "?relay", LightMeasurement_ProcessEvent
Light_Init          SYMBOL "Light_Init"
??Light_Init?relay  SYMBOL "?relay", Light_Init
Light_ProcessEvent  SYMBOL "Light_ProcessEvent"
??Light_ProcessEvent?relay SYMBOL "?relay", Light_ProcessEvent

        EXTERN afRegister
        FUNCTION afRegister,0202H
        ARGFRAME ISTACK, 0, STACK
        ARGFRAME PSTACK, 0, STACK
        ARGFRAME XSTACK, 9, STACK
        ARGFRAME IOVERLAY, 0, STATIC
        ARGFRAME DOVERLAY, 0, STATIC
        EXTERN RegisterForKeys
        FUNCTION RegisterForKeys,0202H
        ARGFRAME ISTACK, 0, STACK
        ARGFRAME PSTACK, 0, STACK
        ARGFRAME XSTACK, 9, STACK
        ARGFRAME IOVERLAY, 0, STATIC
        ARGFRAME DOVERLAY, 0, STATIC
        EXTERN HalLcdWriteString
        FUNCTION HalLcdWriteString,0202H
        ARGFRAME ISTACK, 0, STACK
        ARGFRAME PSTACK, 0, STACK
        ARGFRAME XSTACK, 9, STACK
        ARGFRAME IOVERLAY, 0, STATIC
        ARGFRAME DOVERLAY, 0, STATIC
        EXTERN ZDO_RegisterForZDOMsg
        FUNCTION ZDO_RegisterForZDOMsg,0202H
        ARGFRAME ISTACK, 0, STACK
        ARGFRAME PSTACK, 0, STACK
        ARGFRAME XSTACK, 9, STACK
        ARGFRAME IOVERLAY, 0, STATIC
        ARGFRAME DOVERLAY, 0, STATIC
        EXTERN osal_msg_receive
        FUNCTION osal_msg_receive,0202H
        ARGFRAME ISTACK, 0, STACK
        ARGFRAME PSTACK, 0, STACK
        ARGFRAME XSTACK, 38, STACK
        ARGFRAME IOVERLAY, 0, STATIC
        ARGFRAME DOVERLAY, 0, STATIC
        EXTERN osal_start_timerEx
        FUNCTION osal_start_timerEx,0202H
        ARGFRAME ISTACK, 0, STACK
        ARGFRAME PSTACK, 0, STACK
        ARGFRAME XSTACK, 38, STACK
        ARGFRAME IOVERLAY, 0, STATIC
        ARGFRAME DOVERLAY, 0, STATIC
        EXTERN osal_msg_deallocate
        FUNCTION osal_msg_deallocate,0202H
        ARGFRAME ISTACK, 0, STACK
        ARGFRAME PSTACK, 0, STACK
        ARGFRAME XSTACK, 38, STACK
        ARGFRAME IOVERLAY, 0, STATIC
        ARGFRAME DOVERLAY, 0, STATIC
        EXTERN ZDO_ParseEPListRsp
        FUNCTION ZDO_ParseEPListRsp,0202H
        ARGFRAME ISTACK, 0, STACK
        ARGFRAME PSTACK, 0, STACK
        ARGFRAME XSTACK, 38, STACK
        ARGFRAME IOVERLAY, 0, STATIC
        ARGFRAME DOVERLAY, 0, STATIC
        EXTERN HalLedSet
        FUNCTION HalLedSet,0202H
        ARGFRAME ISTACK, 0, STACK
        ARGFRAME PSTACK, 0, STACK
        ARGFRAME XSTACK, 38, STACK
        ARGFRAME IOVERLAY, 0, STATIC
        ARGFRAME DOVERLAY, 0, STATIC
        EXTERN osal_mem_free
        FUNCTION osal_mem_free,0202H
        ARGFRAME ISTACK, 0, STACK
        ARGFRAME PSTACK, 0, STACK
        ARGFRAME XSTACK, 38, STACK
        ARGFRAME IOVERLAY, 0, STATIC
        ARGFRAME DOVERLAY, 0, STATIC
        EXTERN NLME_GetShortAddr
        FUNCTION NLME_GetShortAddr,0202H
        ARGFRAME ISTACK, 0, STACK
        ARGFRAME PSTACK, 0, STACK
        ARGFRAME XSTACK, 38, STACK
        ARGFRAME IOVERLAY, 0, STATIC
        ARGFRAME DOVERLAY, 0, STATIC
        EXTERN ZDP_EndDeviceBindReq
        FUNCTION ZDP_EndDeviceBindReq,0202H
        ARGFRAME ISTACK, 0, STACK
        ARGFRAME PSTACK, 0, STACK
        ARGFRAME XSTACK, 47, STACK
        ARGFRAME IOVERLAY, 0, STATIC
        ARGFRAME DOVERLAY, 0, STATIC
        EXTERN ZDP_MatchDescReq
        FUNCTION ZDP_MatchDescReq,0202H
        ARGFRAME ISTACK, 0, STACK
        ARGFRAME PSTACK, 0, STACK
        ARGFRAME XSTACK, 46, STACK
        ARGFRAME IOVERLAY, 0, STATIC
        ARGFRAME DOVERLAY, 0, STATIC
        EXTERN HalLcdWriteScreen
        FUNCTION HalLcdWriteScreen,0202H
        ARGFRAME ISTACK, 0, STACK
        ARGFRAME PSTACK, 0, STACK
        ARGFRAME XSTACK, 38, STACK
        ARGFRAME IOVERLAY, 0, STATIC
        ARGFRAME DOVERLAY, 0, STATIC
        EXTERN _ltoa
        FUNCTION _ltoa,0202H
        ARGFRAME ISTACK, 0, STACK
        ARGFRAME PSTACK, 0, STACK
        ARGFRAME XSTACK, 40, STACK
        ARGFRAME IOVERLAY, 0, STATIC
        ARGFRAME DOVERLAY, 0, STATIC
        EXTERN osal_strlen
        FUNCTION osal_strlen,0202H
        ARGFRAME ISTACK, 0, STACK
        ARGFRAME PSTACK, 0, STACK
        ARGFRAME XSTACK, 43, STACK
        ARGFRAME IOVERLAY, 0, STATIC
        ARGFRAME DOVERLAY, 0, STATIC
        EXTERN AF_DataRequest
        FUNCTION AF_DataRequest,0202H
        ARGFRAME ISTACK, 0, STACK
        ARGFRAME PSTACK, 0, STACK
        ARGFRAME XSTACK, 47, STACK
        ARGFRAME IOVERLAY, 0, STATIC
        ARGFRAME DOVERLAY, 0, STATIC
        EXTERN Init_BH1750
        FUNCTION Init_BH1750,0202H
        ARGFRAME ISTACK, 0, STACK
        ARGFRAME PSTACK, 0, STACK
        ARGFRAME XSTACK, 16, STACK
        ARGFRAME IOVERLAY, 0, STATIC
        ARGFRAME DOVERLAY, 0, STATIC
        EXTERN Single_Write_BH1750
        FUNCTION Single_Write_BH1750,0202H
        ARGFRAME ISTACK, 0, STACK
        ARGFRAME PSTACK, 0, STACK
        ARGFRAME XSTACK, 16, STACK
        ARGFRAME IOVERLAY, 0, STATIC
        ARGFRAME DOVERLAY, 0, STATIC
        EXTERN delay_nms
        FUNCTION delay_nms,0202H
        ARGFRAME ISTACK, 0, STACK
        ARGFRAME PSTACK, 0, STACK
        ARGFRAME XSTACK, 16, STACK
        ARGFRAME IOVERLAY, 0, STATIC
        ARGFRAME DOVERLAY, 0, STATIC
        EXTERN Multiple_Read
        FUNCTION Multiple_Read,0202H
        ARGFRAME ISTACK, 0, STACK
        ARGFRAME PSTACK, 0, STACK
        ARGFRAME XSTACK, 16, STACK
        ARGFRAME IOVERLAY, 0, STATIC
        ARGFRAME DOVERLAY, 0, STATIC
        EXTERN ??AF_DataRequest?relay
        FUNCTION ??AF_DataRequest?relay,00H
        EXTERN ??HalLcdWriteScreen?relay
        FUNCTION ??HalLcdWriteScreen?relay,00H
        EXTERN ??HalLcdWriteString?relay
        FUNCTION ??HalLcdWriteString?relay,00H
        EXTERN ??HalLedSet?relay
        FUNCTION ??HalLedSet?relay,00H
        EXTERN ??Init_BH1750?relay
        FUNCTION ??Init_BH1750?relay,00H
        EXTERN ??Multiple_Read?relay
        FUNCTION ??Multiple_Read?relay,00H
        EXTERN ??NLME_GetShortAddr?relay
        FUNCTION ??NLME_GetShortAddr?relay,00H
        EXTERN ??RegisterForKeys?relay
        FUNCTION ??RegisterForKeys?relay,00H
        EXTERN ??Single_Write_BH1750?relay
        FUNCTION ??Single_Write_BH1750?relay,00H
        EXTERN ??ZDO_ParseEPListRsp?relay
        FUNCTION ??ZDO_ParseEPListRsp?relay,00H
        EXTERN ??ZDO_RegisterForZDOMsg?relay
        FUNCTION ??ZDO_RegisterForZDOMsg?relay,00H
        EXTERN ??ZDP_EndDeviceBindReq?relay
        FUNCTION ??ZDP_EndDeviceBindReq?relay,00H
        EXTERN ??ZDP_MatchDescReq?relay
        FUNCTION ??ZDP_MatchDescReq?relay,00H
        EXTERN ??_ltoa?relay
        FUNCTION ??_ltoa?relay,00H
        EXTERN ??afRegister?relay
        FUNCTION ??afRegister?relay,00H
        EXTERN ??delay_nms?relay
        FUNCTION ??delay_nms?relay,00H
        EXTERN ??osal_mem_free?relay
        FUNCTION ??osal_mem_free?relay,00H
        EXTERN ??osal_msg_deallocate?relay
        FUNCTION ??osal_msg_deallocate?relay,00H
        EXTERN ??osal_msg_receive?relay
        FUNCTION ??osal_msg_receive?relay,00H
        EXTERN ??osal_start_timerEx?relay
        FUNCTION ??osal_start_timerEx?relay,00H
        EXTERN ??osal_strlen?relay
        FUNCTION ??osal_strlen?relay,00H
        EXTERN BUF
        EXTERN dis_data

// C:\Users\OurEDA\Documents\Tencent Files\1534143789\FileRecv\ZStack-CC2530-2.5.1a\ZStack-CC2530-2.5.1a\Projects\zstack\Samples\02Light_ENDDB\Source\Light.c
//    1 /******************************************************************************
//    2   Filename:       Light.c
//    3   Revised:        $Date: 2012-03-07 01:04:58 -0800 (Wed, 07 Mar 2012) $
//    4   Revision:       $Revision: 29656 $
//    5 
//    6   Description:    Generic Application (no Profile).
//    7 
//    8 
//    9   Copyright 2004-2012 Texas Instruments Incorporated. All rights reserved.
//   10 
//   11   IMPORTANT: Your use of this Software is limited to those specific rights
//   12   granted under the terms of a software license agreement between the user
//   13   who downloaded the software, his/her employer (which must be your employer)
//   14   and Texas Instruments Incorporated (the "License"). You may not use this
//   15   Software unless you agree to abide by the terms of the License. The License
//   16   limits your use, and you acknowledge, that the Software may not be modified,
//   17   copied or distributed unless embedded on a Texas Instruments microcontroller
//   18   or used solely and exclusively in conjunction with a Texas Instruments radio
//   19   frequency transceiver, which is integrated into your product. Other than for
//   20   the foregoing purpose, you may not use, reproduce, copy, prepare derivative
//   21   works of, modify, distribute, perform, display or sell this Software and/or
//   22   its documentation for any purpose.
//   23 
//   24   YOU FURTHER ACKNOWLEDGE AND AGREE THAT THE SOFTWARE AND DOCUMENTATION ARE
//   25   PROVIDED “AS IS?WITHOUT WARRANTY OF ANY KIND, EITHER EXPRESS OR IMPLIED,
//   26   INCLUDING WITHOUT LIMITATION, ANY WARRANTY OF MERCHANTABILITY, TITLE,
//   27   NON-INFRINGEMENT AND FITNESS FOR A PARTICULAR PURPOSE. IN NO EVENT SHALL
//   28   TEXAS INSTRUMENTS OR ITS LICENSORS BE LIABLE OR OBLIGATED UNDER CONTRACT,
//   29   NEGLIGENCE, STRICT LIABILITY, CONTRIBUTION, BREACH OF WARRANTY, OR OTHER
//   30   LEGAL EQUITABLE THEORY ANY DIRECT OR INDIRECT DAMAGES OR EXPENSES
//   31   INCLUDING BUT NOT LIMITED TO ANY INCIDENTAL, SPECIAL, INDIRECT, PUNITIVE
//   32   OR CONSEQUENTIAL DAMAGES, LOST PROFITS OR LOST DATA, COST OF PROCUREMENT
//   33   OF SUBSTITUTE GOODS, TECHNOLOGY, SERVICES, OR ANY CLAIMS BY THIRD PARTIES
//   34   (INCLUDING BUT NOT LIMITED TO ANY DEFENSE THEREOF), OR OTHER SIMILAR COSTS.
//   35 
//   36   Should you have any questions regarding your right to use this Software,
//   37   contact Texas Instruments Incorporated at www.TI.com.
//   38 ******************************************************************************/
//   39 
//   40 /*********************************************************************
//   41   This application isn't intended to do anything useful, it is
//   42   intended to be a simple example of an application's structure.
//   43 
//   44   This application sends "Hello World" to another "Generic"
//   45   application every 5 seconds.  The application will also
//   46   receives "Hello World" packets.
//   47 
//   48   The "Hello World" messages are sent/received as MSG type message.
//   49 
//   50   This applications doesn't have a profile, so it handles everything
//   51   directly - itself.
//   52 
//   53   Key control:
//   54     SW1:
//   55     SW2:  initiates end device binding
//   56     SW3:
//   57     SW4:  initiates a match description request
//   58 *********************************************************************/
//   59 
//   60 /*********************************************************************
//   61  * INCLUDES
//   62  */
//   63 #include "OSAL.h"
//   64 #include "AF.h"
//   65 #include "ZDApp.h"
//   66 #include "ZDObject.h"
//   67 #include "ZDProfile.h"
//   68 
//   69 #include "Light.h"
//   70 #include "DebugTrace.h"
//   71 
//   72 #include "BH1750.h"
//   73 
//   74 #if !defined( WIN32 )
//   75   #include "OnBoard.h"
//   76 #endif
//   77 
//   78 /* HAL */
//   79 #include "hal_lcd.h"
//   80 #include "hal_led.h"
//   81 #include "hal_key.h"
//   82 #include "hal_uart.h"
//   83 
//   84 /* RTOS */
//   85 #if defined( IAR_ARMCM3_LM )
//   86 #include "RTOS_App.h"
//   87 #endif  
//   88 
//   89 /*********************************************************************
//   90  * MACROS
//   91  */
//   92 
//   93 /*********************************************************************
//   94  * CONSTANTS
//   95  */
//   96 
//   97 /*********************************************************************
//   98  * TYPEDEFS
//   99  */
//  100 
//  101 /*********************************************************************
//  102  * GLOBAL VARIABLES
//  103  */
//  104 // This list should be filled with Application specific Cluster IDs.

        RSEG XDATA_ROM_C:CONST:REORDER:NOROOT(0)
        DATA16
//  105 const cId_t Light_ClusterList[LIGHT_MAX_CLUSTERS] =
Light_ClusterList:
        DW 1
//  106 {
//  107   LIGHT_CLUSTERID
//  108 };
//  109 

        RSEG XDATA_ROM_C:CONST:REORDER:NOROOT(0)
        DATA8
//  110 const SimpleDescriptionFormat_t Light_SimpleDesc =
Light_SimpleDesc:
        DB 10
        DATA16
        DW 3844
        DW 1
        DATA8
        DB 0
        DB 1
        DATA16
        DW Light_ClusterList
        DATA8
        DB 1
        DATA16
        DW Light_ClusterList
//  111 {
//  112   LIGHT_ENDPOINT,              //  int Endpoint;
//  113   LIGHT_PROFID,                //  uint16 AppProfId[2];
//  114   LIGHT_DEVICEID,              //  uint16 AppDeviceId[2];
//  115   LIGHT_DEVICE_VERSION,        //  int   AppDevVer:4;
//  116   LIGHT_FLAGS,                 //  int   AppFlags:4;
//  117   LIGHT_MAX_CLUSTERS,          //  byte  AppNumInClusters;
//  118   (cId_t *)Light_ClusterList,  //  byte *pAppInClusterList;
//  119   LIGHT_MAX_CLUSTERS,          //  byte  AppNumInClusters;
//  120   (cId_t *)Light_ClusterList   //  byte *pAppInClusterList;
//  121 };
//  122 
//  123 // This is the Endpoint/Interface description.  It is defined here, but
//  124 // filled-in in Light_Init().  Another way to go would be to fill
//  125 // in the structure here and make it a "const" (in code space).  The
//  126 // way it's defined in this sample app it is define in RAM.

        RSEG XDATA_Z:XDATA:NOROOT(0)
        DATA8
//  127 endPointDesc_t Light_epDesc;
Light_epDesc:
        DS 6
        REQUIRE __INIT_XDATA_Z
//  128 
//  129 /*********************************************************************
//  130  * EXTERNAL VARIABLES
//  131  */
//  132 
//  133 /*********************************************************************
//  134  * EXTERNAL FUNCTIONS
//  135  */
//  136 
//  137 /*********************************************************************
//  138  * LOCAL VARIABLES
//  139  */

        RSEG XDATA_Z:XDATA:NOROOT(0)
        DATA8
//  140 byte Light_TaskID;   // Task ID for internal task/event processing
Light_TaskID:
        DS 1
        REQUIRE __INIT_XDATA_Z
//  141                           // This variable will be received when
//  142                           // Light_Init() is called.

        RSEG XDATA_Z:XDATA:NOROOT(0)
        DATA8
//  143 devStates_t Light_NwkState;
Light_NwkState:
        DS 1
        REQUIRE __INIT_XDATA_Z
//  144 
//  145 

        RSEG XDATA_Z:XDATA:NOROOT(0)
        DATA8
//  146 byte Light_TransID;  // This is the unique message ID (counter)
Light_TransID:
        DS 1
        REQUIRE __INIT_XDATA_Z
//  147 

        RSEG XDATA_Z:XDATA:NOROOT(0)
        DATA8
//  148 afAddrType_t Light_DstAddr;
Light_DstAddr:
        DS 12
        REQUIRE __INIT_XDATA_Z
//  149 

        RSEG XDATA_Z:XDATA:NOROOT(0)
        DATA8
//  150 byte LightMeasurement_TaskID;
LightMeasurement_TaskID:
        DS 1
        REQUIRE __INIT_XDATA_Z

        RSEG XDATA_Z:XDATA:NOROOT(0)
        DATA8
//  151 devStates_t LightMeasurement_NwkState;
LightMeasurement_NwkState:
        DS 1
        REQUIRE __INIT_XDATA_Z

        RSEG XDATA_Z:XDATA:NOROOT(0)
        DATA8
//  152 byte LightMeasurement_TransID;
LightMeasurement_TransID:
        DS 1
        REQUIRE __INIT_XDATA_Z
//  153 

        RSEG XDATA_Z:XDATA:NOROOT(0)
        DATA32
//  154 float fLight;
fLight:
        DS 4
        REQUIRE __INIT_XDATA_Z
//  155 
//  156 /*********************************************************************
//  157  * LOCAL FUNCTIONS
//  158  */
//  159 static void Light_ProcessZDOMsgs( zdoIncomingMsg_t *inMsg );
//  160 static void Light_HandleKeys( byte shift, byte keys );
//  161 static void Light_MessageMSGCB( afIncomingMSGPacket_t *pckt );
//  162 static void Light_SendTheMessage( void );
//  163 
//  164 #if defined( IAR_ARMCM3_LM )
//  165 static void Light_ProcessRtosMessage( void );
//  166 #endif
//  167 
//  168 /*********************************************************************
//  169  * NETWORK LAYER CALLBACKS
//  170  */
//  171 
//  172 /*********************************************************************
//  173  * PUBLIC FUNCTIONS
//  174  */
//  175 
//  176 /*********************************************************************
//  177  * @fn      Light_Init
//  178  *
//  179  * @brief   Initialization function for the Generic App Task.
//  180  *          This is called during initialization and should contain
//  181  *          any application specific initialization (ie. hardware
//  182  *          initialization/setup, table initialization, power up
//  183  *          notificaiton ... ).
//  184  *
//  185  * @param   task_id - the ID assigned by OSAL.  This ID should be
//  186  *                    used to send messages and set timers.
//  187  *
//  188  * @return  none
//  189  */

        RSEG BANKED_CODE:CODE:NOROOT(0)
//  190 void Light_Init( uint8 task_id )
Light_Init:
        CFI Block cfiBlock0 Using cfiCommon0
        CFI Function Light_Init
        CODE
//  191 {
        FUNCALL Light_Init, afRegister
        LOCFRAME ISTACK, 0, STACK
        LOCFRAME PSTACK, 0, STACK
        LOCFRAME XSTACK, 9, STACK
        LOCFRAME IOVERLAY, 0, STATIC
        LOCFRAME DOVERLAY, 0, STATIC
        ARGFRAME ISTACK, 0, STACK
        ARGFRAME PSTACK, 0, STACK
        ARGFRAME XSTACK, 9, STACK
        ARGFRAME IOVERLAY, 0, STATIC
        ARGFRAME DOVERLAY, 0, STATIC
        FUNCALL Light_Init, RegisterForKeys
        LOCFRAME ISTACK, 0, STACK
        LOCFRAME PSTACK, 0, STACK
        LOCFRAME XSTACK, 9, STACK
        LOCFRAME IOVERLAY, 0, STATIC
        LOCFRAME DOVERLAY, 0, STATIC
        ARGFRAME ISTACK, 0, STACK
        ARGFRAME PSTACK, 0, STACK
        ARGFRAME XSTACK, 9, STACK
        ARGFRAME IOVERLAY, 0, STATIC
        ARGFRAME DOVERLAY, 0, STATIC
        FUNCALL Light_Init, HalLcdWriteString
        LOCFRAME ISTACK, 0, STACK
        LOCFRAME PSTACK, 0, STACK
        LOCFRAME XSTACK, 9, STACK
        LOCFRAME IOVERLAY, 0, STATIC
        LOCFRAME DOVERLAY, 0, STATIC
        ARGFRAME ISTACK, 0, STACK
        ARGFRAME PSTACK, 0, STACK
        ARGFRAME XSTACK, 9, STACK
        ARGFRAME IOVERLAY, 0, STATIC
        ARGFRAME DOVERLAY, 0, STATIC
        FUNCALL Light_Init, ZDO_RegisterForZDOMsg
        LOCFRAME ISTACK, 0, STACK
        LOCFRAME PSTACK, 0, STACK
        LOCFRAME XSTACK, 9, STACK
        LOCFRAME IOVERLAY, 0, STATIC
        LOCFRAME DOVERLAY, 0, STATIC
        ARGFRAME ISTACK, 0, STACK
        ARGFRAME PSTACK, 0, STACK
        ARGFRAME XSTACK, 9, STACK
        ARGFRAME IOVERLAY, 0, STATIC
        ARGFRAME DOVERLAY, 0, STATIC
        FUNCALL Light_Init, ZDO_RegisterForZDOMsg
        LOCFRAME ISTACK, 0, STACK
        LOCFRAME PSTACK, 0, STACK
        LOCFRAME XSTACK, 9, STACK
        LOCFRAME IOVERLAY, 0, STATIC
        LOCFRAME DOVERLAY, 0, STATIC
        ARGFRAME ISTACK, 0, STACK
        ARGFRAME PSTACK, 0, STACK
        ARGFRAME XSTACK, 9, STACK
        ARGFRAME IOVERLAY, 0, STATIC
        ARGFRAME DOVERLAY, 0, STATIC
        MOV     A,#-0x9
        LCALL   ?BANKED_ENTER_XDATA
        CFI DPH0 load(1, XDATA, add(CFA_XSP16, literal(-1)))
        CFI DPL0 load(1, XDATA, add(CFA_XSP16, literal(-2)))
        CFI ?BRET_EXT load(1, XDATA, add(CFA_XSP16, literal(-3)))
        CFI ?RET_HIGH load(1, XDATA, add(CFA_XSP16, literal(-4)))
        CFI ?RET_LOW load(1, XDATA, add(CFA_XSP16, literal(-5)))
        CFI R7 load(1, XDATA, add(CFA_XSP16, literal(-6)))
        CFI V0 load(1, XDATA, add(CFA_XSP16, literal(-7)))
        CFI VB load(1, XDATA, add(CFA_XSP16, literal(-8)))
        CFI R6 load(1, XDATA, add(CFA_XSP16, literal(-9)))
        CFI CFA_SP SP+0
        CFI CFA_XSP16 add(XSP16, 9)
        ; Saved register size: 9
        ; Auto size: 0
        MOV     A,R1
//  192   Light_TaskID = task_id;
        MOV     DPTR,#Light_TaskID
        MOVX    @DPTR,A
//  193   Light_NwkState = DEV_INIT;
        MOV     DPTR,#Light_NwkState
        MOV     A,#0x1
        MOVX    @DPTR,A
//  194   Light_TransID = 0;
        MOV     DPTR,#Light_TransID
        CLR     A
        MOVX    @DPTR,A
//  195 
//  196   // Device hardware initialization can be added here or in main() (Zmain.c).
//  197   // If the hardware is application specific - add it here.
//  198   // If the hardware is other parts of the device add it in main().
//  199 
//  200   Light_DstAddr.addrMode = (afAddrMode_t)AddrNotPresent;
        MOV     DPTR,#Light_DstAddr + 8
        MOVX    @DPTR,A
//  201   Light_DstAddr.endPoint = 0;
        INC     DPTR
        MOVX    @DPTR,A
//  202   Light_DstAddr.addr.shortAddr = 0;
        MOV     DPTR,#Light_DstAddr
        MOVX    @DPTR,A
        INC     DPTR
        MOVX    @DPTR,A
//  203 
//  204   // Fill out the endpoint description.
//  205   Light_epDesc.endPoint = LIGHT_ENDPOINT;
        MOV     DPTR,#Light_epDesc
        MOV     A,#0xa
        MOVX    @DPTR,A
//  206   Light_epDesc.task_id = &Light_TaskID;
        INC     DPTR
        MOV     A,#Light_TaskID & 0xff
        MOVX    @DPTR,A
        INC     DPTR
        MOV     A,#(Light_TaskID >> 8) & 0xff
        MOVX    @DPTR,A
//  207   Light_epDesc.simpleDesc
//  208             = (SimpleDescriptionFormat_t *)&Light_SimpleDesc;
        INC     DPTR
        MOV     A,#Light_SimpleDesc & 0xff
        MOVX    @DPTR,A
        INC     DPTR
        MOV     A,#(Light_SimpleDesc >> 8) & 0xff
        MOVX    @DPTR,A
//  209   Light_epDesc.latencyReq = noLatencyReqs;
        INC     DPTR
        CLR     A
        MOVX    @DPTR,A
//  210 
//  211   // Register the endpoint description with the AF
//  212   afRegister( &Light_epDesc );
        ; Setup parameters for call to function afRegister
        MOV     R2,#Light_epDesc & 0xff
        MOV     R3,#(Light_epDesc >> 8) & 0xff
        LCALL   ??afRegister?relay
//  213 
//  214   // Register for all key events - This app will handle all key events
//  215   RegisterForKeys( Light_TaskID );
        ; Setup parameters for call to function RegisterForKeys
        MOV     DPTR,#Light_TaskID
        MOVX    A,@DPTR
        MOV     R1,A
        LCALL   ??RegisterForKeys?relay
//  216 
//  217   // Update the display
//  218 #if defined ( LCD_SUPPORTED )
//  219   HalLcdWriteString( "Light", HAL_LCD_LINE_1 );
        ; Setup parameters for call to function HalLcdWriteString
        MOV     R1,#0x1
        MOV     R2,#`?<Constant "Light">` & 0xff
        MOV     R3,#(`?<Constant "Light">` >> 8) & 0xff
        LCALL   ??HalLcdWriteString?relay
//  220 #endif
//  221 
//  222   ZDO_RegisterForZDOMsg( Light_TaskID, End_Device_Bind_rsp );
        ; Setup parameters for call to function ZDO_RegisterForZDOMsg
        MOV     R2,#0x20
        MOV     R3,#-0x80
        MOV     DPTR,#Light_TaskID
        MOVX    A,@DPTR
        MOV     R1,A
        LCALL   ??ZDO_RegisterForZDOMsg?relay
//  223   ZDO_RegisterForZDOMsg( Light_TaskID, Match_Desc_rsp );
        ; Setup parameters for call to function ZDO_RegisterForZDOMsg
        MOV     R2,#0x6
        MOV     R3,#-0x80
        MOV     DPTR,#Light_TaskID
        MOVX    A,@DPTR
        MOV     R1,A
        LCALL   ??ZDO_RegisterForZDOMsg?relay
        CFI EndBlock cfiBlock0
//  224 
//  225 #if defined( IAR_ARMCM3_LM )
//  226   // Register this task with RTOS task initiator
//  227   RTOS_RegisterApp( task_id, LIGHT_RTOS_MSG_EVT );
//  228 #endif
//  229 }
        REQUIRE ?Subroutine0
        ; // Fall through to label ?Subroutine0

        RSEG BANKED_CODE:CODE:NOROOT(0)
?Subroutine0:
        CFI Block cfiBlock1 Using cfiCommon0
        CFI NoFunction
        CFI CFA_SP SP+0
        CFI CFA_XSP16 add(XSP16, 9)
        CFI VB load(1, XDATA, add(CFA_XSP16, literal(-8)))
        CFI DPL0 load(1, XDATA, add(CFA_XSP16, literal(-2)))
        CFI DPH0 load(1, XDATA, add(CFA_XSP16, literal(-1)))
        CFI R6 load(1, XDATA, add(CFA_XSP16, literal(-9)))
        CFI R7 load(1, XDATA, add(CFA_XSP16, literal(-6)))
        CFI V0 load(1, XDATA, add(CFA_XSP16, literal(-7)))
        CFI ?BRET_EXT load(1, XDATA, add(CFA_XSP16, literal(-3)))
        CFI ?RET_HIGH load(1, XDATA, add(CFA_XSP16, literal(-4)))
        CFI ?RET_LOW load(1, XDATA, add(CFA_XSP16, literal(-5)))
        MOV     R7,#0x1
        LJMP    ?BANKED_LEAVE_XDATA
        CFI EndBlock cfiBlock1
//  230 
//  231 /*********************************************************************
//  232  * @fn      Light_ProcessEvent
//  233  *
//  234  * @brief   Generic Application Task event processor.  This function
//  235  *          is called to process all events for the task.  Events
//  236  *          include timers, messages and any other user defined events.
//  237  *
//  238  * @param   task_id  - The OSAL assigned task ID.
//  239  * @param   events - events to process.  This is a bit map and can
//  240  *                   contain more than one event.
//  241  *
//  242  * @return  none
//  243  */

        RSEG BANKED_CODE:CODE:NOROOT(0)
//  244 uint16 Light_ProcessEvent( uint8 task_id, uint16 events )
Light_ProcessEvent:
        CFI Block cfiBlock2 Using cfiCommon0
        CFI Function Light_ProcessEvent
        CODE
//  245 {
        FUNCALL Light_ProcessEvent, osal_msg_receive
        LOCFRAME ISTACK, 0, STACK
        LOCFRAME PSTACK, 0, STACK
        LOCFRAME XSTACK, 38, STACK
        LOCFRAME IOVERLAY, 0, STATIC
        LOCFRAME DOVERLAY, 0, STATIC
        ARGFRAME ISTACK, 0, STACK
        ARGFRAME PSTACK, 0, STACK
        ARGFRAME XSTACK, 38, STACK
        ARGFRAME IOVERLAY, 0, STATIC
        ARGFRAME DOVERLAY, 0, STATIC
        FUNCALL Light_ProcessEvent, osal_start_timerEx
        LOCFRAME ISTACK, 0, STACK
        LOCFRAME PSTACK, 0, STACK
        LOCFRAME XSTACK, 38, STACK
        LOCFRAME IOVERLAY, 0, STATIC
        LOCFRAME DOVERLAY, 0, STATIC
        ARGFRAME ISTACK, 0, STACK
        ARGFRAME PSTACK, 0, STACK
        ARGFRAME XSTACK, 38, STACK
        ARGFRAME IOVERLAY, 0, STATIC
        ARGFRAME DOVERLAY, 0, STATIC
        FUNCALL Light_ProcessEvent, osal_msg_deallocate
        LOCFRAME ISTACK, 0, STACK
        LOCFRAME PSTACK, 0, STACK
        LOCFRAME XSTACK, 38, STACK
        LOCFRAME IOVERLAY, 0, STATIC
        LOCFRAME DOVERLAY, 0, STATIC
        ARGFRAME ISTACK, 0, STACK
        ARGFRAME PSTACK, 0, STACK
        ARGFRAME XSTACK, 38, STACK
        ARGFRAME IOVERLAY, 0, STATIC
        ARGFRAME DOVERLAY, 0, STATIC
        FUNCALL Light_ProcessEvent, osal_msg_receive
        LOCFRAME ISTACK, 0, STACK
        LOCFRAME PSTACK, 0, STACK
        LOCFRAME XSTACK, 38, STACK
        LOCFRAME IOVERLAY, 0, STATIC
        LOCFRAME DOVERLAY, 0, STATIC
        ARGFRAME ISTACK, 0, STACK
        ARGFRAME PSTACK, 0, STACK
        ARGFRAME XSTACK, 38, STACK
        ARGFRAME IOVERLAY, 0, STATIC
        ARGFRAME DOVERLAY, 0, STATIC
        FUNCALL Light_ProcessEvent, ZDO_ParseEPListRsp
        LOCFRAME ISTACK, 0, STACK
        LOCFRAME PSTACK, 0, STACK
        LOCFRAME XSTACK, 38, STACK
        LOCFRAME IOVERLAY, 0, STATIC
        LOCFRAME DOVERLAY, 0, STATIC
        ARGFRAME ISTACK, 0, STACK
        ARGFRAME PSTACK, 0, STACK
        ARGFRAME XSTACK, 38, STACK
        ARGFRAME IOVERLAY, 0, STATIC
        ARGFRAME DOVERLAY, 0, STATIC
        FUNCALL Light_ProcessEvent, HalLedSet
        LOCFRAME ISTACK, 0, STACK
        LOCFRAME PSTACK, 0, STACK
        LOCFRAME XSTACK, 38, STACK
        LOCFRAME IOVERLAY, 0, STATIC
        LOCFRAME DOVERLAY, 0, STATIC
        ARGFRAME ISTACK, 0, STACK
        ARGFRAME PSTACK, 0, STACK
        ARGFRAME XSTACK, 38, STACK
        ARGFRAME IOVERLAY, 0, STATIC
        ARGFRAME DOVERLAY, 0, STATIC
        FUNCALL Light_ProcessEvent, osal_mem_free
        LOCFRAME ISTACK, 0, STACK
        LOCFRAME PSTACK, 0, STACK
        LOCFRAME XSTACK, 38, STACK
        LOCFRAME IOVERLAY, 0, STATIC
        LOCFRAME DOVERLAY, 0, STATIC
        ARGFRAME ISTACK, 0, STACK
        ARGFRAME PSTACK, 0, STACK
        ARGFRAME XSTACK, 38, STACK
        ARGFRAME IOVERLAY, 0, STATIC
        ARGFRAME DOVERLAY, 0, STATIC
        FUNCALL Light_ProcessEvent, HalLedSet
        LOCFRAME ISTACK, 0, STACK
        LOCFRAME PSTACK, 0, STACK
        LOCFRAME XSTACK, 38, STACK
        LOCFRAME IOVERLAY, 0, STATIC
        LOCFRAME DOVERLAY, 0, STATIC
        ARGFRAME ISTACK, 0, STACK
        ARGFRAME PSTACK, 0, STACK
        ARGFRAME XSTACK, 38, STACK
        ARGFRAME IOVERLAY, 0, STATIC
        ARGFRAME DOVERLAY, 0, STATIC
        FUNCALL Light_ProcessEvent, HalLedSet
        LOCFRAME ISTACK, 0, STACK
        LOCFRAME PSTACK, 0, STACK
        LOCFRAME XSTACK, 38, STACK
        LOCFRAME IOVERLAY, 0, STATIC
        LOCFRAME DOVERLAY, 0, STATIC
        ARGFRAME ISTACK, 0, STACK
        ARGFRAME PSTACK, 0, STACK
        ARGFRAME XSTACK, 38, STACK
        ARGFRAME IOVERLAY, 0, STATIC
        ARGFRAME DOVERLAY, 0, STATIC
        FUNCALL Light_ProcessEvent, HalLedSet
        LOCFRAME ISTACK, 0, STACK
        LOCFRAME PSTACK, 0, STACK
        LOCFRAME XSTACK, 38, STACK
        LOCFRAME IOVERLAY, 0, STATIC
        LOCFRAME DOVERLAY, 0, STATIC
        ARGFRAME ISTACK, 0, STACK
        ARGFRAME PSTACK, 0, STACK
        ARGFRAME XSTACK, 38, STACK
        ARGFRAME IOVERLAY, 0, STATIC
        ARGFRAME DOVERLAY, 0, STATIC
        FUNCALL Light_ProcessEvent, NLME_GetShortAddr
        LOCFRAME ISTACK, 0, STACK
        LOCFRAME PSTACK, 0, STACK
        LOCFRAME XSTACK, 38, STACK
        LOCFRAME IOVERLAY, 0, STATIC
        LOCFRAME DOVERLAY, 0, STATIC
        ARGFRAME ISTACK, 0, STACK
        ARGFRAME PSTACK, 0, STACK
        ARGFRAME XSTACK, 38, STACK
        ARGFRAME IOVERLAY, 0, STATIC
        ARGFRAME DOVERLAY, 0, STATIC
        FUNCALL Light_ProcessEvent, ZDP_EndDeviceBindReq
        LOCFRAME ISTACK, 0, STACK
        LOCFRAME PSTACK, 0, STACK
        LOCFRAME XSTACK, 47, STACK
        LOCFRAME IOVERLAY, 0, STATIC
        LOCFRAME DOVERLAY, 0, STATIC
        ARGFRAME ISTACK, 0, STACK
        ARGFRAME PSTACK, 0, STACK
        ARGFRAME XSTACK, 47, STACK
        ARGFRAME IOVERLAY, 0, STATIC
        ARGFRAME DOVERLAY, 0, STATIC
        FUNCALL Light_ProcessEvent, HalLedSet
        LOCFRAME ISTACK, 0, STACK
        LOCFRAME PSTACK, 0, STACK
        LOCFRAME XSTACK, 38, STACK
        LOCFRAME IOVERLAY, 0, STATIC
        LOCFRAME DOVERLAY, 0, STATIC
        ARGFRAME ISTACK, 0, STACK
        ARGFRAME PSTACK, 0, STACK
        ARGFRAME XSTACK, 38, STACK
        ARGFRAME IOVERLAY, 0, STATIC
        ARGFRAME DOVERLAY, 0, STATIC
        FUNCALL Light_ProcessEvent, ZDP_MatchDescReq
        LOCFRAME ISTACK, 0, STACK
        LOCFRAME PSTACK, 0, STACK
        LOCFRAME XSTACK, 46, STACK
        LOCFRAME IOVERLAY, 0, STATIC
        LOCFRAME DOVERLAY, 0, STATIC
        ARGFRAME ISTACK, 0, STACK
        ARGFRAME PSTACK, 0, STACK
        ARGFRAME XSTACK, 46, STACK
        ARGFRAME IOVERLAY, 0, STATIC
        ARGFRAME DOVERLAY, 0, STATIC
        FUNCALL Light_ProcessEvent, HalLcdWriteScreen
        LOCFRAME ISTACK, 0, STACK
        LOCFRAME PSTACK, 0, STACK
        LOCFRAME XSTACK, 38, STACK
        LOCFRAME IOVERLAY, 0, STATIC
        LOCFRAME DOVERLAY, 0, STATIC
        ARGFRAME ISTACK, 0, STACK
        ARGFRAME PSTACK, 0, STACK
        ARGFRAME XSTACK, 38, STACK
        ARGFRAME IOVERLAY, 0, STATIC
        ARGFRAME DOVERLAY, 0, STATIC
        FUNCALL Light_ProcessEvent, _ltoa
        LOCFRAME ISTACK, 0, STACK
        LOCFRAME PSTACK, 0, STACK
        LOCFRAME XSTACK, 40, STACK
        LOCFRAME IOVERLAY, 0, STATIC
        LOCFRAME DOVERLAY, 0, STATIC
        ARGFRAME ISTACK, 0, STACK
        ARGFRAME PSTACK, 0, STACK
        ARGFRAME XSTACK, 40, STACK
        ARGFRAME IOVERLAY, 0, STATIC
        ARGFRAME DOVERLAY, 0, STATIC
        FUNCALL Light_ProcessEvent, osal_strlen
        LOCFRAME ISTACK, 0, STACK
        LOCFRAME PSTACK, 0, STACK
        LOCFRAME XSTACK, 43, STACK
        LOCFRAME IOVERLAY, 0, STATIC
        LOCFRAME DOVERLAY, 0, STATIC
        ARGFRAME ISTACK, 0, STACK
        ARGFRAME PSTACK, 0, STACK
        ARGFRAME XSTACK, 43, STACK
        ARGFRAME IOVERLAY, 0, STATIC
        ARGFRAME DOVERLAY, 0, STATIC
        FUNCALL Light_ProcessEvent, AF_DataRequest
        LOCFRAME ISTACK, 0, STACK
        LOCFRAME PSTACK, 0, STACK
        LOCFRAME XSTACK, 47, STACK
        LOCFRAME IOVERLAY, 0, STATIC
        LOCFRAME DOVERLAY, 0, STATIC
        ARGFRAME ISTACK, 0, STACK
        ARGFRAME PSTACK, 0, STACK
        ARGFRAME XSTACK, 47, STACK
        ARGFRAME IOVERLAY, 0, STATIC
        ARGFRAME DOVERLAY, 0, STATIC
        FUNCALL Light_ProcessEvent, osal_start_timerEx
        LOCFRAME ISTACK, 0, STACK
        LOCFRAME PSTACK, 0, STACK
        LOCFRAME XSTACK, 38, STACK
        LOCFRAME IOVERLAY, 0, STATIC
        LOCFRAME DOVERLAY, 0, STATIC
        ARGFRAME ISTACK, 0, STACK
        ARGFRAME PSTACK, 0, STACK
        ARGFRAME XSTACK, 38, STACK
        ARGFRAME IOVERLAY, 0, STATIC
        ARGFRAME DOVERLAY, 0, STATIC
        MOV     A,#-0xe
        LCALL   ?BANKED_ENTER_XDATA
        CFI DPH0 load(1, XDATA, add(CFA_XSP16, literal(-1)))
        CFI DPL0 load(1, XDATA, add(CFA_XSP16, literal(-2)))
        CFI ?BRET_EXT load(1, XDATA, add(CFA_XSP16, literal(-3)))
        CFI ?RET_HIGH load(1, XDATA, add(CFA_XSP16, literal(-4)))
        CFI ?RET_LOW load(1, XDATA, add(CFA_XSP16, literal(-5)))
        CFI R7 load(1, XDATA, add(CFA_XSP16, literal(-6)))
        CFI V5 load(1, XDATA, add(CFA_XSP16, literal(-7)))
        CFI V4 load(1, XDATA, add(CFA_XSP16, literal(-8)))
        CFI V3 load(1, XDATA, add(CFA_XSP16, literal(-9)))
        CFI V2 load(1, XDATA, add(CFA_XSP16, literal(-10)))
        CFI V1 load(1, XDATA, add(CFA_XSP16, literal(-11)))
        CFI V0 load(1, XDATA, add(CFA_XSP16, literal(-12)))
        CFI VB load(1, XDATA, add(CFA_XSP16, literal(-13)))
        CFI R6 load(1, XDATA, add(CFA_XSP16, literal(-14)))
        CFI CFA_SP SP+0
        CFI CFA_XSP16 add(XSP16, 14)
        ; Saved register size: 14
        ; Auto size: 24
        MOV     A,#-0x18
        LCALL   ?ALLOC_XSTACK8
        CFI CFA_XSP16 add(XSP16, 38)
        MOV     ?V0 + 4,R2
        MOV     ?V0 + 5,R3
//  246   afIncomingMSGPacket_t *MSGpkt;
//  247   afDataConfirm_t *afDataConfirm;
//  248 
//  249   // Data Confirmation message fields
//  250   byte sentEP;
//  251   ZStatus_t sentStatus;
//  252   byte sentTransID;       // This should match the value sent
//  253   (void)task_id;  // Intentionally unreferenced parameter
//  254 
//  255   if ( events & SYS_EVENT_MSG )
        MOV     A,R3
        ANL     A,#0x80
        JNZ     $+5
        LJMP    ??Light_ProcessEvent_0 & 0xFFFF
//  256   {
//  257     MSGpkt = (afIncomingMSGPacket_t *)osal_msg_receive( Light_TaskID );
        ; Setup parameters for call to function osal_msg_receive
        SJMP    ??Light_ProcessEvent_1
//  258     while ( MSGpkt )
//  259     {
//  260       switch ( MSGpkt->hdr.event )
//  261       {
//  262         case ZDO_CB_MSG:
//  263           Light_ProcessZDOMsgs( (zdoIncomingMsg_t *)MSGpkt );
//  264           break;
//  265 
//  266         case KEY_CHANGE:
//  267           Light_HandleKeys( ((keyChange_t *)MSGpkt)->state, ((keyChange_t *)MSGpkt)->keys );
//  268           break;
//  269 
//  270         case AF_DATA_CONFIRM_CMD:
//  271           // This message is received as a confirmation of a data packet sent.
//  272           // The status is of ZStatus_t type [defined in ZComDef.h]
//  273           // The message fields are defined in AF.h
//  274           afDataConfirm = (afDataConfirm_t *)MSGpkt;
//  275           sentEP = afDataConfirm->endpoint;
//  276           sentStatus = afDataConfirm->hdr.status;
//  277           sentTransID = afDataConfirm->transID;
//  278           (void)sentEP;
//  279           (void)sentTransID;
//  280 
//  281           // Action taken when confirmation is received.
//  282           if ( sentStatus != ZSuccess )
//  283           {
//  284             // The data wasn't delivered -- Do something
//  285           }
//  286           break;
//  287 
//  288         case AF_INCOMING_MSG_CMD:
//  289           Light_MessageMSGCB( MSGpkt );
//  290           break;
//  291 
//  292         case ZDO_STATE_CHANGE:
//  293           Light_NwkState = (devStates_t)(MSGpkt->hdr.status);
??Light_ProcessEvent_2:
        INC     DPTR
        MOVX    A,@DPTR
        MOV     DPTR,#Light_NwkState
        MOVX    @DPTR,A
//  294           if ( (Light_NwkState == DEV_ZB_COORD)
//  295               || (Light_NwkState == DEV_ROUTER)
//  296               || (Light_NwkState == DEV_END_DEVICE) )
        XRL     A,#0x9
        JZ      ??Light_ProcessEvent_3
        MOVX    A,@DPTR
        XRL     A,#0x7
        JZ      ??Light_ProcessEvent_3
        MOVX    A,@DPTR
        XRL     A,#0x6
        JNZ     ??CrossCallReturnLabel_2
//  297           {
//  298             // Start sending "the" message in a regular interval.
//  299             osal_start_timerEx( Light_TaskID,
//  300                                 LIGHT_SEND_MSG_EVT,
//  301                                 LIGHT_SEND_MSG_TIMEOUT );
??Light_ProcessEvent_3:
        ; Setup parameters for call to function osal_start_timerEx
        LCALL   ?Subroutine2 & 0xFFFF
//  302           }
//  303           break;
//  304 
//  305         default:
//  306           break;
//  307       }
//  308 
//  309       // Release the memory
//  310       osal_msg_deallocate( (uint8 *)MSGpkt );
??CrossCallReturnLabel_2:
        ; Setup parameters for call to function osal_msg_deallocate
        MOV     A,R6
        MOV     R2,A
        MOV     A,R7
        MOV     R3,A
        LCALL   ??osal_msg_deallocate?relay
//  311 
//  312       // Next
//  313       MSGpkt = (afIncomingMSGPacket_t *)osal_msg_receive( Light_TaskID );
        ; Setup parameters for call to function osal_msg_receive
??Light_ProcessEvent_1:
        MOV     DPTR,#Light_TaskID
        MOVX    A,@DPTR
        MOV     R1,A
        LCALL   ??osal_msg_receive?relay
        MOV     ?V0 + 0,R2
        MOV     ?V0 + 1,R3
        MOV     R6,?V0 + 0
        MOV     R7,?V0 + 1
        MOV     A,R6
        ORL     A,R7
        JNZ     $+5
        LJMP    ??Light_ProcessEvent_4 & 0xFFFF
        MOV     DPL,R6
        MOV     DPH,R7
        MOVX    A,@DPTR
        ADD     A,#-0x1a
        JNZ     $+5
        LJMP    ??Light_ProcessEvent_5 & 0xFFFF
        ADD     A,#0x5a
        JNZ     $+5
        LJMP    ??Light_ProcessEvent_6 & 0xFFFF
        ADD     A,#-0x11
        JZ      ??Light_ProcessEvent_2
        ADD     A,#-0x2
        JNZ     ??CrossCallReturnLabel_2
        MOV     A,R6
        ADD     A,#0xc
        MOV     DPL,A
        MOV     A,R7
        ADDC    A,#0x0
        MOV     DPH,A
        MOVX    A,@DPTR
        MOV     ?V0 + 0,A
        INC     DPTR
        MOVX    A,@DPTR
        MOV     ?V0 + 1,A
        MOV     R0,#?V0 + 0
        LCALL   ?US_SWITCH_SPARSE
`?<Jumptable for Light_ProcessEvent>_0`:
        DATA
        DATA16
        DATA
        DATA16
        DATA
        DATA16
        DW        0
        DATA
        DATA16
        DATA
        DATA16
        DATA
        DATA16
        DW        2
        DATA
        DATA16
        DATA
        DATA16
        DATA
        DATA16
        DW        32774
        DATA
        DATA16
        DATA
        DATA16
        DATA
        DATA16
        DW        ??Light_ProcessEvent_7
        DATA
        DATA16
        DATA
        DATA16
        DATA
        DATA16
        DW        32800
        DATA
        DATA16
        DATA
        DATA16
        DATA
        DATA16
        DW        ??Light_ProcessEvent_8
        DATA
        DATA16
        DATA
        DATA16
        DW        ??CrossCallReturnLabel_2
        CODE
??Light_ProcessEvent_7:
        ; Setup parameters for call to function ZDO_ParseEPListRsp
        MOV     A,R6
        MOV     R2,A
        MOV     A,R7
        MOV     R3,A
        LCALL   ??ZDO_ParseEPListRsp?relay
        MOV     ?V0 + 0,R2
        MOV     ?V0 + 1,R3
        MOV     A,R2
        ORL     A,?V0 + 1
        JZ      ??CrossCallReturnLabel_2
        MOV     DPL,R2
        MOV     DPH,R3
        MOVX    A,@DPTR
        JNZ     ??Light_ProcessEvent_9
        INC     DPTR
        INC     DPTR
        INC     DPTR
        MOVX    A,@DPTR
        JZ      ??Light_ProcessEvent_9
        MOV     DPTR,#Light_DstAddr + 8
        MOV     A,#0x2
        MOVX    @DPTR,A
        MOV     DPL,R2
        MOV     DPH,R3
        INC     DPTR
        MOVX    A,@DPTR
        MOV     R0,A
        INC     DPTR
        MOVX    A,@DPTR
        MOV     R1,A
        MOV     DPTR,#Light_DstAddr
        MOV     A,R0
        MOVX    @DPTR,A
        INC     DPTR
        MOV     A,R1
        MOVX    @DPTR,A
        MOV     DPL,R2
        MOV     DPH,R3
        INC     DPTR
        INC     DPTR
        INC     DPTR
        INC     DPTR
        MOVX    A,@DPTR
        MOV     DPTR,#Light_DstAddr + 9
        MOVX    @DPTR,A
        ; Setup parameters for call to function HalLedSet
        MOV     R2,#0x1
        MOV     R1,#0x8
        LCALL   ??HalLedSet?relay
??Light_ProcessEvent_9:
        ; Setup parameters for call to function osal_mem_free
        MOV     R2,?V0 + 0
        MOV     R3,?V0 + 1
        LCALL   ??osal_mem_free?relay
        LJMP    ??CrossCallReturnLabel_2 & 0xFFFF
??Light_ProcessEvent_8:
        MOV     A,R6
        ADD     A,#0x13
        MOV     DPL,A
        MOV     A,R7
        ADDC    A,#0x0
        MOV     DPH,A
        MOVX    A,@DPTR
        MOV     R0,A
        INC     DPTR
        MOVX    A,@DPTR
        MOV     DPH,A
        MOV     DPL,R0
        MOVX    A,@DPTR
        JNZ     ??Light_ProcessEvent_10
        ; Setup parameters for call to function HalLedSet
        MOV     R2,#0x1
??Light_ProcessEvent_11:
        MOV     R1,#0x8
        LCALL   ??HalLedSet?relay
        LJMP    ??CrossCallReturnLabel_2 & 0xFFFF
??Light_ProcessEvent_10:
        ; Setup parameters for call to function HalLedSet
        MOV     R2,#0x4
        SJMP    ??Light_ProcessEvent_11
??Light_ProcessEvent_6:
        INC     DPTR
        INC     DPTR
        INC     DPTR
        MOVX    A,@DPTR
        MOV     ?V0 + 2,A
        MOV     DPL,R6
        MOV     DPH,R7
        INC     DPTR
        INC     DPTR
        MOVX    A,@DPTR
        JZ      $+5
        LJMP    ??CrossCallReturnLabel_2 & 0xFFFF
        MOV     A,?V0 + 2
        MOV     C,0xE0 /* A   */.1
        JNC     ??Light_ProcessEvent_12
        ; Setup parameters for call to function HalLedSet
        MOV     R2,#0x0
        MOV     R1,#0x8
        LCALL   ??HalLedSet?relay
        MOV     A,#0x8
        LCALL   ?XSTACK_DISP0_8
        MOV     A,#0x2
        MOVX    @DPTR,A
        MOV     DPL,?XSP + 0
        MOV     DPH,?XSP + 1
        CLR     A
        MOVX    @DPTR,A
        INC     DPTR
        MOVX    @DPTR,A
        ; Setup parameters for call to function NLME_GetShortAddr
        LCALL   ??NLME_GetShortAddr?relay
        MOV     ?V0 + 0,R2
        MOV     ?V0 + 1,R3
        MOV     R4,?V0 + 0
        MOV     R5,?V0 + 1
        MOV     ?V0 + 0,#Light_ClusterList & 0xff
        MOV     ?V0 + 1,#(Light_ClusterList >> 8) & 0xff
        ; Setup parameters for call to function ZDP_EndDeviceBindReq
        MOV     ?V0 + 3,#0x0
        MOV     R0,#?V0 + 3
        LCALL   ?PUSH_XSTACK_I_ONE
        CFI CFA_XSP16 add(XSP16, 39)
        MOV     R0,#?V0 + 0
        LCALL   ?PUSH_XSTACK_I_TWO
        CFI CFA_XSP16 add(XSP16, 41)
        MOV     ?V0 + 3,#0x1
        MOV     R0,#?V0 + 3
        LCALL   ?PUSH_XSTACK_I_ONE
        CFI CFA_XSP16 add(XSP16, 42)
        MOV     R0,#?V0 + 0
        LCALL   ?PUSH_XSTACK_I_TWO
        CFI CFA_XSP16 add(XSP16, 44)
        MOV     ?V0 + 0,#0x1
        MOV     R0,#?V0 + 0
        LCALL   ?PUSH_XSTACK_I_ONE
        CFI CFA_XSP16 add(XSP16, 45)
        MOV     ?V0 + 0,#0x4
        MOV     ?V0 + 1,#0xf
        MOV     R0,#?V0 + 0
        LCALL   ?PUSH_XSTACK_I_TWO
        CFI CFA_XSP16 add(XSP16, 47)
        MOV     DPTR,#Light_epDesc
        MOVX    A,@DPTR
        MOV     R1,A
        MOV     A,#0x9
        LCALL   ?XSTACK_DISP0_8
        MOV     R2,DPL
        MOV     R3,DPH
        LCALL   ??ZDP_EndDeviceBindReq?relay
        MOV     A,#0x9
        LCALL   ?DEALLOC_XSTACK8
        CFI CFA_XSP16 add(XSP16, 38)
??Light_ProcessEvent_12:
        MOV     A,?V0 + 2
        MOV     C,0xE0 /* A   */.3
        JC      $+5
        LJMP    ??CrossCallReturnLabel_2 & 0xFFFF
        ; Setup parameters for call to function HalLedSet
        MOV     R2,#0x0
        MOV     R1,#0x8
        LCALL   ??HalLedSet?relay
        MOV     A,#0x8
        LCALL   ?XSTACK_DISP0_8
        MOV     A,#0xf
        MOVX    @DPTR,A
        MOV     DPL,?XSP + 0
        MOV     DPH,?XSP + 1
        MOV     A,#-0x1
        MOVX    @DPTR,A
        INC     DPTR
        MOVX    @DPTR,A
        MOV     ?V0 + 0,#Light_ClusterList & 0xff
        MOV     ?V0 + 1,#(Light_ClusterList >> 8) & 0xff
        ; Setup parameters for call to function ZDP_MatchDescReq
        MOV     ?V0 + 2,#0x0
        MOV     R0,#?V0 + 2
        LCALL   ?PUSH_XSTACK_I_ONE
        CFI CFA_XSP16 add(XSP16, 39)
        MOV     R0,#?V0 + 0
        LCALL   ?PUSH_XSTACK_I_TWO
        CFI CFA_XSP16 add(XSP16, 41)
        MOV     ?V0 + 2,#0x1
        MOV     R0,#?V0 + 2
        LCALL   ?PUSH_XSTACK_I_ONE
        CFI CFA_XSP16 add(XSP16, 42)
        MOV     R0,#?V0 + 0
        LCALL   ?PUSH_XSTACK_I_TWO
        CFI CFA_XSP16 add(XSP16, 44)
        MOV     ?V0 + 0,#0x4
        MOV     ?V0 + 1,#0xf
        MOV     R0,#?V0 + 0
        LCALL   ?PUSH_XSTACK_I_TWO
        CFI CFA_XSP16 add(XSP16, 46)
        MOV     R1,#0x1
        MOV     R4,#-0x1
        MOV     R5,#-0x1
        MOV     A,#0x8
        LCALL   ?XSTACK_DISP0_8
        MOV     R2,DPL
        MOV     R3,DPH
        LCALL   ??ZDP_MatchDescReq?relay
        MOV     A,#0x8
        LCALL   ?DEALLOC_XSTACK8
        CFI CFA_XSP16 add(XSP16, 38)
        LJMP    ??CrossCallReturnLabel_2 & 0xFFFF
??Light_ProcessEvent_5:
        INC     DPTR
        INC     DPTR
        INC     DPTR
        INC     DPTR
        MOVX    A,@DPTR
        XRL     A,#0x1
        JNZ     ??Light_ProcessEvent_13
        INC     DPTR
        MOVX    A,@DPTR
??Light_ProcessEvent_13:
        JZ      $+5
        LJMP    ??CrossCallReturnLabel_2 & 0xFFFF
        ; Setup parameters for call to function HalLcdWriteScreen
        MOV     R4,#`?<Constant "rcvd">` & 0xff
        MOV     R5,#(`?<Constant "rcvd">` >> 8) & 0xff
        MOV     A,R6
        ADD     A,#0x22
        MOV     DPL,A
        MOV     A,R7
        ADDC    A,#0x0
        MOV     DPH,A
        MOVX    A,@DPTR
        MOV     R2,A
        INC     DPTR
        MOVX    A,@DPTR
        MOV     R3,A
        LCALL   ??HalLcdWriteScreen?relay
        LJMP    ??CrossCallReturnLabel_2 & 0xFFFF
//  314     }
//  315 
//  316     // return unprocessed events
//  317     return (events ^ SYS_EVENT_MSG);
??Light_ProcessEvent_4:
        MOV     R2,?V0 + 4
        MOV     A,?V0 + 5
        XRL     A,#0x80
        MOV     R3,A
        LJMP    ??Light_ProcessEvent_14 & 0xFFFF
//  318   }
//  319 
//  320   // Send a message out - This event is generated by a timer
//  321   //  (setup in Light_Init()).
//  322   if ( events & LIGHT_SEND_MSG_EVT )
??Light_ProcessEvent_0:
        MOV     A,R2
        MOV     C,0xE0 /* A   */.0
        JC      $+5
        LJMP    ??Light_ProcessEvent_15 & 0xFFFF
//  323   {
//  324     // Send "the" message
//  325     Light_SendTheMessage();
        MOV     A,#0x9
        LCALL   ?XSTACK_DISP0_8
        MOV     R4,DPL
        MOV     R5,DPH
        MOV     DPH,#(`?<Constant "LIGHT:">` >> 8) & 0xff
        MOV     DPL,#`?<Constant "LIGHT:">` & 0xff
        MOV     A,#0xf
        LCALL   ?MOVE_LONG8_XDATA_XDATA
        ; Setup parameters for call to function _ltoa
        MOV     A,#0xf
        LCALL   ?XSTACK_DISP0_8
        MOV     ?V0 + 0,DPL
        MOV     ?V0 + 1,DPH
        MOV     R0,#?V0 + 0
        LCALL   ?PUSH_XSTACK_I_TWO
        CFI CFA_XSP16 add(XSP16, 40)
        MOV     R1,#0xa
        MOV     DPTR,#fLight
        LCALL   ?XLOAD_R2345
        LCALL   ?R2345_FLT_TO_UL
        MOV     R2,?V0 + 0
        MOV     R3,?V0 + 1
        MOV     R4,?V0 + 2
        MOV     R5,?V0 + 3
        LCALL   ??_ltoa?relay
        MOV     A,#0x2
        LCALL   ?DEALLOC_XSTACK8
        CFI CFA_XSP16 add(XSP16, 38)
        MOV     R0,#0x0
??Light_ProcessEvent_16:
        MOV     ?V0 + 0,R0
        MOV     A,#0x9
        LCALL   ?XSTACK_DISP0_8
        LCALL   ?Subroutine1 & 0xFFFF
??CrossCallReturnLabel_0:
        MOVX    A,@DPTR
        JNZ     ??Light_ProcessEvent_17
        MOV     A,#0x9
        LCALL   ?XSTACK_DISP0_8
        LCALL   ?Subroutine1 & 0xFFFF
??CrossCallReturnLabel_1:
        MOV     A,#0x20
        MOVX    @DPTR,A
??Light_ProcessEvent_17:
        INC     R0
        MOV     A,R0
        CLR     C
        SUBB    A,#0xe
        JC      ??Light_ProcessEvent_16
        ; Setup parameters for call to function AF_DataRequest
        MOV     ?V0 + 0,#0x1e
        MOV     R0,#?V0 + 0
        LCALL   ?PUSH_XSTACK_I_ONE
        CFI CFA_XSP16 add(XSP16, 39)
        MOV     ?V0 + 0,#Light_TransID & 0xff
        MOV     ?V0 + 1,#(Light_TransID >> 8) & 0xff
        MOV     R0,#?V0 + 0
        LCALL   ?PUSH_XSTACK_I_TWO
        CFI CFA_XSP16 add(XSP16, 41)
        MOV     A,#0xc
        LCALL   ?XSTACK_DISP0_8
        MOV     ?V0 + 0,DPL
        MOV     ?V0 + 1,DPH
        MOV     R0,#?V0 + 0
        LCALL   ?PUSH_XSTACK_I_TWO
        CFI CFA_XSP16 add(XSP16, 43)
        ; Setup parameters for call to function osal_strlen
        MOV     A,#0xe
        LCALL   ?XSTACK_DISP0_8
        MOV     R2,DPL
        MOV     R3,DPH
        LCALL   ??osal_strlen?relay
        MOV     A,R2
        ADD     A,#0x1
        MOV     ?V0 + 0,A
        CLR     A
        ADDC    A,#0x0
        MOV     ?V0 + 1,A
        MOV     R0,#?V0 + 0
        LCALL   ?PUSH_XSTACK_I_TWO
        CFI CFA_XSP16 add(XSP16, 45)
        MOV     ?V0 + 0,#0x1
        MOV     ?V0 + 1,#0x0
        MOV     R0,#?V0 + 0
        LCALL   ?PUSH_XSTACK_I_TWO
        CFI CFA_XSP16 add(XSP16, 47)
        MOV     R1,#0x20
        MOV     R4,#Light_epDesc & 0xff
        MOV     R5,#(Light_epDesc >> 8) & 0xff
        MOV     R2,#Light_DstAddr & 0xff
        MOV     R3,#(Light_DstAddr >> 8) & 0xff
        LCALL   ??AF_DataRequest?relay
        MOV     A,#0x9
        LCALL   ?DEALLOC_XSTACK8
        CFI CFA_XSP16 add(XSP16, 38)
//  326 
//  327     // Setup to send message again
//  328     osal_start_timerEx( Light_TaskID,
//  329                         LIGHT_SEND_MSG_EVT,
//  330                         LIGHT_SEND_MSG_TIMEOUT );
        ; Setup parameters for call to function osal_start_timerEx
        LCALL   ?Subroutine2 & 0xFFFF
//  331 
//  332     // return unprocessed events
//  333     return (events ^ LIGHT_SEND_MSG_EVT);
??CrossCallReturnLabel_3:
        MOV     A,?V0 + 4
        XRL     A,#0x1
        MOV     R2,A
        MOV     R3,?V0 + 5
        SJMP    ??Light_ProcessEvent_14
//  334   }
//  335 
//  336   
//  337 #if defined( IAR_ARMCM3_LM )
//  338   // Receive a message from the RTOS queue
//  339   if ( events & LIGHT_RTOS_MSG_EVT )
//  340   {
//  341     // Process message from RTOS queue
//  342     Light_ProcessRtosMessage();
//  343 
//  344     // return unprocessed events
//  345     return (events ^ LIGHT_RTOS_MSG_EVT);
//  346   }
//  347 #endif
//  348 
//  349   // Discard unknown events
//  350   return 0;
??Light_ProcessEvent_15:
        MOV     R2,#0x0
        MOV     R3,#0x0
??Light_ProcessEvent_14:
        MOV     A,#0x18
        LCALL   ?DEALLOC_XSTACK8
        CFI CFA_XSP16 add(XSP16, 14)
        MOV     R7,#0x6
        LJMP    ?BANKED_LEAVE_XDATA
        CFI EndBlock cfiBlock2
//  351 }

        RSEG BANKED_CODE:CODE:NOROOT(0)
?Subroutine2:
        CFI Block cfiCond3 Using cfiCommon0
        CFI NoFunction
        CFI Conditional ??CrossCallReturnLabel_2
        CFI R6 load(1, XDATA, add(CFA_XSP16, literal(-14)))
        CFI VB load(1, XDATA, add(CFA_XSP16, literal(-13)))
        CFI V0 load(1, XDATA, add(CFA_XSP16, literal(-12)))
        CFI V1 load(1, XDATA, add(CFA_XSP16, literal(-11)))
        CFI V2 load(1, XDATA, add(CFA_XSP16, literal(-10)))
        CFI V3 load(1, XDATA, add(CFA_XSP16, literal(-9)))
        CFI V4 load(1, XDATA, add(CFA_XSP16, literal(-8)))
        CFI V5 load(1, XDATA, add(CFA_XSP16, literal(-7)))
        CFI R7 load(1, XDATA, add(CFA_XSP16, literal(-6)))
        CFI ?RET_LOW load(1, XDATA, add(CFA_XSP16, literal(-5)))
        CFI ?RET_HIGH load(1, XDATA, add(CFA_XSP16, literal(-4)))
        CFI ?BRET_EXT load(1, XDATA, add(CFA_XSP16, literal(-3)))
        CFI DPL0 load(1, XDATA, add(CFA_XSP16, literal(-2)))
        CFI DPH0 load(1, XDATA, add(CFA_XSP16, literal(-1)))
        CFI CFA_SP SP+0
        CFI CFA_XSP16 add(XSP16, 38)
        CFI Block cfiCond4 Using cfiCommon0
        CFI (cfiCond4) NoFunction
        CFI (cfiCond4) Conditional ??CrossCallReturnLabel_3
        CFI (cfiCond4) R6 load(1, XDATA, add(CFA_XSP16, literal(-14)))
        CFI (cfiCond4) VB load(1, XDATA, add(CFA_XSP16, literal(-13)))
        CFI (cfiCond4) V0 load(1, XDATA, add(CFA_XSP16, literal(-12)))
        CFI (cfiCond4) V1 load(1, XDATA, add(CFA_XSP16, literal(-11)))
        CFI (cfiCond4) V2 load(1, XDATA, add(CFA_XSP16, literal(-10)))
        CFI (cfiCond4) V3 load(1, XDATA, add(CFA_XSP16, literal(-9)))
        CFI (cfiCond4) V4 load(1, XDATA, add(CFA_XSP16, literal(-8)))
        CFI (cfiCond4) V5 load(1, XDATA, add(CFA_XSP16, literal(-7)))
        CFI (cfiCond4) R7 load(1, XDATA, add(CFA_XSP16, literal(-6)))
        CFI (cfiCond4) ?RET_LOW load(1, XDATA, add(CFA_XSP16, literal(-5)))
        CFI (cfiCond4) ?RET_HIGH load(1, XDATA, add(CFA_XSP16, literal(-4)))
        CFI (cfiCond4) ?BRET_EXT load(1, XDATA, add(CFA_XSP16, literal(-3)))
        CFI (cfiCond4) DPL0 load(1, XDATA, add(CFA_XSP16, literal(-2)))
        CFI (cfiCond4) DPH0 load(1, XDATA, add(CFA_XSP16, literal(-1)))
        CFI (cfiCond4) CFA_SP SP+0
        CFI (cfiCond4) CFA_XSP16 add(XSP16, 38)
        CFI Block cfiPicker5 Using cfiCommon1
        CFI (cfiPicker5) NoFunction
        CFI (cfiPicker5) Picker
        MOV     R4,#-0x78
        MOV     R5,#0x13
        MOV     R2,#0x1
        MOV     R3,#0x0
        MOV     DPTR,#Light_TaskID
        CFI EndBlock cfiCond3
        CFI EndBlock cfiCond4
        CFI EndBlock cfiPicker5
        REQUIRE ??Subroutine3_0
        ; // Fall through to label ??Subroutine3_0

        RSEG BANKED_CODE:CODE:NOROOT(0)
??Subroutine3_0:
        CFI Block cfiCond6 Using cfiCommon0
        CFI NoFunction
        CFI Conditional ??CrossCallReturnLabel_4
        CFI R6 load(1, XDATA, add(CFA_XSP16, literal(-16)))
        CFI VB load(1, XDATA, add(CFA_XSP16, literal(-15)))
        CFI V0 load(1, XDATA, add(CFA_XSP16, literal(-14)))
        CFI V1 load(1, XDATA, add(CFA_XSP16, literal(-13)))
        CFI V2 load(1, XDATA, add(CFA_XSP16, literal(-12)))
        CFI V3 load(1, XDATA, add(CFA_XSP16, literal(-11)))
        CFI V4 load(1, XDATA, add(CFA_XSP16, literal(-10)))
        CFI V5 load(1, XDATA, add(CFA_XSP16, literal(-9)))
        CFI V6 load(1, XDATA, add(CFA_XSP16, literal(-8)))
        CFI V7 load(1, XDATA, add(CFA_XSP16, literal(-7)))
        CFI R7 load(1, XDATA, add(CFA_XSP16, literal(-6)))
        CFI ?RET_LOW load(1, XDATA, add(CFA_XSP16, literal(-5)))
        CFI ?RET_HIGH load(1, XDATA, add(CFA_XSP16, literal(-4)))
        CFI ?BRET_EXT load(1, XDATA, add(CFA_XSP16, literal(-3)))
        CFI DPL0 load(1, XDATA, add(CFA_XSP16, literal(-2)))
        CFI DPH0 load(1, XDATA, add(CFA_XSP16, literal(-1)))
        CFI CFA_SP SP+0
        CFI CFA_XSP16 add(XSP16, 16)
        CFI Block cfiCond7 Using cfiCommon0
        CFI (cfiCond7) NoFunction
        CFI (cfiCond7) Conditional ??CrossCallReturnLabel_2
        CFI (cfiCond7) R6 load(1, XDATA, add(CFA_XSP16, literal(-14)))
        CFI (cfiCond7) VB load(1, XDATA, add(CFA_XSP16, literal(-13)))
        CFI (cfiCond7) V0 load(1, XDATA, add(CFA_XSP16, literal(-12)))
        CFI (cfiCond7) V1 load(1, XDATA, add(CFA_XSP16, literal(-11)))
        CFI (cfiCond7) V2 load(1, XDATA, add(CFA_XSP16, literal(-10)))
        CFI (cfiCond7) V3 load(1, XDATA, add(CFA_XSP16, literal(-9)))
        CFI (cfiCond7) V4 load(1, XDATA, add(CFA_XSP16, literal(-8)))
        CFI (cfiCond7) V5 load(1, XDATA, add(CFA_XSP16, literal(-7)))
        CFI (cfiCond7) R7 load(1, XDATA, add(CFA_XSP16, literal(-6)))
        CFI (cfiCond7) ?RET_LOW load(1, XDATA, add(CFA_XSP16, literal(-5)))
        CFI (cfiCond7) ?RET_HIGH load(1, XDATA, add(CFA_XSP16, literal(-4)))
        CFI (cfiCond7) ?BRET_EXT load(1, XDATA, add(CFA_XSP16, literal(-3)))
        CFI (cfiCond7) DPL0 load(1, XDATA, add(CFA_XSP16, literal(-2)))
        CFI (cfiCond7) DPH0 load(1, XDATA, add(CFA_XSP16, literal(-1)))
        CFI (cfiCond7) CFA_SP SP+0
        CFI (cfiCond7) CFA_XSP16 add(XSP16, 38)
        CFI Block cfiCond8 Using cfiCommon0
        CFI (cfiCond8) NoFunction
        CFI (cfiCond8) Conditional ??CrossCallReturnLabel_3
        CFI (cfiCond8) R6 load(1, XDATA, add(CFA_XSP16, literal(-14)))
        CFI (cfiCond8) VB load(1, XDATA, add(CFA_XSP16, literal(-13)))
        CFI (cfiCond8) V0 load(1, XDATA, add(CFA_XSP16, literal(-12)))
        CFI (cfiCond8) V1 load(1, XDATA, add(CFA_XSP16, literal(-11)))
        CFI (cfiCond8) V2 load(1, XDATA, add(CFA_XSP16, literal(-10)))
        CFI (cfiCond8) V3 load(1, XDATA, add(CFA_XSP16, literal(-9)))
        CFI (cfiCond8) V4 load(1, XDATA, add(CFA_XSP16, literal(-8)))
        CFI (cfiCond8) V5 load(1, XDATA, add(CFA_XSP16, literal(-7)))
        CFI (cfiCond8) R7 load(1, XDATA, add(CFA_XSP16, literal(-6)))
        CFI (cfiCond8) ?RET_LOW load(1, XDATA, add(CFA_XSP16, literal(-5)))
        CFI (cfiCond8) ?RET_HIGH load(1, XDATA, add(CFA_XSP16, literal(-4)))
        CFI (cfiCond8) ?BRET_EXT load(1, XDATA, add(CFA_XSP16, literal(-3)))
        CFI (cfiCond8) DPL0 load(1, XDATA, add(CFA_XSP16, literal(-2)))
        CFI (cfiCond8) DPH0 load(1, XDATA, add(CFA_XSP16, literal(-1)))
        CFI (cfiCond8) CFA_SP SP+0
        CFI (cfiCond8) CFA_XSP16 add(XSP16, 38)
        CFI Block cfiPicker9 Using cfiCommon1
        CFI (cfiPicker9) NoFunction
        CFI (cfiPicker9) Picker
        MOVX    A,@DPTR
        MOV     R1,A
        LCALL   ??osal_start_timerEx?relay
        RET
        CFI EndBlock cfiCond6
        CFI EndBlock cfiCond7
        CFI EndBlock cfiCond8
        CFI EndBlock cfiPicker9

        RSEG BANKED_CODE:CODE:NOROOT(0)
?Subroutine1:
        CFI Block cfiCond10 Using cfiCommon0
        CFI NoFunction
        CFI Conditional ??CrossCallReturnLabel_0
        CFI R6 load(1, XDATA, add(CFA_XSP16, literal(-14)))
        CFI VB load(1, XDATA, add(CFA_XSP16, literal(-13)))
        CFI V0 load(1, XDATA, add(CFA_XSP16, literal(-12)))
        CFI V1 load(1, XDATA, add(CFA_XSP16, literal(-11)))
        CFI V2 load(1, XDATA, add(CFA_XSP16, literal(-10)))
        CFI V3 load(1, XDATA, add(CFA_XSP16, literal(-9)))
        CFI V4 load(1, XDATA, add(CFA_XSP16, literal(-8)))
        CFI V5 load(1, XDATA, add(CFA_XSP16, literal(-7)))
        CFI R7 load(1, XDATA, add(CFA_XSP16, literal(-6)))
        CFI ?RET_LOW load(1, XDATA, add(CFA_XSP16, literal(-5)))
        CFI ?RET_HIGH load(1, XDATA, add(CFA_XSP16, literal(-4)))
        CFI ?BRET_EXT load(1, XDATA, add(CFA_XSP16, literal(-3)))
        CFI DPL0 load(1, XDATA, add(CFA_XSP16, literal(-2)))
        CFI DPH0 load(1, XDATA, add(CFA_XSP16, literal(-1)))
        CFI CFA_SP SP+0
        CFI CFA_XSP16 add(XSP16, 38)
        CFI Block cfiCond11 Using cfiCommon0
        CFI (cfiCond11) NoFunction
        CFI (cfiCond11) Conditional ??CrossCallReturnLabel_1
        CFI (cfiCond11) R6 load(1, XDATA, add(CFA_XSP16, literal(-14)))
        CFI (cfiCond11) VB load(1, XDATA, add(CFA_XSP16, literal(-13)))
        CFI (cfiCond11) V0 load(1, XDATA, add(CFA_XSP16, literal(-12)))
        CFI (cfiCond11) V1 load(1, XDATA, add(CFA_XSP16, literal(-11)))
        CFI (cfiCond11) V2 load(1, XDATA, add(CFA_XSP16, literal(-10)))
        CFI (cfiCond11) V3 load(1, XDATA, add(CFA_XSP16, literal(-9)))
        CFI (cfiCond11) V4 load(1, XDATA, add(CFA_XSP16, literal(-8)))
        CFI (cfiCond11) V5 load(1, XDATA, add(CFA_XSP16, literal(-7)))
        CFI (cfiCond11) R7 load(1, XDATA, add(CFA_XSP16, literal(-6)))
        CFI (cfiCond11) ?RET_LOW load(1, XDATA, add(CFA_XSP16, literal(-5)))
        CFI (cfiCond11) ?RET_HIGH load(1, XDATA, add(CFA_XSP16, literal(-4)))
        CFI (cfiCond11) ?BRET_EXT load(1, XDATA, add(CFA_XSP16, literal(-3)))
        CFI (cfiCond11) DPL0 load(1, XDATA, add(CFA_XSP16, literal(-2)))
        CFI (cfiCond11) DPH0 load(1, XDATA, add(CFA_XSP16, literal(-1)))
        CFI (cfiCond11) CFA_SP SP+0
        CFI (cfiCond11) CFA_XSP16 add(XSP16, 38)
        CFI Block cfiPicker12 Using cfiCommon1
        CFI (cfiPicker12) NoFunction
        CFI (cfiPicker12) Picker
        MOV     A,DPL
        ADD     A,?V0 + 0
        MOV     DPL,A
        MOV     A,DPH
        ADDC    A,#0x0
        MOV     DPH,A
        RET
        CFI EndBlock cfiCond10
        CFI EndBlock cfiCond11
        CFI EndBlock cfiPicker12
//  352 
//  353 /*********************************************************************
//  354  * Event Generation Functions
//  355  */
//  356 
//  357 /*********************************************************************
//  358  * @fn      Light_ProcessZDOMsgs()
//  359  *
//  360  * @brief   Process response messages
//  361  *
//  362  * @param   none
//  363  *
//  364  * @return  none
//  365  */
//  366 static void Light_ProcessZDOMsgs( zdoIncomingMsg_t *inMsg )
//  367 {
//  368   switch ( inMsg->clusterID )
//  369   {
//  370     case End_Device_Bind_rsp:
//  371       if ( ZDO_ParseBindRsp( inMsg ) == ZSuccess )
//  372       {
//  373         // Light LED
//  374         HalLedSet( HAL_LED_4, HAL_LED_MODE_ON );
//  375       }
//  376 #if defined( BLINK_LEDS )
//  377       else
//  378       {
//  379         // Flash LED to show failure
//  380         HalLedSet ( HAL_LED_4, HAL_LED_MODE_FLASH );
//  381       }
//  382 #endif
//  383       break;
//  384 
//  385     case Match_Desc_rsp:
//  386       {
//  387         ZDO_ActiveEndpointRsp_t *pRsp = ZDO_ParseEPListRsp( inMsg );
//  388         if ( pRsp )
//  389         {
//  390           if ( pRsp->status == ZSuccess && pRsp->cnt )
//  391           {
//  392             Light_DstAddr.addrMode = (afAddrMode_t)Addr16Bit;
//  393             Light_DstAddr.addr.shortAddr = pRsp->nwkAddr;
//  394             // Take the first endpoint, Can be changed to search through endpoints
//  395             Light_DstAddr.endPoint = pRsp->epList[0];
//  396 
//  397             // Light LED
//  398             HalLedSet( HAL_LED_4, HAL_LED_MODE_ON );
//  399           }
//  400           osal_mem_free( pRsp );
//  401         }
//  402       }
//  403       break;
//  404   }
//  405 }
//  406 
//  407 /*********************************************************************
//  408  * @fn      Light_HandleKeys
//  409  *
//  410  * @brief   Handles all key events for this device.
//  411  *
//  412  * @param   shift - true if in shift/alt.
//  413  * @param   keys - bit field for key events. Valid entries:
//  414  *                 HAL_KEY_SW_4
//  415  *                 HAL_KEY_SW_3
//  416  *                 HAL_KEY_SW_2
//  417  *                 HAL_KEY_SW_1
//  418  *
//  419  * @return  none
//  420  */
//  421 static void Light_HandleKeys( uint8 shift, uint8 keys )
//  422 {
//  423   zAddrType_t dstAddr;
//  424 
//  425   // Shift is used to make each button/switch dual purpose.
//  426   if ( shift )
//  427   {
//  428     if ( keys & HAL_KEY_SW_1 )
//  429     {
//  430     }
//  431     if ( keys & HAL_KEY_SW_2 )
//  432     {
//  433     }
//  434     if ( keys & HAL_KEY_SW_3 )
//  435     {
//  436     }
//  437     if ( keys & HAL_KEY_SW_4 )
//  438     {
//  439     }
//  440   }
//  441   else
//  442   {
//  443     if ( keys & HAL_KEY_SW_1 )
//  444     {
//  445       // Since SW1 isn't used for anything else in this application...
//  446 #if defined( SWITCH1_BIND )
//  447       // we can use SW1 to simulate SW2 for devices that only have one switch,
//  448       keys |= HAL_KEY_SW_2;
//  449 #elif defined( SWITCH1_MATCH )
//  450       // or use SW1 to simulate SW4 for devices that only have one switch
//  451       keys |= HAL_KEY_SW_4;
//  452 #endif
//  453     }
//  454 
//  455     if ( keys & HAL_KEY_SW_2 )
//  456     {
//  457       HalLedSet ( HAL_LED_4, HAL_LED_MODE_OFF );
//  458 
//  459       // Initiate an End Device Bind Request for the mandatory endpoint
//  460       dstAddr.addrMode = Addr16Bit;
//  461       dstAddr.addr.shortAddr = 0x0000; // Coordinator
//  462       ZDP_EndDeviceBindReq( &dstAddr, NLME_GetShortAddr(),
//  463                             Light_epDesc.endPoint,
//  464                             LIGHT_PROFID,
//  465                             LIGHT_MAX_CLUSTERS, (cId_t *)Light_ClusterList,
//  466                             LIGHT_MAX_CLUSTERS, (cId_t *)Light_ClusterList,
//  467                             FALSE );
//  468     }
//  469 
//  470     if ( keys & HAL_KEY_SW_3 )
//  471     {
//  472     }
//  473 
//  474     if ( keys & HAL_KEY_SW_4 )
//  475     {
//  476       HalLedSet ( HAL_LED_4, HAL_LED_MODE_OFF );
//  477       // Initiate a Match Description Request (Service Discovery)
//  478       dstAddr.addrMode = AddrBroadcast;
//  479       dstAddr.addr.shortAddr = NWK_BROADCAST_SHORTADDR;
//  480       ZDP_MatchDescReq( &dstAddr, NWK_BROADCAST_SHORTADDR,
//  481                         LIGHT_PROFID,
//  482                         LIGHT_MAX_CLUSTERS, (cId_t *)Light_ClusterList,
//  483                         LIGHT_MAX_CLUSTERS, (cId_t *)Light_ClusterList,
//  484                         FALSE );
//  485     }
//  486   }
//  487 }
//  488 
//  489 /*********************************************************************
//  490  * LOCAL FUNCTIONS
//  491  */
//  492 
//  493 /*********************************************************************
//  494  * @fn      Light_MessageMSGCB
//  495  *
//  496  * @brief   Data message processor callback.  This function processes
//  497  *          any incoming data - probably from other devices.  So, based
//  498  *          on cluster ID, perform the intended action.
//  499  *
//  500  * @param   none
//  501  *
//  502  * @return  none
//  503  */
//  504 static void Light_MessageMSGCB( afIncomingMSGPacket_t *pkt )
//  505 {
//  506   switch ( pkt->clusterId )
//  507   {
//  508     case LIGHT_CLUSTERID:
//  509       // "the" message
//  510 #if defined( LCD_SUPPORTED )
//  511       HalLcdWriteScreen( (char*)pkt->cmd.Data, "rcvd" );
//  512 #elif defined( WIN32 )
//  513       WPRINTSTR( pkt->cmd.Data );
//  514 #endif
//  515       break;
//  516   }
//  517 }
//  518 
//  519 /*********************************************************************
//  520  * @fn      Light_SendTheMessage
//  521  *
//  522  * @brief   Send "the" message.
//  523  *
//  524  * @param   none
//  525  *
//  526  * @return  none
//  527  */
//  528 static void Light_SendTheMessage( void )
//  529 {
//  530   unsigned char theMessageData[15] = "LIGHT:";
//  531   
//  532   _ltoa( (uint32)(fLight), &theMessageData[6], 10 );
//  533   
//  534   for (unsigned char i=0; i<15-1; i++)
//  535   {
//  536     if (theMessageData[i] == 0x00 )
//  537     {
//  538       theMessageData[i] = ' ';
//  539     }
//  540   }
//  541 
//  542   if ( AF_DataRequest( &Light_DstAddr, &Light_epDesc,
//  543                        LIGHT_CLUSTERID,
//  544                        (byte)osal_strlen( theMessageData ) + 1,
//  545                        (byte *)&theMessageData,
//  546                        &Light_TransID,
//  547                        AF_DISCV_ROUTE, AF_DEFAULT_RADIUS ) == afStatus_SUCCESS )
//  548   {
//  549     // Successfully requested to be sent.
//  550   }
//  551   else
//  552   {
//  553     // Error occurred in request to send.
//  554   }
//  555 }
//  556 
//  557 #if defined( IAR_ARMCM3_LM )
//  558 /*********************************************************************
//  559  * @fn      Light_ProcessRtosMessage
//  560  *
//  561  * @brief   Receive message from RTOS queue, send response back.
//  562  *
//  563  * @param   none
//  564  *
//  565  * @return  none
//  566  */
//  567 static void Light_ProcessRtosMessage( void )
//  568 {
//  569   osalQueue_t inMsg;
//  570 
//  571   if ( osal_queue_receive( OsalQueue, &inMsg, 0 ) == pdPASS )
//  572   {
//  573     uint8 cmndId = inMsg.cmnd;
//  574     uint32 counter = osal_build_uint32( inMsg.cbuf, 4 );
//  575 
//  576     switch ( cmndId )
//  577     {
//  578       case CMD_INCR:
//  579         counter += 1;  /* Increment the incoming counter */
//  580                        /* Intentionally fall through next case */
//  581 
//  582       case CMD_ECHO:
//  583       {
//  584         userQueue_t outMsg;
//  585 
//  586         outMsg.resp = RSP_CODE | cmndId;  /* Response ID */
//  587         osal_buffer_uint32( outMsg.rbuf, counter );    /* Increment counter */
//  588         osal_queue_send( UserQueue1, &outMsg, 0 );  /* Send back to UserTask */
//  589         break;
//  590       }
//  591       
//  592       default:
//  593         break;  /* Ignore unknown command */    
//  594     }
//  595   }
//  596 }
//  597 
//  598 #endif
//  599 
//  600 //***********************************************************************************
//  601 

        RSEG BANKED_CODE:CODE:NOROOT(0)
//  602 uint16 LightMeasurement_ProcessEvent( uint8 task_id, uint16 events )
LightMeasurement_ProcessEvent:
        CFI Block cfiBlock13 Using cfiCommon0
        CFI Function LightMeasurement_ProcessEvent
        CODE
//  603 {
        FUNCALL LightMeasurement_ProcessEvent, osal_start_timerEx
        LOCFRAME ISTACK, 0, STACK
        LOCFRAME PSTACK, 0, STACK
        LOCFRAME XSTACK, 16, STACK
        LOCFRAME IOVERLAY, 0, STATIC
        LOCFRAME DOVERLAY, 0, STATIC
        ARGFRAME ISTACK, 0, STACK
        ARGFRAME PSTACK, 0, STACK
        ARGFRAME XSTACK, 16, STACK
        ARGFRAME IOVERLAY, 0, STATIC
        ARGFRAME DOVERLAY, 0, STATIC
        FUNCALL LightMeasurement_ProcessEvent, Init_BH1750
        LOCFRAME ISTACK, 0, STACK
        LOCFRAME PSTACK, 0, STACK
        LOCFRAME XSTACK, 16, STACK
        LOCFRAME IOVERLAY, 0, STATIC
        LOCFRAME DOVERLAY, 0, STATIC
        ARGFRAME ISTACK, 0, STACK
        ARGFRAME PSTACK, 0, STACK
        ARGFRAME XSTACK, 16, STACK
        ARGFRAME IOVERLAY, 0, STATIC
        ARGFRAME DOVERLAY, 0, STATIC
        FUNCALL LightMeasurement_ProcessEvent, Single_Write_BH1750
        LOCFRAME ISTACK, 0, STACK
        LOCFRAME PSTACK, 0, STACK
        LOCFRAME XSTACK, 16, STACK
        LOCFRAME IOVERLAY, 0, STATIC
        LOCFRAME DOVERLAY, 0, STATIC
        ARGFRAME ISTACK, 0, STACK
        ARGFRAME PSTACK, 0, STACK
        ARGFRAME XSTACK, 16, STACK
        ARGFRAME IOVERLAY, 0, STATIC
        ARGFRAME DOVERLAY, 0, STATIC
        FUNCALL LightMeasurement_ProcessEvent, Single_Write_BH1750
        LOCFRAME ISTACK, 0, STACK
        LOCFRAME PSTACK, 0, STACK
        LOCFRAME XSTACK, 16, STACK
        LOCFRAME IOVERLAY, 0, STATIC
        LOCFRAME DOVERLAY, 0, STATIC
        ARGFRAME ISTACK, 0, STACK
        ARGFRAME PSTACK, 0, STACK
        ARGFRAME XSTACK, 16, STACK
        ARGFRAME IOVERLAY, 0, STATIC
        ARGFRAME DOVERLAY, 0, STATIC
        FUNCALL LightMeasurement_ProcessEvent, delay_nms
        LOCFRAME ISTACK, 0, STACK
        LOCFRAME PSTACK, 0, STACK
        LOCFRAME XSTACK, 16, STACK
        LOCFRAME IOVERLAY, 0, STATIC
        LOCFRAME DOVERLAY, 0, STATIC
        ARGFRAME ISTACK, 0, STACK
        ARGFRAME PSTACK, 0, STACK
        ARGFRAME XSTACK, 16, STACK
        ARGFRAME IOVERLAY, 0, STATIC
        ARGFRAME DOVERLAY, 0, STATIC
        FUNCALL LightMeasurement_ProcessEvent, Multiple_Read
        LOCFRAME ISTACK, 0, STACK
        LOCFRAME PSTACK, 0, STACK
        LOCFRAME XSTACK, 16, STACK
        LOCFRAME IOVERLAY, 0, STATIC
        LOCFRAME DOVERLAY, 0, STATIC
        ARGFRAME ISTACK, 0, STACK
        ARGFRAME PSTACK, 0, STACK
        ARGFRAME XSTACK, 16, STACK
        ARGFRAME IOVERLAY, 0, STATIC
        ARGFRAME DOVERLAY, 0, STATIC
        MOV     A,#-0x10
        LCALL   ?BANKED_ENTER_XDATA
        CFI DPH0 load(1, XDATA, add(CFA_XSP16, literal(-1)))
        CFI DPL0 load(1, XDATA, add(CFA_XSP16, literal(-2)))
        CFI ?BRET_EXT load(1, XDATA, add(CFA_XSP16, literal(-3)))
        CFI ?RET_HIGH load(1, XDATA, add(CFA_XSP16, literal(-4)))
        CFI ?RET_LOW load(1, XDATA, add(CFA_XSP16, literal(-5)))
        CFI R7 load(1, XDATA, add(CFA_XSP16, literal(-6)))
        CFI V7 load(1, XDATA, add(CFA_XSP16, literal(-7)))
        CFI V6 load(1, XDATA, add(CFA_XSP16, literal(-8)))
        CFI V5 load(1, XDATA, add(CFA_XSP16, literal(-9)))
        CFI V4 load(1, XDATA, add(CFA_XSP16, literal(-10)))
        CFI V3 load(1, XDATA, add(CFA_XSP16, literal(-11)))
        CFI V2 load(1, XDATA, add(CFA_XSP16, literal(-12)))
        CFI V1 load(1, XDATA, add(CFA_XSP16, literal(-13)))
        CFI V0 load(1, XDATA, add(CFA_XSP16, literal(-14)))
        CFI VB load(1, XDATA, add(CFA_XSP16, literal(-15)))
        CFI R6 load(1, XDATA, add(CFA_XSP16, literal(-16)))
        CFI CFA_SP SP+0
        CFI CFA_XSP16 add(XSP16, 16)
        ; Saved register size: 16
        ; Auto size: 0
        MOV     A,R2
        MOV     R6,A
        MOV     A,R3
        MOV     R7,A
//  604   if ( events & LINGHTMEASUREMENT_EVT )
        MOV     A,R6
        MOV     C,0xE0 /* A   */.0
        JNC     ??LightMeasurement_ProcessEvent_0
//  605   {
//  606   osal_start_timerEx( LightMeasurement_TaskID,
//  607                         LINGHTMEASUREMENT_EVT,
//  608                         LINGHTMEASUREMENT_TIMEOUT );
        ; Setup parameters for call to function osal_start_timerEx
        MOV     R4,#-0x60
        MOV     R5,#0xf
        MOV     R2,#0x1
        MOV     R3,#0x0
        MOV     DPTR,#LightMeasurement_TaskID
        LCALL   ??Subroutine3_0 & 0xFFFF
//  609 
//  610     Init_BH1750();       //³õÊ¼»¯BH1750
??CrossCallReturnLabel_4:
        ; Setup parameters for call to function Init_BH1750
        LCALL   ??Init_BH1750?relay
//  611     Single_Write_BH1750(0x02);   // power on
        ; Setup parameters for call to function Single_Write_BH1750
        MOV     R1,#0x2
        LCALL   ??Single_Write_BH1750?relay
//  612     Single_Write_BH1750(0x10);   // H- resolution mode
        ; Setup parameters for call to function Single_Write_BH1750
        MOV     R1,#0x10
        LCALL   ??Single_Write_BH1750?relay
//  613 
//  614     delay_nms(180);              //ÑÓÊ±180ms
        ; Setup parameters for call to function delay_nms
        MOV     R2,#-0x4c
        MOV     R3,#0x0
        LCALL   ??delay_nms?relay
//  615     Multiple_Read();       //Á¬Ðø¶Á³öÊý¾Ý£¬´æ´¢ÔÚBUFÖÐ
        ; Setup parameters for call to function Multiple_Read
        LCALL   ??Multiple_Read?relay
//  616 
//  617     dis_data=BUF[0];
//  618     dis_data=(dis_data<<8)+BUF[1];//ºÏ³ÉÊý¾Ý£¬¼´¹âÕÕÊý¾Ý
        MOV     DPTR,#BUF
        MOVX    A,@DPTR
        MOV     R1,A
        INC     DPTR
        MOVX    A,@DPTR
        MOV     R2,A
        CLR     A
        ADD     A,R2
        MOV     DPTR,#dis_data
        MOVX    @DPTR,A
        INC     DPTR
        MOV     A,R1
        MOVX    @DPTR,A
//  619 
//  620     fLight = (float)dis_data/1.5;
        MOV     DPTR,#dis_data
        MOVX    A,@DPTR
        MOV     ?V0 + 0,A
        INC     DPTR
        MOVX    A,@DPTR
        MOV     ?V0 + 1,A
        RLC     A
        SUBB    A,0xE0 /* A   */
        MOV     ?V0 + 2,A
        MOV     ?V0 + 3,A
        MOV     R0,#?V0 + 0
        LCALL   ?L_TO_FLT
        MOV     DPTR,#__Constant_3fc00000
        MOV     R0,#?V0 + 4
        LCALL   ?L_MOV_X
        MOV     R0,#?V0 + 0
        MOV     R1,#?V0 + 4
        LCALL   ?FLT_DIV
        MOV     DPTR,#fLight
        MOV     R0,#?V0 + 0
        LCALL   ?L_MOV_TO_X
//  621     
//  622     //HalLedSet ( HAL_LED_2, HAL_LED_MODE_TOGGLE );
//  623 
//  624     // return unprocessed events
//  625     return (events ^ LINGHTMEASUREMENT_EVT);
        MOV     A,R6
        XRL     A,#0x1
        MOV     R2,A
        MOV     A,R7
        MOV     R3,A
        SJMP    ??LightMeasurement_ProcessEvent_1
//  626   }
//  627 
//  628   // Discard unknown events
//  629   return 0;
??LightMeasurement_ProcessEvent_0:
        MOV     R2,#0x0
        MOV     R3,#0x0
??LightMeasurement_ProcessEvent_1:
        MOV     R7,#0x8
        LJMP    ?BANKED_LEAVE_XDATA
        CFI EndBlock cfiBlock13
//  630 }
//  631 

        RSEG BANKED_CODE:CODE:NOROOT(0)
//  632 void LightMeasurement_Init( uint8 task_id )
LightMeasurement_Init:
        CFI Block cfiBlock14 Using cfiCommon0
        CFI Function LightMeasurement_Init
        CODE
//  633 {
        FUNCALL LightMeasurement_Init, osal_start_timerEx
        LOCFRAME ISTACK, 0, STACK
        LOCFRAME PSTACK, 0, STACK
        LOCFRAME XSTACK, 9, STACK
        LOCFRAME IOVERLAY, 0, STATIC
        LOCFRAME DOVERLAY, 0, STATIC
        ARGFRAME ISTACK, 0, STACK
        ARGFRAME PSTACK, 0, STACK
        ARGFRAME XSTACK, 9, STACK
        ARGFRAME IOVERLAY, 0, STATIC
        ARGFRAME DOVERLAY, 0, STATIC
        FUNCALL LightMeasurement_Init, RegisterForKeys
        LOCFRAME ISTACK, 0, STACK
        LOCFRAME PSTACK, 0, STACK
        LOCFRAME XSTACK, 9, STACK
        LOCFRAME IOVERLAY, 0, STATIC
        LOCFRAME DOVERLAY, 0, STATIC
        ARGFRAME ISTACK, 0, STACK
        ARGFRAME PSTACK, 0, STACK
        ARGFRAME XSTACK, 9, STACK
        ARGFRAME IOVERLAY, 0, STATIC
        ARGFRAME DOVERLAY, 0, STATIC
        MOV     A,#-0x9
        LCALL   ?BANKED_ENTER_XDATA
        CFI DPH0 load(1, XDATA, add(CFA_XSP16, literal(-1)))
        CFI DPL0 load(1, XDATA, add(CFA_XSP16, literal(-2)))
        CFI ?BRET_EXT load(1, XDATA, add(CFA_XSP16, literal(-3)))
        CFI ?RET_HIGH load(1, XDATA, add(CFA_XSP16, literal(-4)))
        CFI ?RET_LOW load(1, XDATA, add(CFA_XSP16, literal(-5)))
        CFI R7 load(1, XDATA, add(CFA_XSP16, literal(-6)))
        CFI V0 load(1, XDATA, add(CFA_XSP16, literal(-7)))
        CFI VB load(1, XDATA, add(CFA_XSP16, literal(-8)))
        CFI R6 load(1, XDATA, add(CFA_XSP16, literal(-9)))
        CFI CFA_SP SP+0
        CFI CFA_XSP16 add(XSP16, 9)
        ; Saved register size: 9
        ; Auto size: 0
        MOV     A,R1
//  634   LightMeasurement_TaskID = task_id;
        MOV     DPTR,#LightMeasurement_TaskID
        MOVX    @DPTR,A
//  635   LightMeasurement_TransID = 0;
        MOV     DPTR,#LightMeasurement_TransID
        CLR     A
        MOVX    @DPTR,A
//  636   
//  637   osal_start_timerEx( LightMeasurement_TaskID,
//  638                         LINGHTMEASUREMENT_EVT,
//  639                         LINGHTMEASUREMENT_TIMEOUT );
        ; Setup parameters for call to function osal_start_timerEx
        MOV     R4,#-0x60
        MOV     R5,#0xf
        MOV     R2,#0x1
        MOV     R3,A
        LCALL   ??osal_start_timerEx?relay
//  640   
//  641   RegisterForKeys( LightMeasurement_TaskID );  
        ; Setup parameters for call to function RegisterForKeys
        MOV     DPTR,#LightMeasurement_TaskID
        MOVX    A,@DPTR
        MOV     R1,A
        LCALL   ??RegisterForKeys?relay
//  642 }
        LJMP    ?Subroutine0 & 0xFFFF
        CFI EndBlock cfiBlock14

        RSEG BANK_RELAYS:CODE:REORDER:NOROOT(0)
??Light_Init?relay:
        LCALL   ?BDISPATCH
        DATA
        DC24    Light_Init

        RSEG BANK_RELAYS:CODE:REORDER:NOROOT(0)
??Light_ProcessEvent?relay:
        LCALL   ?BDISPATCH
        DATA
        DC24    Light_ProcessEvent

        RSEG BANK_RELAYS:CODE:REORDER:NOROOT(0)
??LightMeasurement_ProcessEvent?relay:
        LCALL   ?BDISPATCH
        DATA
        DC24    LightMeasurement_ProcessEvent

        RSEG BANK_RELAYS:CODE:REORDER:NOROOT(0)
??LightMeasurement_Init?relay:
        LCALL   ?BDISPATCH
        DATA
        DC24    LightMeasurement_Init

        RSEG XDATA_ROM_C:CONST:REORDER:NOROOT(0)
        DATA8
`?<Constant "Light">`:
        DB "Light"

        RSEG XDATA_ROM_C:CONST:REORDER:NOROOT(0)
        DATA8
`?<Constant "rcvd">`:
        DB "rcvd"

        RSEG XDATA_ROM_C:CONST:REORDER:NOROOT(0)
        DATA8
`?<Constant "LIGHT:">`:
        DB "LIGHT:"
        DB 0, 0, 0, 0, 0, 0, 0, 0

        RSEG XDATA_ROM_C:CONST:REORDER:NOROOT(0)
        DATA32
__Constant_3fc00000:
        DD 3FC00000H

        END
//  643 
//  644 
//  645 /*********************************************************************
//  646  */
// 
// 1 074 bytes in segment BANKED_CODE
//    24 bytes in segment BANK_RELAYS
//    44 bytes in segment XDATA_ROM_C
//    28 bytes in segment XDATA_Z
// 
// 1 098 bytes of CODE  memory
//    40 bytes of CONST memory (+ 4 bytes shared)
//    28 bytes of XDATA memory
//
//Errors: none
//Warnings: 1
