///////////////////////////////////////////////////////////////////////////////
//                                                                            /
// IAR C/C++ Compiler V8.10.3.10338/W32 for 8051        08/Mar/2014  12:08:08 /
// Copyright 2004-2011 IAR Systems AB.                                        /
//                                                                            /
//    Core               =  plain                                             /
//    Code model         =  banked                                            /
//    Data model         =  large                                             /
//    Calling convention =  xdata reentrant                                   /
//    Constant location  =  data_rom                                          /
//    Dptr setup         =  1,16                                              /
//    Source file        =  C:\Users\OurEDA\Documents\Tencent                 /
//                          Files\1534143789\FileRecv\ZStack-CC2530-2.5.1a\ZS /
//                          tack-CC2530-2.5.1a\Projects\zstack\Samples\08Doub /
//                          le_ENDDB\Source\Double.c                          /
//    Command line       =  -f "C:\Users\OurEDA\Documents\Tencent             /
//                          Files\1534143789\FileRecv\ZStack-CC2530-2.5.1a\ZS /
//                          tack-CC2530-2.5.1a\Projects\zstack\Samples\08Doub /
//                          le_ENDDB\CC2530DB\..\..\..\Tools\CC2530DB\f8wEnde /
//                          v.cfg" (-DCPU32MHZ -DROOT=__near_func             /
//                          -DMAC_CFG_TX_DATA_MAX=3 -DMAC_CFG_TX_MAX=6        /
//                          -DMAC_CFG_RX_MAX=3) -f "C:\Users\OurEDA\Documents /
//                          \Tencent Files\1534143789\FileRecv\ZStack-CC2530- /
//                          2.5.1a\ZStack-CC2530-2.5.1a\Projects\zstack\Sampl /
//                          es\08Double_ENDDB\CC2530DB\..\..\..\Tools\CC2530D /
//                          B\f8wConfig.cfg" (-DZIGBEEPRO -DSECURE=0          /
//                          -DZG_SECURE_DYNAMIC=0 -DREFLECTOR                 /
//                          -DDEFAULT_CHANLIST=0x00000800                     /
//                          -DZDAPP_CONFIG_PAN_ID=0xFFFF                      /
//                          -DNWK_START_DELAY=100 -DEXTENDED_JOINING_RANDOM_M /
//                          ASK=0x007F -DBEACON_REQUEST_DELAY=100             /
//                          -DBEACON_REQ_DELAY_MASK=0x00FF                    /
//                          -DLINK_STATUS_JITTER_MASK=0x007F                  /
//                          -DROUTE_EXPIRY_TIME=30 -DAPSC_ACK_WAIT_DURATION_P /
//                          OLLED=3000 -DNWK_INDIRECT_MSG_TIMEOUT=7           /
//                          -DMAX_RREQ_ENTRIES=8 -DAPSC_MAX_FRAME_RETRIES=3   /
//                          -DNWK_MAX_DATA_RETRIES=2                          /
//                          -DMAX_POLL_FAILURE_RETRIES=2 -DMAX_BCAST=9        /
//                          -DAPS_MAX_GROUPS=16 -DMAX_RTG_ENTRIES=40          /
//                          -DNWK_MAX_BINDING_ENTRIES=4                       /
//                          -DMAX_BINDING_CLUSTER_IDS=4                       /
//                          "-DDEFAULT_KEY={0x01, 0x03, 0x05, 0x07, 0x09,     /
//                          0x0B, 0x0D, 0x0F, 0x00, 0x02, 0x04, 0x06, 0x08,   /
//                          0x0A, 0x0C, 0x0D}" -DMAC_MAX_FRAME_SIZE=116       /
//                          -DZDNWKMGR_MIN_TRANSMISSIONS=20 "-DCONST=const    /
//                          __code" -DGENERIC=__generic                       /
//                          -DRFD_RCVC_ALWAYS_ON=FALSE -DPOLL_RATE=1000       /
//                          -DQUEUED_POLL_RATE=100 -DRESPONSE_POLL_RATE=100)  /
//                          -DREJOIN_POLL_RATE=440 "C:\Users\OurEDA\Documents /
//                          \Tencent Files\1534143789\FileRecv\ZStack-CC2530- /
//                          2.5.1a\ZStack-CC2530-2.5.1a\Projects\zstack\Sampl /
//                          es\08Double_ENDDB\Source\Double.c" -D             /
//                          NWK_AUTO_POLL -D ZTOOL_P1 -D MT_TASK -D           /
//                          MT_SYS_FUNC -D MT_ZDO_FUNC -D                     /
//                          LCD_SUPPORTED=DEBUG -D xPOWER_SAVING -lC          /
//                          "C:\Users\OurEDA\Documents\Tencent                /
//                          Files\1534143789\FileRecv\ZStack-CC2530-2.5.1a\ZS /
//                          tack-CC2530-2.5.1a\Projects\zstack\Samples\08Doub /
//                          le_ENDDB\CC2530DB\EndDeviceEB\List\" -lA          /
//                          "C:\Users\OurEDA\Documents\Tencent                /
//                          Files\1534143789\FileRecv\ZStack-CC2530-2.5.1a\ZS /
//                          tack-CC2530-2.5.1a\Projects\zstack\Samples\08Doub /
//                          le_ENDDB\CC2530DB\EndDeviceEB\List\"              /
//                          --diag_suppress Pe001,Pa010 -o                    /
//                          "C:\Users\OurEDA\Documents\Tencent                /
//                          Files\1534143789\FileRecv\ZStack-CC2530-2.5.1a\ZS /
//                          tack-CC2530-2.5.1a\Projects\zstack\Samples\08Doub /
//                          le_ENDDB\CC2530DB\EndDeviceEB\Obj\" -e            /
//                          --no_code_motion --debug --core=plain             /
//                          --dptr=16,1 --data_model=large                    /
//                          --code_model=banked --calling_convention=xdata_re /
//                          entrant --place_constants=data_rom                /
//                          --nr_virtual_regs 16 -I                           /
//                          "C:\Users\OurEDA\Documents\Tencent                /
//                          Files\1534143789\FileRecv\ZStack-CC2530-2.5.1a\ZS /
//                          tack-CC2530-2.5.1a\Projects\zstack\Samples\08Doub /
//                          le_ENDDB\CC2530DB\" -I "C:\Users\OurEDA\Documents /
//                          \Tencent Files\1534143789\FileRecv\ZStack-CC2530- /
//                          2.5.1a\ZStack-CC2530-2.5.1a\Projects\zstack\Sampl /
//                          es\08Double_ENDDB\CC2530DB\..\Source\" -I         /
//                          "C:\Users\OurEDA\Documents\Tencent                /
//                          Files\1534143789\FileRecv\ZStack-CC2530-2.5.1a\ZS /
//                          tack-CC2530-2.5.1a\Projects\zstack\Samples\08Doub /
//                          le_ENDDB\CC2530DB\..\..\..\ZMain\TI2530DB\" -I    /
//                          "C:\Users\OurEDA\Documents\Tencent                /
//                          Files\1534143789\FileRecv\ZStack-CC2530-2.5.1a\ZS /
//                          tack-CC2530-2.5.1a\Projects\zstack\Samples\08Doub /
//                          le_ENDDB\CC2530DB\..\..\..\..\..\Components\hal\i /
//                          nclude\" -I "C:\Users\OurEDA\Documents\Tencent    /
//                          Files\1534143789\FileRecv\ZStack-CC2530-2.5.1a\ZS /
//                          tack-CC2530-2.5.1a\Projects\zstack\Samples\08Doub /
//                          le_ENDDB\CC2530DB\..\..\..\..\..\Components\hal\t /
//                          arget\CC2530EB\" -I "C:\Users\OurEDA\Documents\Te /
//                          ncent Files\1534143789\FileRecv\ZStack-CC2530-2.5 /
//                          .1a\ZStack-CC2530-2.5.1a\Projects\zstack\Samples\ /
//                          08Double_ENDDB\CC2530DB\..\..\..\..\..\Components /
//                          \mac\include\" -I "C:\Users\OurEDA\Documents\Tenc /
//                          ent Files\1534143789\FileRecv\ZStack-CC2530-2.5.1 /
//                          a\ZStack-CC2530-2.5.1a\Projects\zstack\Samples\08 /
//                          Double_ENDDB\CC2530DB\..\..\..\..\..\Components\m /
//                          ac\high_level\" -I "C:\Users\OurEDA\Documents\Ten /
//                          cent Files\1534143789\FileRecv\ZStack-CC2530-2.5. /
//                          1a\ZStack-CC2530-2.5.1a\Projects\zstack\Samples\0 /
//                          8Double_ENDDB\CC2530DB\..\..\..\..\..\Components\ /
//                          mac\low_level\srf04\" -I                          /
//                          "C:\Users\OurEDA\Documents\Tencent                /
//                          Files\1534143789\FileRecv\ZStack-CC2530-2.5.1a\ZS /
//                          tack-CC2530-2.5.1a\Projects\zstack\Samples\08Doub /
//                          le_ENDDB\CC2530DB\..\..\..\..\..\Components\mac\l /
//                          ow_level\srf04\single_chip\" -I                   /
//                          "C:\Users\OurEDA\Documents\Tencent                /
//                          Files\1534143789\FileRecv\ZStack-CC2530-2.5.1a\ZS /
//                          tack-CC2530-2.5.1a\Projects\zstack\Samples\08Doub /
//                          le_ENDDB\CC2530DB\..\..\..\..\..\Components\mt\"  /
//                          -I "C:\Users\OurEDA\Documents\Tencent             /
//                          Files\1534143789\FileRecv\ZStack-CC2530-2.5.1a\ZS /
//                          tack-CC2530-2.5.1a\Projects\zstack\Samples\08Doub /
//                          le_ENDDB\CC2530DB\..\..\..\..\..\Components\osal\ /
//                          include\" -I "C:\Users\OurEDA\Documents\Tencent   /
//                          Files\1534143789\FileRecv\ZStack-CC2530-2.5.1a\ZS /
//                          tack-CC2530-2.5.1a\Projects\zstack\Samples\08Doub /
//                          le_ENDDB\CC2530DB\..\..\..\..\..\Components\servi /
//                          ces\saddr\" -I "C:\Users\OurEDA\Documents\Tencent /
//                           Files\1534143789\FileRecv\ZStack-CC2530-2.5.1a\Z /
//                          Stack-CC2530-2.5.1a\Projects\zstack\Samples\08Dou /
//                          ble_ENDDB\CC2530DB\..\..\..\..\..\Components\serv /
//                          ices\sdata\" -I "C:\Users\OurEDA\Documents\Tencen /
//                          t Files\1534143789\FileRecv\ZStack-CC2530-2.5.1a\ /
//                          ZStack-CC2530-2.5.1a\Projects\zstack\Samples\08Do /
//                          uble_ENDDB\CC2530DB\..\..\..\..\..\Components\sta /
//                          ck\af\" -I "C:\Users\OurEDA\Documents\Tencent     /
//                          Files\1534143789\FileRecv\ZStack-CC2530-2.5.1a\ZS /
//                          tack-CC2530-2.5.1a\Projects\zstack\Samples\08Doub /
//                          le_ENDDB\CC2530DB\..\..\..\..\..\Components\stack /
//                          \nwk\" -I "C:\Users\OurEDA\Documents\Tencent      /
//                          Files\1534143789\FileRecv\ZStack-CC2530-2.5.1a\ZS /
//                          tack-CC2530-2.5.1a\Projects\zstack\Samples\08Doub /
//                          le_ENDDB\CC2530DB\..\..\..\..\..\Components\stack /
//                          \sapi\" -I "C:\Users\OurEDA\Documents\Tencent     /
//                          Files\1534143789\FileRecv\ZStack-CC2530-2.5.1a\ZS /
//                          tack-CC2530-2.5.1a\Projects\zstack\Samples\08Doub /
//                          le_ENDDB\CC2530DB\..\..\..\..\..\Components\stack /
//                          \sec\" -I "C:\Users\OurEDA\Documents\Tencent      /
//                          Files\1534143789\FileRecv\ZStack-CC2530-2.5.1a\ZS /
//                          tack-CC2530-2.5.1a\Projects\zstack\Samples\08Doub /
//                          le_ENDDB\CC2530DB\..\..\..\..\..\Components\stack /
//                          \sys\" -I "C:\Users\OurEDA\Documents\Tencent      /
//                          Files\1534143789\FileRecv\ZStack-CC2530-2.5.1a\ZS /
//                          tack-CC2530-2.5.1a\Projects\zstack\Samples\08Doub /
//                          le_ENDDB\CC2530DB\..\..\..\..\..\Components\stack /
//                          \zdo\" -I "C:\Users\OurEDA\Documents\Tencent      /
//                          Files\1534143789\FileRecv\ZStack-CC2530-2.5.1a\ZS /
//                          tack-CC2530-2.5.1a\Projects\zstack\Samples\08Doub /
//                          le_ENDDB\CC2530DB\..\..\..\..\..\Components\zmac\ /
//                          " -I "C:\Users\OurEDA\Documents\Tencent           /
//                          Files\1534143789\FileRecv\ZStack-CC2530-2.5.1a\ZS /
//                          tack-CC2530-2.5.1a\Projects\zstack\Samples\08Doub /
//                          le_ENDDB\CC2530DB\..\..\..\..\..\Components\zmac\ /
//                          f8w\" -Ohz                                        /
//    List file          =  C:\Users\OurEDA\Documents\Tencent                 /
//                          Files\1534143789\FileRecv\ZStack-CC2530-2.5.1a\ZS /
//                          tack-CC2530-2.5.1a\Projects\zstack\Samples\08Doub /
//                          le_ENDDB\CC2530DB\EndDeviceEB\List\Double.s51     /
//                                                                            /
//                                                                            /
///////////////////////////////////////////////////////////////////////////////

        NAME Double

        RTMODEL "__SystemLibrary", "CLib"
        RTMODEL "__calling_convention", "xdata_reentrant"
        RTMODEL "__code_model", "banked"
        RTMODEL "__core", "plain"
        RTMODEL "__data_model", "large"
        RTMODEL "__dptr_size", "16"
        RTMODEL "__extended_stack", "disabled"
        RTMODEL "__location_for_constants", "data"
        RTMODEL "__number_of_dptrs", "1"
        RTMODEL "__rt_version", "1"

        RSEG DOVERLAY:DATA:NOROOT(0)
        RSEG IOVERLAY:IDATA:NOROOT(0)
        RSEG ISTACK:IDATA:NOROOT(0)
        RSEG PSTACK:XDATA:NOROOT(0)
        RSEG XSTACK:XDATA:NOROOT(0)

        EXTERN ?ALLOC_XSTACK8
        EXTERN ?BANKED_ENTER_XDATA
        EXTERN ?BANKED_LEAVE_XDATA
        EXTERN ?BDISPATCH
        EXTERN ?DEALLOC_XSTACK8
        EXTERN ?MOVE_LONG8_XDATA_XDATA
        EXTERN ?PUSH_XSTACK_I_ONE
        EXTERN ?PUSH_XSTACK_I_THREE
        EXTERN ?PUSH_XSTACK_I_TWO
        EXTERN ?R2345_FLT_TO_UL
        EXTERN ?V0
        EXTERN ?XLOAD_R2345
        EXTERN ?XSP
        EXTERN ?XSTACK_DISP0_8
        EXTERN __INIT_XDATA_Z

        PUBLIC ??DoubleMeasurement_Init?relay
        FUNCTION ??DoubleMeasurement_Init?relay,0203H
        PUBLIC ??DoubleMeasurement_ProcessEvent?relay
        FUNCTION ??DoubleMeasurement_ProcessEvent?relay,0203H
        PUBLIC ??Double_Init?relay
        FUNCTION ??Double_Init?relay,0203H
        FUNCTION ??Double_MessageMSGCB?relay,0203H
        PUBLIC ??Double_ProcessEvent?relay
        FUNCTION ??Double_ProcessEvent?relay,0203H
        PUBLIC DoubleMeasurement_Init
        FUNCTION DoubleMeasurement_Init,021203H
        ARGFRAME XSTACK, 0, STACK
        LOCFRAME XSTACK, 9, STACK
        PUBLIC DoubleMeasurement_NwkState
        PUBLIC DoubleMeasurement_ProcessEvent
        FUNCTION DoubleMeasurement_ProcessEvent,021203H
        ARGFRAME XSTACK, 0, STACK
        LOCFRAME XSTACK, 9, STACK
        PUBLIC DoubleMeasurement_TaskID
        PUBLIC DoubleMeasurement_TransID
        PUBLIC Double_ClusterList
        PUBLIC Double_DstAddr
        PUBLIC Double_Init
        FUNCTION Double_Init,021203H
        ARGFRAME XSTACK, 0, STACK
        LOCFRAME XSTACK, 9, STACK
        FUNCTION Double_MessageMSGCB,021203H
        ARGFRAME XSTACK, 38, STACK
        ARGFRAME IOVERLAY, 0, STATIC
        ARGFRAME DOVERLAY, 0, STATIC
        LOCFRAME XSTACK, 15, STACK
        PUBLIC Double_NwkState
        PUBLIC Double_ProcessEvent
        FUNCTION Double_ProcessEvent,021203H
        ARGFRAME XSTACK, 0, STACK
        LOCFRAME ISTACK, 2, STACK
        LOCFRAME XSTACK, 47, STACK
        PUBLIC Double_SimpleDesc
        PUBLIC Double_TaskID
        PUBLIC Double_TransID
        PUBLIC Double_epDesc
        PUBWEAK _A_P1
        PUBLIC fDouble
        
        CFI Names cfiNames0
        CFI StackFrame CFA_SP SP IDATA
        CFI StackFrame CFA_PSP16 PSP16 XDATA
        CFI StackFrame CFA_XSP16 XSP16 XDATA
        CFI StaticOverlayFrame CFA_IOVERLAY IOVERLAY
        CFI StaticOverlayFrame CFA_DOVERLAY DOVERLAY
        CFI Resource `PSW.CY`:1, `B.BR0`:1, `B.BR1`:1, `B.BR2`:1, `B.BR3`:1
        CFI Resource `B.BR4`:1, `B.BR5`:1, `B.BR6`:1, `B.BR7`:1, `VB.BR8`:1
        CFI Resource `VB.BR9`:1, `VB.BR10`:1, `VB.BR11`:1, `VB.BR12`:1
        CFI Resource `VB.BR13`:1, `VB.BR14`:1, `VB.BR15`:1, VB:8, B:8, A:8
        CFI Resource PSW:8, DPL0:8, DPH0:8, R0:8, R1:8, R2:8, R3:8, R4:8, R5:8
        CFI Resource R6:8, R7:8, V0:8, V1:8, V2:8, V3:8, V4:8, V5:8, V6:8, V7:8
        CFI Resource V8:8, V9:8, V10:8, V11:8, V12:8, V13:8, V14:8, V15:8, SP:8
        CFI Resource PSPH:8, PSPL:8, PSP16:16, XSPH:8, XSPL:8, XSP16:16
        CFI VirtualResource ?RET:24
        CFI Resource ?BRET_EXT:8
        CFI VirtualResource ?RET_HIGH:8, ?RET_LOW:8
        CFI ResourceParts PSP16 PSPH, PSPL
        CFI ResourceParts XSP16 XSPH, XSPL
        CFI ResourceParts ?RET ?BRET_EXT, ?RET_HIGH, ?RET_LOW
        CFI EndNames cfiNames0
        
        CFI Common cfiCommon0 Using cfiNames0
        CFI CodeAlign 1
        CFI DataAlign -1
        CFI ReturnAddress ?RET CODE
        CFI CFA_DOVERLAY Used
        CFI CFA_IOVERLAY Used
        CFI CFA_SP SP+-3
        CFI CFA_PSP16 PSP16+0
        CFI CFA_XSP16 XSP16+0
        CFI `PSW.CY` SameValue
        CFI `B.BR0` SameValue
        CFI `B.BR1` SameValue
        CFI `B.BR2` SameValue
        CFI `B.BR3` SameValue
        CFI `B.BR4` SameValue
        CFI `B.BR5` SameValue
        CFI `B.BR6` SameValue
        CFI `B.BR7` SameValue
        CFI `VB.BR8` SameValue
        CFI `VB.BR9` SameValue
        CFI `VB.BR10` SameValue
        CFI `VB.BR11` SameValue
        CFI `VB.BR12` SameValue
        CFI `VB.BR13` SameValue
        CFI `VB.BR14` SameValue
        CFI `VB.BR15` SameValue
        CFI VB SameValue
        CFI B Undefined
        CFI A Undefined
        CFI PSW SameValue
        CFI DPL0 SameValue
        CFI DPH0 SameValue
        CFI R0 Undefined
        CFI R1 Undefined
        CFI R2 Undefined
        CFI R3 Undefined
        CFI R4 Undefined
        CFI R5 Undefined
        CFI R6 SameValue
        CFI R7 SameValue
        CFI V0 SameValue
        CFI V1 SameValue
        CFI V2 SameValue
        CFI V3 SameValue
        CFI V4 SameValue
        CFI V5 SameValue
        CFI V6 SameValue
        CFI V7 SameValue
        CFI V8 SameValue
        CFI V9 SameValue
        CFI V10 SameValue
        CFI V11 SameValue
        CFI V12 SameValue
        CFI V13 SameValue
        CFI V14 SameValue
        CFI V15 SameValue
        CFI PSPH Undefined
        CFI PSPL Undefined
        CFI XSPH Undefined
        CFI XSPL Undefined
        CFI ?RET Concat
        CFI ?BRET_EXT Frame(CFA_SP, 3)
        CFI ?RET_HIGH Frame(CFA_SP, 2)
        CFI ?RET_LOW Frame(CFA_SP, 1)
        CFI EndCommon cfiCommon0
        
        
        CFI Common cfiCommon1 Using cfiNames0
        CFI CodeAlign 1
        CFI DataAlign -1
        CFI ReturnAddress ?RET CODE
        CFI CFA_DOVERLAY Used
        CFI CFA_IOVERLAY Used
        CFI CFA_SP SP+-2
        CFI CFA_PSP16 PSP16+0
        CFI CFA_XSP16 XSP16+0
        CFI `PSW.CY` SameValue
        CFI `B.BR0` SameValue
        CFI `B.BR1` SameValue
        CFI `B.BR2` SameValue
        CFI `B.BR3` SameValue
        CFI `B.BR4` SameValue
        CFI `B.BR5` SameValue
        CFI `B.BR6` SameValue
        CFI `B.BR7` SameValue
        CFI `VB.BR8` SameValue
        CFI `VB.BR9` SameValue
        CFI `VB.BR10` SameValue
        CFI `VB.BR11` SameValue
        CFI `VB.BR12` SameValue
        CFI `VB.BR13` SameValue
        CFI `VB.BR14` SameValue
        CFI `VB.BR15` SameValue
        CFI VB SameValue
        CFI B SameValue
        CFI A SameValue
        CFI PSW SameValue
        CFI DPL0 SameValue
        CFI DPH0 SameValue
        CFI R0 SameValue
        CFI R1 SameValue
        CFI R2 SameValue
        CFI R3 SameValue
        CFI R4 SameValue
        CFI R5 SameValue
        CFI R6 SameValue
        CFI R7 SameValue
        CFI V0 SameValue
        CFI V1 SameValue
        CFI V2 SameValue
        CFI V3 SameValue
        CFI V4 SameValue
        CFI V5 SameValue
        CFI V6 SameValue
        CFI V7 SameValue
        CFI V8 SameValue
        CFI V9 SameValue
        CFI V10 SameValue
        CFI V11 SameValue
        CFI V12 SameValue
        CFI V13 SameValue
        CFI V14 SameValue
        CFI V15 SameValue
        CFI PSPH Undefined
        CFI PSPL Undefined
        CFI XSPH Undefined
        CFI XSPL Undefined
        CFI ?RET Concat
        CFI ?BRET_EXT SameValue
        CFI ?RET_HIGH Frame(CFA_SP, 2)
        CFI ?RET_LOW Frame(CFA_SP, 1)
        CFI EndCommon cfiCommon1
        
afRegister          SYMBOL "afRegister"
RegisterForKeys     SYMBOL "RegisterForKeys"
HalLcdWriteString   SYMBOL "HalLcdWriteString"
ZDO_RegisterForZDOMsg SYMBOL "ZDO_RegisterForZDOMsg"
osal_msg_receive    SYMBOL "osal_msg_receive"
osal_msg_deallocate SYMBOL "osal_msg_deallocate"
ZDO_ParseEPListRsp  SYMBOL "ZDO_ParseEPListRsp"
osal_mem_free       SYMBOL "osal_mem_free"
NLME_GetShortAddr   SYMBOL "NLME_GetShortAddr"
ZDP_EndDeviceBindReq SYMBOL "ZDP_EndDeviceBindReq"
ZDP_MatchDescReq    SYMBOL "ZDP_MatchDescReq"
_ltoa               SYMBOL "_ltoa"
osal_strlen         SYMBOL "osal_strlen"
AF_DataRequest      SYMBOL "AF_DataRequest"
osal_start_timerEx  SYMBOL "osal_start_timerEx"
osal_memcpy         SYMBOL "osal_memcpy"
HalLcdWriteScreen   SYMBOL "HalLcdWriteScreen"
??AF_DataRequest?relay SYMBOL "?relay", AF_DataRequest
??HalLcdWriteScreen?relay SYMBOL "?relay", HalLcdWriteScreen
??HalLcdWriteString?relay SYMBOL "?relay", HalLcdWriteString
??NLME_GetShortAddr?relay SYMBOL "?relay", NLME_GetShortAddr
??RegisterForKeys?relay SYMBOL "?relay", RegisterForKeys
??ZDO_ParseEPListRsp?relay SYMBOL "?relay", ZDO_ParseEPListRsp
??ZDO_RegisterForZDOMsg?relay SYMBOL "?relay", ZDO_RegisterForZDOMsg
??ZDP_EndDeviceBindReq?relay SYMBOL "?relay", ZDP_EndDeviceBindReq
??ZDP_MatchDescReq?relay SYMBOL "?relay", ZDP_MatchDescReq
??_ltoa?relay       SYMBOL "?relay", _ltoa
??afRegister?relay  SYMBOL "?relay", afRegister
??osal_mem_free?relay SYMBOL "?relay", osal_mem_free
??osal_memcpy?relay SYMBOL "?relay", osal_memcpy
??osal_msg_deallocate?relay SYMBOL "?relay", osal_msg_deallocate
??osal_msg_receive?relay SYMBOL "?relay", osal_msg_receive
??osal_start_timerEx?relay SYMBOL "?relay", osal_start_timerEx
??osal_strlen?relay SYMBOL "?relay", osal_strlen
DoubleMeasurement_Init SYMBOL "DoubleMeasurement_Init"
??DoubleMeasurement_Init?relay SYMBOL "?relay", DoubleMeasurement_Init
DoubleMeasurement_ProcessEvent SYMBOL "DoubleMeasurement_ProcessEvent"
??DoubleMeasurement_ProcessEvent?relay SYMBOL "?relay", DoubleMeasurement_ProcessEvent
Double_Init         SYMBOL "Double_Init"
??Double_Init?relay SYMBOL "?relay", Double_Init
Double_ProcessEvent SYMBOL "Double_ProcessEvent"
??Double_ProcessEvent?relay SYMBOL "?relay", Double_ProcessEvent

        EXTERN afRegister
        FUNCTION afRegister,0202H
        ARGFRAME ISTACK, 0, STACK
        ARGFRAME PSTACK, 0, STACK
        ARGFRAME XSTACK, 9, STACK
        ARGFRAME IOVERLAY, 0, STATIC
        ARGFRAME DOVERLAY, 0, STATIC
        EXTERN RegisterForKeys
        FUNCTION RegisterForKeys,0202H
        ARGFRAME ISTACK, 0, STACK
        ARGFRAME PSTACK, 0, STACK
        ARGFRAME XSTACK, 9, STACK
        ARGFRAME IOVERLAY, 0, STATIC
        ARGFRAME DOVERLAY, 0, STATIC
        EXTERN HalLcdWriteString
        FUNCTION HalLcdWriteString,0202H
        ARGFRAME ISTACK, 0, STACK
        ARGFRAME PSTACK, 0, STACK
        ARGFRAME XSTACK, 9, STACK
        ARGFRAME IOVERLAY, 0, STATIC
        ARGFRAME DOVERLAY, 0, STATIC
        EXTERN ZDO_RegisterForZDOMsg
        FUNCTION ZDO_RegisterForZDOMsg,0202H
        ARGFRAME ISTACK, 0, STACK
        ARGFRAME PSTACK, 0, STACK
        ARGFRAME XSTACK, 9, STACK
        ARGFRAME IOVERLAY, 0, STATIC
        ARGFRAME DOVERLAY, 0, STATIC
        EXTERN osal_msg_receive
        FUNCTION osal_msg_receive,0202H
        ARGFRAME ISTACK, 0, STACK
        ARGFRAME PSTACK, 0, STACK
        ARGFRAME XSTACK, 38, STACK
        ARGFRAME IOVERLAY, 0, STATIC
        ARGFRAME DOVERLAY, 0, STATIC
        EXTERN osal_msg_deallocate
        FUNCTION osal_msg_deallocate,0202H
        ARGFRAME ISTACK, 0, STACK
        ARGFRAME PSTACK, 0, STACK
        ARGFRAME XSTACK, 38, STACK
        ARGFRAME IOVERLAY, 0, STATIC
        ARGFRAME DOVERLAY, 0, STATIC
        EXTERN ZDO_ParseEPListRsp
        FUNCTION ZDO_ParseEPListRsp,0202H
        ARGFRAME ISTACK, 0, STACK
        ARGFRAME PSTACK, 0, STACK
        ARGFRAME XSTACK, 38, STACK
        ARGFRAME IOVERLAY, 0, STATIC
        ARGFRAME DOVERLAY, 0, STATIC
        EXTERN osal_mem_free
        FUNCTION osal_mem_free,0202H
        ARGFRAME ISTACK, 0, STACK
        ARGFRAME PSTACK, 0, STACK
        ARGFRAME XSTACK, 38, STACK
        ARGFRAME IOVERLAY, 0, STATIC
        ARGFRAME DOVERLAY, 0, STATIC
        EXTERN NLME_GetShortAddr
        FUNCTION NLME_GetShortAddr,0202H
        ARGFRAME ISTACK, 0, STACK
        ARGFRAME PSTACK, 0, STACK
        ARGFRAME XSTACK, 38, STACK
        ARGFRAME IOVERLAY, 0, STATIC
        ARGFRAME DOVERLAY, 0, STATIC
        EXTERN ZDP_EndDeviceBindReq
        FUNCTION ZDP_EndDeviceBindReq,0202H
        ARGFRAME ISTACK, 0, STACK
        ARGFRAME PSTACK, 0, STACK
        ARGFRAME XSTACK, 47, STACK
        ARGFRAME IOVERLAY, 0, STATIC
        ARGFRAME DOVERLAY, 0, STATIC
        EXTERN ZDP_MatchDescReq
        FUNCTION ZDP_MatchDescReq,0202H
        ARGFRAME ISTACK, 0, STACK
        ARGFRAME PSTACK, 0, STACK
        ARGFRAME XSTACK, 46, STACK
        ARGFRAME IOVERLAY, 0, STATIC
        ARGFRAME DOVERLAY, 0, STATIC
        EXTERN _ltoa
        FUNCTION _ltoa,0202H
        ARGFRAME ISTACK, 0, STACK
        ARGFRAME PSTACK, 0, STACK
        ARGFRAME XSTACK, 40, STACK
        ARGFRAME IOVERLAY, 0, STATIC
        ARGFRAME DOVERLAY, 0, STATIC
        EXTERN osal_strlen
        FUNCTION osal_strlen,0202H
        ARGFRAME ISTACK, 0, STACK
        ARGFRAME PSTACK, 0, STACK
        ARGFRAME XSTACK, 43, STACK
        ARGFRAME IOVERLAY, 0, STATIC
        ARGFRAME DOVERLAY, 0, STATIC
        EXTERN AF_DataRequest
        FUNCTION AF_DataRequest,0202H
        ARGFRAME ISTACK, 0, STACK
        ARGFRAME PSTACK, 0, STACK
        ARGFRAME XSTACK, 47, STACK
        ARGFRAME IOVERLAY, 0, STATIC
        ARGFRAME DOVERLAY, 0, STATIC
        EXTERN osal_start_timerEx
        FUNCTION osal_start_timerEx,0202H
        ARGFRAME ISTACK, 0, STACK
        ARGFRAME PSTACK, 0, STACK
        ARGFRAME XSTACK, 38, STACK
        ARGFRAME IOVERLAY, 0, STATIC
        ARGFRAME DOVERLAY, 0, STATIC
        EXTERN osal_memcpy
        FUNCTION osal_memcpy,0202H
        ARGFRAME ISTACK, 0, STACK
        ARGFRAME PSTACK, 0, STACK
        ARGFRAME XSTACK, 15, STACK
        ARGFRAME IOVERLAY, 0, STATIC
        ARGFRAME DOVERLAY, 0, STATIC
        EXTERN HalLcdWriteScreen
        FUNCTION HalLcdWriteScreen,0202H
        ARGFRAME ISTACK, 0, STACK
        ARGFRAME PSTACK, 0, STACK
        ARGFRAME XSTACK, 12, STACK
        ARGFRAME IOVERLAY, 0, STATIC
        ARGFRAME DOVERLAY, 0, STATIC
        EXTERN ??AF_DataRequest?relay
        FUNCTION ??AF_DataRequest?relay,00H
        EXTERN ??HalLcdWriteScreen?relay
        FUNCTION ??HalLcdWriteScreen?relay,00H
        EXTERN ??HalLcdWriteString?relay
        FUNCTION ??HalLcdWriteString?relay,00H
        EXTERN ??NLME_GetShortAddr?relay
        FUNCTION ??NLME_GetShortAddr?relay,00H
        EXTERN ??RegisterForKeys?relay
        FUNCTION ??RegisterForKeys?relay,00H
        EXTERN ??ZDO_ParseEPListRsp?relay
        FUNCTION ??ZDO_ParseEPListRsp?relay,00H
        EXTERN ??ZDO_RegisterForZDOMsg?relay
        FUNCTION ??ZDO_RegisterForZDOMsg?relay,00H
        EXTERN ??ZDP_EndDeviceBindReq?relay
        FUNCTION ??ZDP_EndDeviceBindReq?relay,00H
        EXTERN ??ZDP_MatchDescReq?relay
        FUNCTION ??ZDP_MatchDescReq?relay,00H
        EXTERN ??_ltoa?relay
        FUNCTION ??_ltoa?relay,00H
        EXTERN ??afRegister?relay
        FUNCTION ??afRegister?relay,00H
        EXTERN ??osal_mem_free?relay
        FUNCTION ??osal_mem_free?relay,00H
        EXTERN ??osal_memcpy?relay
        FUNCTION ??osal_memcpy?relay,00H
        EXTERN ??osal_msg_deallocate?relay
        FUNCTION ??osal_msg_deallocate?relay,00H
        EXTERN ??osal_msg_receive?relay
        FUNCTION ??osal_msg_receive?relay,00H
        EXTERN ??osal_start_timerEx?relay
        FUNCTION ??osal_start_timerEx?relay,00H
        EXTERN ??osal_strlen?relay
        FUNCTION ??osal_strlen?relay,00H

// C:\Users\OurEDA\Documents\Tencent Files\1534143789\FileRecv\ZStack-CC2530-2.5.1a\ZStack-CC2530-2.5.1a\Projects\zstack\Samples\08Double_ENDDB\Source\Double.c
//    1 /******************************************************************************
//    2   Filename:       Double.c
//    3   Revised:        $Date: 2012-03-07 01:04:58 -0800 (Wed, 07 Mar 2012) $
//    4   Revision:       $Revision: 29656 $
//    5 
//    6   Description:    Generic Application (no Profile).
//    7 
//    8 
//    9   Copyright 2004-2012 Texas Instruments Incorporated. All rights reserved.
//   10 
//   11   IMPORTANT: Your use of this Software is limited to those specific rights
//   12   granted under the terms of a software license agreement between the user
//   13   who downloaded the software, his/her employer (which must be your employer)
//   14   and Texas Instruments Incorporated (the "License"). You may not use this
//   15   Software unless you agree to abide by the terms of the License. The License
//   16   limits your use, and you acknowledge, that the Software may not be modified,
//   17   copied or distributed unless embedded on a Texas Instruments microcontroller
//   18   or used solely and exclusively in conjunction with a Texas Instruments radio
//   19   frequency transceiver, which is integrated into your product. Other than for
//   20   the foregoing purpose, you may not use, reproduce, copy, prepare derivative
//   21   works of, modify, distribute, perform, display or sell this Software and/or
//   22   its documentation for any purpose.
//   23 
//   24   YOU FURTHER ACKNOWLEDGE AND AGREE THAT THE SOFTWARE AND DOCUMENTATION ARE
//   25   PROVIDED “AS IS?WITHOUT WARRANTY OF ANY KIND, EITHER EXPRESS OR IMPLIED,
//   26   INCLUDING WITHOUT LIMITATION, ANY WARRANTY OF MERCHANTABILITY, TITLE,
//   27   NON-INFRINGEMENT AND FITNESS FOR A PARTICULAR PURPOSE. IN NO EVENT SHALL
//   28   TEXAS INSTRUMENTS OR ITS LICENSORS BE LIABLE OR OBLIGATED UNDER CONTRACT,
//   29   NEGLIGENCE, STRICT LIABILITY, CONTRIBUTION, BREACH OF WARRANTY, OR OTHER
//   30   LEGAL EQUITABLE THEORY ANY DIRECT OR INDIRECT DAMAGES OR EXPENSES
//   31   INCLUDING BUT NOT LIMITED TO ANY INCIDENTAL, SPECIAL, INDIRECT, PUNITIVE
//   32   OR CONSEQUENTIAL DAMAGES, LOST PROFITS OR LOST DATA, COST OF PROCUREMENT
//   33   OF SUBSTITUTE GOODS, TECHNOLOGY, SERVICES, OR ANY CLAIMS BY THIRD PARTIES
//   34   (INCLUDING BUT NOT LIMITED TO ANY DEFENSE THEREOF), OR OTHER SIMILAR COSTS.
//   35 
//   36   Should you have any questions regarding your right to use this Software,
//   37   contact Texas Instruments Incorporated at www.TI.com.
//   38 ******************************************************************************/
//   39 
//   40 /*********************************************************************
//   41   This application isn't intended to do anything useful, it is
//   42   intended to be a simple example of an application's structure.
//   43 
//   44   This application sends "Hello World" to another "Generic"
//   45   application every 5 seconds.  The application will also
//   46   receives "Hello World" packets.
//   47 
//   48   The "Hello World" messages are sent/received as MSG type message.
//   49 
//   50   This applications doesn't have a profile, so it handles everything
//   51   directly - itself.
//   52 
//   53   Key control:
//   54     SW1:
//   55     SW2:  initiates end device binding
//   56     SW3:
//   57     SW4:  initiates a match description request
//   58 *********************************************************************/
//   59 
//   60 /*********************************************************************
//   61  * INCLUDES
//   62  */
//   63 #include "OSAL.h"
//   64 #include "AF.h"
//   65 #include "ZDApp.h"
//   66 #include "ZDObject.h"
//   67 #include "ZDProfile.h"
//   68 
//   69 #include "Double.h"
//   70 #include "DebugTrace.h"
//   71 
//   72 
//   73 #if !defined( WIN32 )
//   74   #include "OnBoard.h"

        ASEGN SFR_AN:DATA:NOROOT,090H
// union <unnamed> volatile __sfr _A_P1
_A_P1:
        DATA8
        DS 1
//   75 #endif
//   76 
//   77 /* HAL */
//   78 #include "hal_lcd.h"
//   79 #include "hal_led.h"
//   80 #include "hal_key.h"
//   81 #include "hal_uart.h"
//   82 
//   83 /* RTOS */
//   84 #if defined( IAR_ARMCM3_LM )
//   85 #include "RTOS_App.h"
//   86 #endif  
//   87 
//   88 /*********************************************************************
//   89  * MACROS
//   90  */
//   91 
//   92 /*********************************************************************
//   93  * CONSTANTS
//   94  */
//   95 
//   96 /*********************************************************************
//   97  * TYPEDEFS
//   98  */
//   99 
//  100 /*********************************************************************
//  101  * GLOBAL VARIABLES
//  102  */
//  103 // This list should be filled with Application specific Cluster IDs.

        RSEG XDATA_ROM_C:CONST:REORDER:NOROOT(0)
        DATA16
//  104 const cId_t Double_ClusterList[Double_MAX_CLUSTERS] =
Double_ClusterList:
        DW 8
//  105 {
//  106   Double_CLUSTERID
//  107 };
//  108 

        RSEG XDATA_ROM_C:CONST:REORDER:NOROOT(0)
        DATA8
//  109 const SimpleDescriptionFormat_t Double_SimpleDesc =
Double_SimpleDesc:
        DB 10
        DATA16
        DW 3844
        DW 1
        DATA8
        DB 0
        DB 1
        DATA16
        DW Double_ClusterList
        DATA8
        DB 1
        DATA16
        DW Double_ClusterList
//  110 {
//  111   Double_ENDPOINT,              //  int Endpoint;
//  112   Double_PROFID,                //  uint16 AppProfId[2];
//  113   Double_DEVICEID,              //  uint16 AppDeviceId[2];
//  114   Double_DEVICE_VERSION,        //  int   AppDevVer:4;
//  115   Double_FLAGS,                 //  int   AppFlags:4;
//  116   Double_MAX_CLUSTERS,          //  byte  AppNumInClusters;
//  117   (cId_t *)Double_ClusterList,  //  byte *pAppInClusterList;
//  118   Double_MAX_CLUSTERS,          //  byte  AppNumInClusters;
//  119   (cId_t *)Double_ClusterList   //  byte *pAppInClusterList;
//  120 };
//  121 
//  122 // This is the Endpoint/Interface description.  It is defined here, but
//  123 // filled-in in Double_Init().  Another way to go would be to fill
//  124 // in the structure here and make it a "const" (in code space).  The
//  125 // way it's defined in this sample app it is define in RAM.

        RSEG XDATA_Z:XDATA:NOROOT(0)
        DATA8
//  126 endPointDesc_t Double_epDesc;
Double_epDesc:
        DS 6
        REQUIRE __INIT_XDATA_Z
//  127 
//  128 /*********************************************************************
//  129  * EXTERNAL VARIABLES
//  130  */
//  131 
//  132 /*********************************************************************
//  133  * EXTERNAL FUNCTIONS
//  134  */
//  135 
//  136 /*********************************************************************
//  137  * LOCAL VARIABLES
//  138  */

        RSEG XDATA_Z:XDATA:NOROOT(0)
        DATA8
//  139 byte Double_TaskID;   // Task ID for internal task/event processing
Double_TaskID:
        DS 1
        REQUIRE __INIT_XDATA_Z
//  140                           // This variable will be received when
//  141                           // Double_Init() is called.

        RSEG XDATA_Z:XDATA:NOROOT(0)
        DATA8
//  142 devStates_t Double_NwkState;
Double_NwkState:
        DS 1
        REQUIRE __INIT_XDATA_Z
//  143 
//  144 

        RSEG XDATA_Z:XDATA:NOROOT(0)
        DATA8
//  145 byte Double_TransID;  // This is the unique message ID (counter)
Double_TransID:
        DS 1
        REQUIRE __INIT_XDATA_Z
//  146 

        RSEG XDATA_Z:XDATA:NOROOT(0)
        DATA8
//  147 afAddrType_t Double_DstAddr;
Double_DstAddr:
        DS 12
        REQUIRE __INIT_XDATA_Z
//  148 

        RSEG XDATA_Z:XDATA:NOROOT(0)
        DATA8
//  149 byte DoubleMeasurement_TaskID;
DoubleMeasurement_TaskID:
        DS 1
        REQUIRE __INIT_XDATA_Z

        RSEG XDATA_Z:XDATA:NOROOT(0)
        DATA8
//  150 devStates_t DoubleMeasurement_NwkState;
DoubleMeasurement_NwkState:
        DS 1
        REQUIRE __INIT_XDATA_Z

        RSEG XDATA_Z:XDATA:NOROOT(0)
        DATA8
//  151 byte DoubleMeasurement_TransID;
DoubleMeasurement_TransID:
        DS 1
        REQUIRE __INIT_XDATA_Z
//  152 

        RSEG XDATA_Z:XDATA:NOROOT(0)
        DATA32
//  153 float fDouble;
fDouble:
        DS 4
        REQUIRE __INIT_XDATA_Z
//  154 
//  155 /*********************************************************************
//  156  * LOCAL FUNCTIONS
//  157  */
//  158 static void Double_ProcessZDOMsgs( zdoIncomingMsg_t *inMsg );
//  159 static void Double_HandleKeys( byte shift, byte keys );
//  160 static void Double_MessageMSGCB( afIncomingMSGPacket_t *pckt );
//  161 static void Double_SendTheMessage( void );
//  162 
//  163 #if defined( IAR_ARMCM3_LM )
//  164 static void Double_ProcessRtosMessage( void );
//  165 #endif
//  166 
//  167 /*********************************************************************
//  168  * NETWORK LAYER CALLBACKS
//  169  */
//  170 
//  171 /*********************************************************************
//  172  * PUBLIC FUNCTIONS
//  173  */
//  174 
//  175 /*********************************************************************
//  176  * @fn      Double_Init
//  177  *
//  178  * @brief   Initialization function for the Generic App Task.
//  179  *          This is called during initialization and should contain
//  180  *          any application specific initialization (ie. hardware
//  181  *          initialization/setup, table initialization, power up
//  182  *          notificaiton ... ).
//  183  *
//  184  * @param   task_id - the ID assigned by OSAL.  This ID should be
//  185  *                    used to send messages and set timers.
//  186  *
//  187  * @return  none
//  188  */

        RSEG BANKED_CODE:CODE:NOROOT(0)
//  189 void Double_Init( uint8 task_id )
Double_Init:
        CFI Block cfiBlock0 Using cfiCommon0
        CFI Function Double_Init
        CODE
//  190 {
        FUNCALL Double_Init, afRegister
        LOCFRAME ISTACK, 0, STACK
        LOCFRAME PSTACK, 0, STACK
        LOCFRAME XSTACK, 9, STACK
        LOCFRAME IOVERLAY, 0, STATIC
        LOCFRAME DOVERLAY, 0, STATIC
        ARGFRAME ISTACK, 0, STACK
        ARGFRAME PSTACK, 0, STACK
        ARGFRAME XSTACK, 9, STACK
        ARGFRAME IOVERLAY, 0, STATIC
        ARGFRAME DOVERLAY, 0, STATIC
        FUNCALL Double_Init, RegisterForKeys
        LOCFRAME ISTACK, 0, STACK
        LOCFRAME PSTACK, 0, STACK
        LOCFRAME XSTACK, 9, STACK
        LOCFRAME IOVERLAY, 0, STATIC
        LOCFRAME DOVERLAY, 0, STATIC
        ARGFRAME ISTACK, 0, STACK
        ARGFRAME PSTACK, 0, STACK
        ARGFRAME XSTACK, 9, STACK
        ARGFRAME IOVERLAY, 0, STATIC
        ARGFRAME DOVERLAY, 0, STATIC
        FUNCALL Double_Init, HalLcdWriteString
        LOCFRAME ISTACK, 0, STACK
        LOCFRAME PSTACK, 0, STACK
        LOCFRAME XSTACK, 9, STACK
        LOCFRAME IOVERLAY, 0, STATIC
        LOCFRAME DOVERLAY, 0, STATIC
        ARGFRAME ISTACK, 0, STACK
        ARGFRAME PSTACK, 0, STACK
        ARGFRAME XSTACK, 9, STACK
        ARGFRAME IOVERLAY, 0, STATIC
        ARGFRAME DOVERLAY, 0, STATIC
        FUNCALL Double_Init, ZDO_RegisterForZDOMsg
        LOCFRAME ISTACK, 0, STACK
        LOCFRAME PSTACK, 0, STACK
        LOCFRAME XSTACK, 9, STACK
        LOCFRAME IOVERLAY, 0, STATIC
        LOCFRAME DOVERLAY, 0, STATIC
        ARGFRAME ISTACK, 0, STACK
        ARGFRAME PSTACK, 0, STACK
        ARGFRAME XSTACK, 9, STACK
        ARGFRAME IOVERLAY, 0, STATIC
        ARGFRAME DOVERLAY, 0, STATIC
        FUNCALL Double_Init, ZDO_RegisterForZDOMsg
        LOCFRAME ISTACK, 0, STACK
        LOCFRAME PSTACK, 0, STACK
        LOCFRAME XSTACK, 9, STACK
        LOCFRAME IOVERLAY, 0, STATIC
        LOCFRAME DOVERLAY, 0, STATIC
        ARGFRAME ISTACK, 0, STACK
        ARGFRAME PSTACK, 0, STACK
        ARGFRAME XSTACK, 9, STACK
        ARGFRAME IOVERLAY, 0, STATIC
        ARGFRAME DOVERLAY, 0, STATIC
        MOV     A,#-0x9
        LCALL   ?BANKED_ENTER_XDATA
        CFI DPH0 load(1, XDATA, add(CFA_XSP16, literal(-1)))
        CFI DPL0 load(1, XDATA, add(CFA_XSP16, literal(-2)))
        CFI ?BRET_EXT load(1, XDATA, add(CFA_XSP16, literal(-3)))
        CFI ?RET_HIGH load(1, XDATA, add(CFA_XSP16, literal(-4)))
        CFI ?RET_LOW load(1, XDATA, add(CFA_XSP16, literal(-5)))
        CFI R7 load(1, XDATA, add(CFA_XSP16, literal(-6)))
        CFI V0 load(1, XDATA, add(CFA_XSP16, literal(-7)))
        CFI VB load(1, XDATA, add(CFA_XSP16, literal(-8)))
        CFI R6 load(1, XDATA, add(CFA_XSP16, literal(-9)))
        CFI CFA_SP SP+0
        CFI CFA_XSP16 add(XSP16, 9)
        ; Saved register size: 9
        ; Auto size: 0
        MOV     A,R1
//  191   Double_TaskID = task_id;
        MOV     DPTR,#Double_TaskID
        MOVX    @DPTR,A
//  192   Double_NwkState = DEV_INIT;
        MOV     DPTR,#Double_NwkState
        MOV     A,#0x1
        MOVX    @DPTR,A
//  193   Double_TransID = 0;
        MOV     DPTR,#Double_TransID
        CLR     A
        MOVX    @DPTR,A
//  194 
//  195   // Device hardware initialization can be added here or in main() (Zmain.c).
//  196   // If the hardware is application specific - add it here.
//  197   // If the hardware is other parts of the device add it in main().
//  198 
//  199   Double_DstAddr.addrMode = (afAddrMode_t)AddrNotPresent;
        MOV     DPTR,#Double_DstAddr + 8
        MOVX    @DPTR,A
//  200   Double_DstAddr.endPoint = 0;
        INC     DPTR
        MOVX    @DPTR,A
//  201   Double_DstAddr.addr.shortAddr = 0;
        MOV     DPTR,#Double_DstAddr
        MOVX    @DPTR,A
        INC     DPTR
        MOVX    @DPTR,A
//  202 
//  203   // Fill out the endpoint description.
//  204   Double_epDesc.endPoint = Double_ENDPOINT;
        MOV     DPTR,#Double_epDesc
        MOV     A,#0xa
        MOVX    @DPTR,A
//  205   Double_epDesc.task_id = &Double_TaskID;
        INC     DPTR
        MOV     A,#Double_TaskID & 0xff
        MOVX    @DPTR,A
        INC     DPTR
        MOV     A,#(Double_TaskID >> 8) & 0xff
        MOVX    @DPTR,A
//  206   Double_epDesc.simpleDesc
//  207             = (SimpleDescriptionFormat_t *)&Double_SimpleDesc;
        INC     DPTR
        MOV     A,#Double_SimpleDesc & 0xff
        MOVX    @DPTR,A
        INC     DPTR
        MOV     A,#(Double_SimpleDesc >> 8) & 0xff
        MOVX    @DPTR,A
//  208   Double_epDesc.latencyReq = noLatencyReqs;
        INC     DPTR
        CLR     A
        MOVX    @DPTR,A
//  209 
//  210   // Register the endpoint description with the AF
//  211   afRegister( &Double_epDesc );
        ; Setup parameters for call to function afRegister
        MOV     R2,#Double_epDesc & 0xff
        MOV     R3,#(Double_epDesc >> 8) & 0xff
        LCALL   ??afRegister?relay
//  212 
//  213   // Register for all key events - This app will handle all key events
//  214   RegisterForKeys( Double_TaskID );
        ; Setup parameters for call to function RegisterForKeys
        MOV     DPTR,#Double_TaskID
        MOVX    A,@DPTR
        MOV     R1,A
        LCALL   ??RegisterForKeys?relay
//  215 
//  216   // Update the display
//  217 #if defined ( LCD_SUPPORTED )
//  218   HalLcdWriteString( "Double", HAL_LCD_LINE_1 );
        ; Setup parameters for call to function HalLcdWriteString
        MOV     R1,#0x1
        MOV     R2,#`?<Constant "Double">` & 0xff
        MOV     R3,#(`?<Constant "Double">` >> 8) & 0xff
        LCALL   ??HalLcdWriteString?relay
//  219 #endif
//  220 
//  221   ZDO_RegisterForZDOMsg( Double_TaskID, End_Device_Bind_rsp );
        ; Setup parameters for call to function ZDO_RegisterForZDOMsg
        MOV     R2,#0x20
        MOV     R3,#-0x80
        MOV     DPTR,#Double_TaskID
        MOVX    A,@DPTR
        MOV     R1,A
        LCALL   ??ZDO_RegisterForZDOMsg?relay
//  222   ZDO_RegisterForZDOMsg( Double_TaskID, Match_Desc_rsp );
        ; Setup parameters for call to function ZDO_RegisterForZDOMsg
        MOV     R2,#0x6
        MOV     R3,#-0x80
        MOV     DPTR,#Double_TaskID
        MOVX    A,@DPTR
        MOV     R1,A
        LCALL   ??ZDO_RegisterForZDOMsg?relay
        CFI EndBlock cfiBlock0
//  223 
//  224 #if defined( IAR_ARMCM3_LM )
//  225   // Register this task with RTOS task initiator
//  226   RTOS_RegisterApp( task_id, Double_RTOS_MSG_EVT );
//  227 #endif
//  228 }
        REQUIRE ?Subroutine0
        ; // Fall through to label ?Subroutine0

        RSEG BANKED_CODE:CODE:NOROOT(0)
?Subroutine0:
        CFI Block cfiBlock1 Using cfiCommon0
        CFI NoFunction
        CFI CFA_SP SP+0
        CFI CFA_XSP16 add(XSP16, 9)
        CFI VB load(1, XDATA, add(CFA_XSP16, literal(-8)))
        CFI DPL0 load(1, XDATA, add(CFA_XSP16, literal(-2)))
        CFI DPH0 load(1, XDATA, add(CFA_XSP16, literal(-1)))
        CFI R6 load(1, XDATA, add(CFA_XSP16, literal(-9)))
        CFI R7 load(1, XDATA, add(CFA_XSP16, literal(-6)))
        CFI V0 load(1, XDATA, add(CFA_XSP16, literal(-7)))
        CFI ?BRET_EXT load(1, XDATA, add(CFA_XSP16, literal(-3)))
        CFI ?RET_HIGH load(1, XDATA, add(CFA_XSP16, literal(-4)))
        CFI ?RET_LOW load(1, XDATA, add(CFA_XSP16, literal(-5)))
        MOV     R7,#0x1
        LJMP    ?BANKED_LEAVE_XDATA
        CFI EndBlock cfiBlock1
//  229 
//  230 /*********************************************************************
//  231  * @fn      Double_ProcessEvent
//  232  *
//  233  * @brief   Generic Application Task event processor.  This function
//  234  *          is called to process all events for the task.  Events
//  235  *          include timers, messages and any other user defined events.
//  236  *
//  237  * @param   task_id  - The OSAL assigned task ID.
//  238  * @param   events - events to process.  This is a bit map and can
//  239  *                   contain more than one event.
//  240  *
//  241  * @return  none
//  242  */

        RSEG BANKED_CODE:CODE:NOROOT(0)
//  243 uint16 Double_ProcessEvent( uint8 task_id, uint16 events )
Double_ProcessEvent:
        CFI Block cfiBlock2 Using cfiCommon0
        CFI Function Double_ProcessEvent
        CODE
//  244 {
        FUNCALL Double_ProcessEvent, osal_msg_receive
        LOCFRAME ISTACK, 0, STACK
        LOCFRAME PSTACK, 0, STACK
        LOCFRAME XSTACK, 38, STACK
        LOCFRAME IOVERLAY, 0, STATIC
        LOCFRAME DOVERLAY, 0, STATIC
        ARGFRAME ISTACK, 0, STACK
        ARGFRAME PSTACK, 0, STACK
        ARGFRAME XSTACK, 38, STACK
        ARGFRAME IOVERLAY, 0, STATIC
        ARGFRAME DOVERLAY, 0, STATIC
        FUNCALL Double_ProcessEvent, osal_msg_deallocate
        LOCFRAME ISTACK, 0, STACK
        LOCFRAME PSTACK, 0, STACK
        LOCFRAME XSTACK, 38, STACK
        LOCFRAME IOVERLAY, 0, STATIC
        LOCFRAME DOVERLAY, 0, STATIC
        ARGFRAME ISTACK, 0, STACK
        ARGFRAME PSTACK, 0, STACK
        ARGFRAME XSTACK, 38, STACK
        ARGFRAME IOVERLAY, 0, STATIC
        ARGFRAME DOVERLAY, 0, STATIC
        FUNCALL Double_ProcessEvent, osal_msg_receive
        LOCFRAME ISTACK, 0, STACK
        LOCFRAME PSTACK, 0, STACK
        LOCFRAME XSTACK, 38, STACK
        LOCFRAME IOVERLAY, 0, STATIC
        LOCFRAME DOVERLAY, 0, STATIC
        ARGFRAME ISTACK, 0, STACK
        ARGFRAME PSTACK, 0, STACK
        ARGFRAME XSTACK, 38, STACK
        ARGFRAME IOVERLAY, 0, STATIC
        ARGFRAME DOVERLAY, 0, STATIC
        FUNCALL Double_ProcessEvent, ZDO_ParseEPListRsp
        LOCFRAME ISTACK, 0, STACK
        LOCFRAME PSTACK, 0, STACK
        LOCFRAME XSTACK, 38, STACK
        LOCFRAME IOVERLAY, 0, STATIC
        LOCFRAME DOVERLAY, 0, STATIC
        ARGFRAME ISTACK, 0, STACK
        ARGFRAME PSTACK, 0, STACK
        ARGFRAME XSTACK, 38, STACK
        ARGFRAME IOVERLAY, 0, STATIC
        ARGFRAME DOVERLAY, 0, STATIC
        FUNCALL Double_ProcessEvent, osal_mem_free
        LOCFRAME ISTACK, 0, STACK
        LOCFRAME PSTACK, 0, STACK
        LOCFRAME XSTACK, 38, STACK
        LOCFRAME IOVERLAY, 0, STATIC
        LOCFRAME DOVERLAY, 0, STATIC
        ARGFRAME ISTACK, 0, STACK
        ARGFRAME PSTACK, 0, STACK
        ARGFRAME XSTACK, 38, STACK
        ARGFRAME IOVERLAY, 0, STATIC
        ARGFRAME DOVERLAY, 0, STATIC
        FUNCALL Double_ProcessEvent, NLME_GetShortAddr
        LOCFRAME ISTACK, 0, STACK
        LOCFRAME PSTACK, 0, STACK
        LOCFRAME XSTACK, 38, STACK
        LOCFRAME IOVERLAY, 0, STATIC
        LOCFRAME DOVERLAY, 0, STATIC
        ARGFRAME ISTACK, 0, STACK
        ARGFRAME PSTACK, 0, STACK
        ARGFRAME XSTACK, 38, STACK
        ARGFRAME IOVERLAY, 0, STATIC
        ARGFRAME DOVERLAY, 0, STATIC
        FUNCALL Double_ProcessEvent, ZDP_EndDeviceBindReq
        LOCFRAME ISTACK, 0, STACK
        LOCFRAME PSTACK, 0, STACK
        LOCFRAME XSTACK, 47, STACK
        LOCFRAME IOVERLAY, 0, STATIC
        LOCFRAME DOVERLAY, 0, STATIC
        ARGFRAME ISTACK, 0, STACK
        ARGFRAME PSTACK, 0, STACK
        ARGFRAME XSTACK, 47, STACK
        ARGFRAME IOVERLAY, 0, STATIC
        ARGFRAME DOVERLAY, 0, STATIC
        FUNCALL Double_ProcessEvent, ZDP_MatchDescReq
        LOCFRAME ISTACK, 0, STACK
        LOCFRAME PSTACK, 0, STACK
        LOCFRAME XSTACK, 46, STACK
        LOCFRAME IOVERLAY, 0, STATIC
        LOCFRAME DOVERLAY, 0, STATIC
        ARGFRAME ISTACK, 0, STACK
        ARGFRAME PSTACK, 0, STACK
        ARGFRAME XSTACK, 46, STACK
        ARGFRAME IOVERLAY, 0, STATIC
        ARGFRAME DOVERLAY, 0, STATIC
        FUNCALL Double_ProcessEvent, Double_MessageMSGCB
        LOCFRAME ISTACK, 0, STACK
        LOCFRAME PSTACK, 0, STACK
        LOCFRAME XSTACK, 38, STACK
        LOCFRAME IOVERLAY, 0, STATIC
        LOCFRAME DOVERLAY, 0, STATIC
        ARGFRAME ISTACK, 0, STACK
        ARGFRAME PSTACK, 0, STACK
        ARGFRAME XSTACK, 38, STACK
        ARGFRAME IOVERLAY, 0, STATIC
        ARGFRAME DOVERLAY, 0, STATIC
        FUNCALL Double_ProcessEvent, _ltoa
        LOCFRAME ISTACK, 0, STACK
        LOCFRAME PSTACK, 0, STACK
        LOCFRAME XSTACK, 40, STACK
        LOCFRAME IOVERLAY, 0, STATIC
        LOCFRAME DOVERLAY, 0, STATIC
        ARGFRAME ISTACK, 0, STACK
        ARGFRAME PSTACK, 0, STACK
        ARGFRAME XSTACK, 40, STACK
        ARGFRAME IOVERLAY, 0, STATIC
        ARGFRAME DOVERLAY, 0, STATIC
        FUNCALL Double_ProcessEvent, osal_strlen
        LOCFRAME ISTACK, 0, STACK
        LOCFRAME PSTACK, 0, STACK
        LOCFRAME XSTACK, 43, STACK
        LOCFRAME IOVERLAY, 0, STATIC
        LOCFRAME DOVERLAY, 0, STATIC
        ARGFRAME ISTACK, 0, STACK
        ARGFRAME PSTACK, 0, STACK
        ARGFRAME XSTACK, 43, STACK
        ARGFRAME IOVERLAY, 0, STATIC
        ARGFRAME DOVERLAY, 0, STATIC
        FUNCALL Double_ProcessEvent, AF_DataRequest
        LOCFRAME ISTACK, 0, STACK
        LOCFRAME PSTACK, 0, STACK
        LOCFRAME XSTACK, 47, STACK
        LOCFRAME IOVERLAY, 0, STATIC
        LOCFRAME DOVERLAY, 0, STATIC
        ARGFRAME ISTACK, 0, STACK
        ARGFRAME PSTACK, 0, STACK
        ARGFRAME XSTACK, 47, STACK
        ARGFRAME IOVERLAY, 0, STATIC
        ARGFRAME DOVERLAY, 0, STATIC
        FUNCALL Double_ProcessEvent, osal_start_timerEx
        LOCFRAME ISTACK, 0, STACK
        LOCFRAME PSTACK, 0, STACK
        LOCFRAME XSTACK, 38, STACK
        LOCFRAME IOVERLAY, 0, STATIC
        LOCFRAME DOVERLAY, 0, STATIC
        ARGFRAME ISTACK, 0, STACK
        ARGFRAME PSTACK, 0, STACK
        ARGFRAME XSTACK, 38, STACK
        ARGFRAME IOVERLAY, 0, STATIC
        ARGFRAME DOVERLAY, 0, STATIC
        MOV     A,#-0xe
        LCALL   ?BANKED_ENTER_XDATA
        CFI DPH0 load(1, XDATA, add(CFA_XSP16, literal(-1)))
        CFI DPL0 load(1, XDATA, add(CFA_XSP16, literal(-2)))
        CFI ?BRET_EXT load(1, XDATA, add(CFA_XSP16, literal(-3)))
        CFI ?RET_HIGH load(1, XDATA, add(CFA_XSP16, literal(-4)))
        CFI ?RET_LOW load(1, XDATA, add(CFA_XSP16, literal(-5)))
        CFI R7 load(1, XDATA, add(CFA_XSP16, literal(-6)))
        CFI V5 load(1, XDATA, add(CFA_XSP16, literal(-7)))
        CFI V4 load(1, XDATA, add(CFA_XSP16, literal(-8)))
        CFI V3 load(1, XDATA, add(CFA_XSP16, literal(-9)))
        CFI V2 load(1, XDATA, add(CFA_XSP16, literal(-10)))
        CFI V1 load(1, XDATA, add(CFA_XSP16, literal(-11)))
        CFI V0 load(1, XDATA, add(CFA_XSP16, literal(-12)))
        CFI VB load(1, XDATA, add(CFA_XSP16, literal(-13)))
        CFI R6 load(1, XDATA, add(CFA_XSP16, literal(-14)))
        CFI CFA_SP SP+0
        CFI CFA_XSP16 add(XSP16, 14)
        ; Saved register size: 14
        ; Auto size: 24
        MOV     A,#-0x18
        LCALL   ?ALLOC_XSTACK8
        CFI CFA_XSP16 add(XSP16, 38)
        MOV     A,R2
        MOV     R6,A
        MOV     A,R3
        MOV     R7,A
//  245   afIncomingMSGPacket_t *MSGpkt;
//  246   afDataConfirm_t *afDataConfirm;
//  247 
//  248   // Data Confirmation message fields
//  249   byte sentEP;
//  250   ZStatus_t sentStatus;
//  251   byte sentTransID;       // This should match the value sent
//  252   (void)task_id;  // Intentionally unreferenced parameter
//  253 
//  254   if ( events & SYS_EVENT_MSG )
        ANL     A,#0x80
        JNZ     $+5
        LJMP    ??Double_ProcessEvent_0 & 0xFFFF
//  255   {
//  256     MSGpkt = (afIncomingMSGPacket_t *)osal_msg_receive( Double_TaskID );
        ; Setup parameters for call to function osal_msg_receive
        SJMP    ??Double_ProcessEvent_1
//  257     while ( MSGpkt )
//  258     {
//  259       switch ( MSGpkt->hdr.event )
//  260       {
//  261         case ZDO_CB_MSG:
//  262           Double_ProcessZDOMsgs( (zdoIncomingMsg_t *)MSGpkt );
//  263           break;
//  264 
//  265         case KEY_CHANGE:
//  266           Double_HandleKeys( ((keyChange_t *)MSGpkt)->state, ((keyChange_t *)MSGpkt)->keys );
//  267           break;
//  268 
//  269         case AF_DATA_CONFIRM_CMD:
//  270           // This message is received as a confirmation of a data packet sent.
//  271           // The status is of ZStatus_t type [defined in ZComDef.h]
//  272           // The message fields are defined in AF.h
//  273           afDataConfirm = (afDataConfirm_t *)MSGpkt;
//  274           sentEP = afDataConfirm->endpoint;
//  275           sentStatus = afDataConfirm->hdr.status;
//  276           sentTransID = afDataConfirm->transID;
//  277           (void)sentEP;
//  278           (void)sentTransID;
//  279 
//  280           // Action taken when confirmation is received.
//  281           if ( sentStatus != ZSuccess )
//  282           {
//  283             // The data wasn't delivered -- Do something
//  284           }
//  285           break;
//  286 
//  287         case AF_INCOMING_MSG_CMD:
//  288           Double_MessageMSGCB( MSGpkt );
//  289           break;
//  290 
//  291         case ZDO_STATE_CHANGE:
//  292           Double_NwkState = (devStates_t)(MSGpkt->hdr.status);
??Double_ProcessEvent_2:
        INC     DPTR
        MOVX    A,@DPTR
        MOV     DPTR,#Double_NwkState
        MOVX    @DPTR,A
//  293           if ( (Double_NwkState == DEV_ZB_COORD)
//  294               || (Double_NwkState == DEV_ROUTER)
//  295               || (Double_NwkState == DEV_END_DEVICE) )
//  296           {
//  297             // Start sending "the" message in a regular interval.
//  298             /*osal_start_timerEx( Double_TaskID,
//  299                                 Double_SEND_MSG_EVT,
//  300                                 Double_SEND_MSG_TIMEOUT );*/
//  301           }
//  302           break;
//  303 
//  304         default:
//  305           break;
//  306       }
//  307 
//  308       // Release the memory
//  309       osal_msg_deallocate( (uint8 *)MSGpkt );
??Double_ProcessEvent_3:
        ; Setup parameters for call to function osal_msg_deallocate
        MOV     R2,?V0 + 0
        MOV     R3,?V0 + 1
        LCALL   ??osal_msg_deallocate?relay
//  310 
//  311       // Next
//  312       MSGpkt = (afIncomingMSGPacket_t *)osal_msg_receive( Double_TaskID );
        ; Setup parameters for call to function osal_msg_receive
??Double_ProcessEvent_1:
        MOV     DPTR,#Double_TaskID
        MOVX    A,@DPTR
        MOV     R1,A
        LCALL   ??osal_msg_receive?relay
        MOV     ?V0 + 0,R2
        MOV     ?V0 + 1,R3
        MOV     A,?V0 + 0
        ORL     A,?V0 + 1
        JNZ     $+5
        LJMP    ??Double_ProcessEvent_4 & 0xFFFF
        MOV     DPL,?V0 + 0
        MOV     DPH,?V0 + 1
        MOVX    A,@DPTR
        ADD     A,#-0x1a
        JNZ     $+5
        LJMP    ??Double_ProcessEvent_5 & 0xFFFF
        ADD     A,#0x5a
        JZ      ??Double_ProcessEvent_6
        ADD     A,#-0x11
        JZ      ??Double_ProcessEvent_2
        ADD     A,#-0x2
        JNZ     ??Double_ProcessEvent_3
        MOV     A,?V0 + 0
        ADD     A,#0xc
        MOV     DPL,A
        MOV     A,?V0 + 1
        ADDC    A,#0x0
        MOV     DPH,A
        MOVX    A,@DPTR
        XRL     A,#0x6
        JNZ     ??Double_ProcessEvent_7
        INC     DPTR
        MOVX    A,@DPTR
        XRL     A,#0x80
??Double_ProcessEvent_7:
        JNZ     ??Double_ProcessEvent_3
        ; Setup parameters for call to function ZDO_ParseEPListRsp
        MOV     R2,?V0 + 0
        MOV     R3,?V0 + 1
        LCALL   ??ZDO_ParseEPListRsp?relay
        MOV     A,R2
        ORL     A,R3
        JZ      ??Double_ProcessEvent_3
        MOV     DPL,R2
        MOV     DPH,R3
        MOVX    A,@DPTR
        JNZ     ??Double_ProcessEvent_8
        INC     DPTR
        INC     DPTR
        INC     DPTR
        MOVX    A,@DPTR
        JZ      ??Double_ProcessEvent_8
        MOV     DPTR,#Double_DstAddr + 8
        MOV     A,#0x2
        MOVX    @DPTR,A
        MOV     DPL,R2
        MOV     DPH,R3
        INC     DPTR
        MOVX    A,@DPTR
        MOV     R0,A
        INC     DPTR
        MOVX    A,@DPTR
        MOV     R1,A
        MOV     DPTR,#Double_DstAddr
        MOV     A,R0
        MOVX    @DPTR,A
        INC     DPTR
        MOV     A,R1
        MOVX    @DPTR,A
        MOV     DPL,R2
        MOV     DPH,R3
        INC     DPTR
        INC     DPTR
        INC     DPTR
        INC     DPTR
        MOVX    A,@DPTR
        MOV     DPTR,#Double_DstAddr + 9
        MOVX    @DPTR,A
??Double_ProcessEvent_8:
        ; Setup parameters for call to function osal_mem_free
        LCALL   ??osal_mem_free?relay
        LJMP    ??Double_ProcessEvent_3 & 0xFFFF
??Double_ProcessEvent_6:
        INC     DPTR
        INC     DPTR
        INC     DPTR
        MOVX    A,@DPTR
        MOV     ?V0 + 4,A
        MOV     DPL,?V0 + 0
        MOV     DPH,?V0 + 1
        INC     DPTR
        INC     DPTR
        MOVX    A,@DPTR
        JZ      $+5
        LJMP    ??Double_ProcessEvent_3 & 0xFFFF
        MOV     A,?V0 + 4
        MOV     C,0xE0 /* A   */.1
        JNC     ??Double_ProcessEvent_9
        MOV     A,#0x8
        LCALL   ?XSTACK_DISP0_8
        MOV     A,#0x2
        MOVX    @DPTR,A
        MOV     DPL,?XSP + 0
        MOV     DPH,?XSP + 1
        CLR     A
        MOVX    @DPTR,A
        INC     DPTR
        MOVX    @DPTR,A
        ; Setup parameters for call to function NLME_GetShortAddr
        LCALL   ??NLME_GetShortAddr?relay
        MOV     ?V0 + 2,R2
        MOV     ?V0 + 3,R3
        MOV     R4,?V0 + 2
        MOV     R5,?V0 + 3
        MOV     ?V0 + 2,#Double_ClusterList & 0xff
        MOV     ?V0 + 3,#(Double_ClusterList >> 8) & 0xff
        ; Setup parameters for call to function ZDP_EndDeviceBindReq
        MOV     ?V0 + 5,#0x0
        MOV     R0,#?V0 + 5
        LCALL   ?PUSH_XSTACK_I_ONE
        CFI CFA_XSP16 add(XSP16, 39)
        MOV     R0,#?V0 + 2
        LCALL   ?PUSH_XSTACK_I_TWO
        CFI CFA_XSP16 add(XSP16, 41)
        MOV     ?V0 + 5,#0x1
        MOV     R0,#?V0 + 5
        LCALL   ?PUSH_XSTACK_I_ONE
        CFI CFA_XSP16 add(XSP16, 42)
        MOV     R0,#?V0 + 2
        LCALL   ?PUSH_XSTACK_I_TWO
        CFI CFA_XSP16 add(XSP16, 44)
        MOV     ?V0 + 2,#0x1
        MOV     R0,#?V0 + 2
        LCALL   ?PUSH_XSTACK_I_ONE
        CFI CFA_XSP16 add(XSP16, 45)
        MOV     ?V0 + 2,#0x4
        MOV     ?V0 + 3,#0xf
        MOV     R0,#?V0 + 2
        LCALL   ?PUSH_XSTACK_I_TWO
        CFI CFA_XSP16 add(XSP16, 47)
        MOV     DPTR,#Double_epDesc
        MOVX    A,@DPTR
        MOV     R1,A
        MOV     A,#0x9
        LCALL   ?XSTACK_DISP0_8
        MOV     R2,DPL
        MOV     R3,DPH
        LCALL   ??ZDP_EndDeviceBindReq?relay
        MOV     A,#0x9
        LCALL   ?DEALLOC_XSTACK8
        CFI CFA_XSP16 add(XSP16, 38)
??Double_ProcessEvent_9:
        MOV     A,?V0 + 4
        MOV     C,0xE0 /* A   */.3
        JC      $+5
        LJMP    ??Double_ProcessEvent_3 & 0xFFFF
        MOV     A,#0x8
        LCALL   ?XSTACK_DISP0_8
        MOV     A,#0xf
        MOVX    @DPTR,A
        MOV     DPL,?XSP + 0
        MOV     DPH,?XSP + 1
        MOV     A,#-0x1
        MOVX    @DPTR,A
        INC     DPTR
        MOVX    @DPTR,A
        MOV     ?V0 + 2,#Double_ClusterList & 0xff
        MOV     ?V0 + 3,#(Double_ClusterList >> 8) & 0xff
        ; Setup parameters for call to function ZDP_MatchDescReq
        MOV     ?V0 + 4,#0x0
        MOV     R0,#?V0 + 4
        LCALL   ?PUSH_XSTACK_I_ONE
        CFI CFA_XSP16 add(XSP16, 39)
        MOV     R0,#?V0 + 2
        LCALL   ?PUSH_XSTACK_I_TWO
        CFI CFA_XSP16 add(XSP16, 41)
        MOV     ?V0 + 4,#0x1
        MOV     R0,#?V0 + 4
        LCALL   ?PUSH_XSTACK_I_ONE
        CFI CFA_XSP16 add(XSP16, 42)
        MOV     R0,#?V0 + 2
        LCALL   ?PUSH_XSTACK_I_TWO
        CFI CFA_XSP16 add(XSP16, 44)
        MOV     ?V0 + 2,#0x4
        MOV     ?V0 + 3,#0xf
        MOV     R0,#?V0 + 2
        LCALL   ?PUSH_XSTACK_I_TWO
        CFI CFA_XSP16 add(XSP16, 46)
        MOV     R1,#0x1
        MOV     R4,#-0x1
        MOV     R5,#-0x1
        MOV     A,#0x8
        LCALL   ?XSTACK_DISP0_8
        MOV     R2,DPL
        MOV     R3,DPH
        LCALL   ??ZDP_MatchDescReq?relay
        MOV     A,#0x8
        LCALL   ?DEALLOC_XSTACK8
        CFI CFA_XSP16 add(XSP16, 38)
        LJMP    ??Double_ProcessEvent_3 & 0xFFFF
??Double_ProcessEvent_5:
        ; Setup parameters for call to function Double_MessageMSGCB
        MOV     R2,?V0 + 0
        MOV     R3,?V0 + 1
        LCALL   ??Double_MessageMSGCB?relay
        LJMP    ??Double_ProcessEvent_3 & 0xFFFF
//  313     }
//  314 
//  315     // return unprocessed events
//  316     return (events ^ SYS_EVENT_MSG);
??Double_ProcessEvent_4:
        MOV     A,R6
        MOV     R2,A
        MOV     A,R7
        XRL     A,#0x80
??Double_ProcessEvent_10:
        MOV     R3,A
        LJMP    ??Double_ProcessEvent_11 & 0xFFFF
//  317   }
//  318 
//  319   // Send a message out - This event is generated by a timer
//  320   //  (setup in Double_Init()).
//  321   if ( events & Double_SEND_MSG_EVT )
??Double_ProcessEvent_0:
        MOV     A,R6
        MOV     C,0xE0 /* A   */.0
        JC      $+5
        LJMP    ??Double_ProcessEvent_12 & 0xFFFF
//  322   {
//  323     // Send "the" message
//  324     Double_SendTheMessage();
        MOV     A,#0x9
        LCALL   ?XSTACK_DISP0_8
        MOV     R4,DPL
        MOV     R5,DPH
        MOV     DPH,#(`?<Constant "Double:">` >> 8) & 0xff
        MOV     DPL,#`?<Constant "Double:">` & 0xff
        MOV     A,#0xf
        LCALL   ?MOVE_LONG8_XDATA_XDATA
        ; Setup parameters for call to function _ltoa
        MOV     A,#0xf
        LCALL   ?XSTACK_DISP0_8
        MOV     ?V0 + 0,DPL
        MOV     ?V0 + 1,DPH
        MOV     R0,#?V0 + 0
        LCALL   ?PUSH_XSTACK_I_TWO
        CFI CFA_XSP16 add(XSP16, 40)
        MOV     R1,#0xa
        MOV     DPTR,#fDouble
        LCALL   ?XLOAD_R2345
        LCALL   ?R2345_FLT_TO_UL
        MOV     R2,?V0 + 0
        MOV     R3,?V0 + 1
        MOV     R4,?V0 + 2
        MOV     R5,?V0 + 3
        LCALL   ??_ltoa?relay
        MOV     A,#0x2
        LCALL   ?DEALLOC_XSTACK8
        CFI CFA_XSP16 add(XSP16, 38)
        MOV     R0,#0x0
??Double_ProcessEvent_13:
        MOV     ?V0 + 0,R0
        MOV     A,#0x9
        LCALL   ?XSTACK_DISP0_8
        LCALL   ?Subroutine2 & 0xFFFF
??CrossCallReturnLabel_2:
        MOVX    A,@DPTR
        JNZ     ??Double_ProcessEvent_14
        MOV     A,#0x9
        LCALL   ?XSTACK_DISP0_8
        LCALL   ?Subroutine2 & 0xFFFF
??CrossCallReturnLabel_3:
        MOV     A,#0x20
        MOVX    @DPTR,A
??Double_ProcessEvent_14:
        INC     R0
        MOV     A,R0
        CLR     C
        SUBB    A,#0xe
        JC      ??Double_ProcessEvent_13
        ; Setup parameters for call to function AF_DataRequest
        MOV     ?V0 + 0,#0x1e
        MOV     R0,#?V0 + 0
        LCALL   ?PUSH_XSTACK_I_ONE
        CFI CFA_XSP16 add(XSP16, 39)
        MOV     ?V0 + 0,#Double_TransID & 0xff
        MOV     ?V0 + 1,#(Double_TransID >> 8) & 0xff
        MOV     R0,#?V0 + 0
        LCALL   ?PUSH_XSTACK_I_TWO
        CFI CFA_XSP16 add(XSP16, 41)
        MOV     A,#0xc
        LCALL   ?XSTACK_DISP0_8
        MOV     ?V0 + 0,DPL
        MOV     ?V0 + 1,DPH
        MOV     R0,#?V0 + 0
        LCALL   ?PUSH_XSTACK_I_TWO
        CFI CFA_XSP16 add(XSP16, 43)
        ; Setup parameters for call to function osal_strlen
        MOV     A,#0xe
        LCALL   ?XSTACK_DISP0_8
        MOV     R2,DPL
        MOV     R3,DPH
        LCALL   ??osal_strlen?relay
        MOV     A,R2
        ADD     A,#0x1
        MOV     ?V0 + 0,A
        CLR     A
        ADDC    A,#0x0
        MOV     ?V0 + 1,A
        MOV     R0,#?V0 + 0
        LCALL   ?PUSH_XSTACK_I_TWO
        CFI CFA_XSP16 add(XSP16, 45)
        MOV     ?V0 + 0,#0x8
        MOV     ?V0 + 1,#0x0
        MOV     R0,#?V0 + 0
        LCALL   ?PUSH_XSTACK_I_TWO
        CFI CFA_XSP16 add(XSP16, 47)
        MOV     R1,#0x20
        MOV     R4,#Double_epDesc & 0xff
        MOV     R5,#(Double_epDesc >> 8) & 0xff
        MOV     R2,#Double_DstAddr & 0xff
        MOV     R3,#(Double_DstAddr >> 8) & 0xff
        LCALL   ??AF_DataRequest?relay
        MOV     A,#0x9
        LCALL   ?DEALLOC_XSTACK8
        CFI CFA_XSP16 add(XSP16, 38)
//  325 
//  326     // Setup to send message again
//  327     osal_start_timerEx( Double_TaskID,
//  328                         Double_SEND_MSG_EVT,
//  329                         Double_SEND_MSG_TIMEOUT );
        ; Setup parameters for call to function osal_start_timerEx
        MOV     R4,#-0x18
        MOV     R5,#0x3
        MOV     R2,#0x1
        MOV     R3,#0x0
        MOV     DPTR,#Double_TaskID
        LCALL   ?Subroutine1 & 0xFFFF
//  330 
//  331     // return unprocessed events
//  332     return (events ^ Double_SEND_MSG_EVT);
//  333   }
??CrossCallReturnLabel_0:
        LJMP    ??Double_ProcessEvent_10 & 0xFFFF
//  334 
//  335   
//  336 #if defined( IAR_ARMCM3_LM )
//  337   // Receive a message from the RTOS queue
//  338   if ( events & Double_RTOS_MSG_EVT )
//  339   {
//  340     // Process message from RTOS queue
//  341     Double_ProcessRtosMessage();
//  342 
//  343     // return unprocessed events
//  344     return (events ^ Double_RTOS_MSG_EVT);
//  345   }
//  346 #endif
//  347 
//  348   // Discard unknown events
//  349   return 0;
??Double_ProcessEvent_12:
        MOV     R2,#0x0
        MOV     R3,#0x0
??Double_ProcessEvent_11:
        MOV     A,#0x18
        LCALL   ?DEALLOC_XSTACK8
        CFI CFA_XSP16 add(XSP16, 14)
        MOV     R7,#0x6
        LJMP    ?BANKED_LEAVE_XDATA
        CFI EndBlock cfiBlock2
//  350 }

        RSEG BANKED_CODE:CODE:NOROOT(0)
?Subroutine2:
        CFI Block cfiCond3 Using cfiCommon0
        CFI NoFunction
        CFI Conditional ??CrossCallReturnLabel_2
        CFI R6 load(1, XDATA, add(CFA_XSP16, literal(-14)))
        CFI VB load(1, XDATA, add(CFA_XSP16, literal(-13)))
        CFI V0 load(1, XDATA, add(CFA_XSP16, literal(-12)))
        CFI V1 load(1, XDATA, add(CFA_XSP16, literal(-11)))
        CFI V2 load(1, XDATA, add(CFA_XSP16, literal(-10)))
        CFI V3 load(1, XDATA, add(CFA_XSP16, literal(-9)))
        CFI V4 load(1, XDATA, add(CFA_XSP16, literal(-8)))
        CFI V5 load(1, XDATA, add(CFA_XSP16, literal(-7)))
        CFI R7 load(1, XDATA, add(CFA_XSP16, literal(-6)))
        CFI ?RET_LOW load(1, XDATA, add(CFA_XSP16, literal(-5)))
        CFI ?RET_HIGH load(1, XDATA, add(CFA_XSP16, literal(-4)))
        CFI ?BRET_EXT load(1, XDATA, add(CFA_XSP16, literal(-3)))
        CFI DPL0 load(1, XDATA, add(CFA_XSP16, literal(-2)))
        CFI DPH0 load(1, XDATA, add(CFA_XSP16, literal(-1)))
        CFI CFA_SP SP+0
        CFI CFA_XSP16 add(XSP16, 38)
        CFI Block cfiCond4 Using cfiCommon0
        CFI (cfiCond4) NoFunction
        CFI (cfiCond4) Conditional ??CrossCallReturnLabel_3
        CFI (cfiCond4) R6 load(1, XDATA, add(CFA_XSP16, literal(-14)))
        CFI (cfiCond4) VB load(1, XDATA, add(CFA_XSP16, literal(-13)))
        CFI (cfiCond4) V0 load(1, XDATA, add(CFA_XSP16, literal(-12)))
        CFI (cfiCond4) V1 load(1, XDATA, add(CFA_XSP16, literal(-11)))
        CFI (cfiCond4) V2 load(1, XDATA, add(CFA_XSP16, literal(-10)))
        CFI (cfiCond4) V3 load(1, XDATA, add(CFA_XSP16, literal(-9)))
        CFI (cfiCond4) V4 load(1, XDATA, add(CFA_XSP16, literal(-8)))
        CFI (cfiCond4) V5 load(1, XDATA, add(CFA_XSP16, literal(-7)))
        CFI (cfiCond4) R7 load(1, XDATA, add(CFA_XSP16, literal(-6)))
        CFI (cfiCond4) ?RET_LOW load(1, XDATA, add(CFA_XSP16, literal(-5)))
        CFI (cfiCond4) ?RET_HIGH load(1, XDATA, add(CFA_XSP16, literal(-4)))
        CFI (cfiCond4) ?BRET_EXT load(1, XDATA, add(CFA_XSP16, literal(-3)))
        CFI (cfiCond4) DPL0 load(1, XDATA, add(CFA_XSP16, literal(-2)))
        CFI (cfiCond4) DPH0 load(1, XDATA, add(CFA_XSP16, literal(-1)))
        CFI (cfiCond4) CFA_SP SP+0
        CFI (cfiCond4) CFA_XSP16 add(XSP16, 38)
        CFI Block cfiPicker5 Using cfiCommon1
        CFI (cfiPicker5) NoFunction
        CFI (cfiPicker5) Picker
        MOV     A,DPL
        ADD     A,?V0 + 0
        MOV     DPL,A
        MOV     A,DPH
        ADDC    A,#0x0
        MOV     DPH,A
        RET
        CFI EndBlock cfiCond3
        CFI EndBlock cfiCond4
        CFI EndBlock cfiPicker5
//  351 
//  352 /*********************************************************************
//  353  * Event Generation Functions
//  354  */
//  355 
//  356 /*********************************************************************
//  357  * @fn      Double_ProcessZDOMsgs()
//  358  *
//  359  * @brief   Process response messages
//  360  *
//  361  * @param   none
//  362  *
//  363  * @return  none
//  364  */
//  365 static void Double_ProcessZDOMsgs( zdoIncomingMsg_t *inMsg )
//  366 {
//  367   switch ( inMsg->clusterID )
//  368   {
//  369     case End_Device_Bind_rsp:
//  370       if ( ZDO_ParseBindRsp( inMsg ) == ZSuccess )
//  371       {
//  372         // Double LED
//  373         //HalLedSet( HAL_LED_4, HAL_LED_MODE_ON );
//  374       }
//  375 #if defined( BLINK_LEDS )
//  376       else
//  377       {
//  378         // Flash LED to show failure
//  379         //HalLedSet ( HAL_LED_4, HAL_LED_MODE_FLASH );
//  380       }
//  381 #endif
//  382       break;
//  383 
//  384     case Match_Desc_rsp:
//  385       {
//  386         ZDO_ActiveEndpointRsp_t *pRsp = ZDO_ParseEPListRsp( inMsg );
//  387         if ( pRsp )
//  388         {
//  389           if ( pRsp->status == ZSuccess && pRsp->cnt )
//  390           {
//  391             Double_DstAddr.addrMode = (afAddrMode_t)Addr16Bit;
//  392             Double_DstAddr.addr.shortAddr = pRsp->nwkAddr;
//  393             // Take the first endpoint, Can be changed to search through endpoints
//  394             Double_DstAddr.endPoint = pRsp->epList[0];
//  395 
//  396             // Double LED
//  397             //HalLedSet( HAL_LED_4, HAL_LED_MODE_ON );
//  398           }
//  399           osal_mem_free( pRsp );
//  400         }
//  401       }
//  402       break;
//  403   }
//  404 }
//  405 
//  406 /*********************************************************************
//  407  * @fn      Double_HandleKeys
//  408  *
//  409  * @brief   Handles all key events for this device.
//  410  *
//  411  * @param   shift - true if in shift/alt.
//  412  * @param   keys - bit field for key events. Valid entries:
//  413  *                 HAL_KEY_SW_4
//  414  *                 HAL_KEY_SW_3
//  415  *                 HAL_KEY_SW_2
//  416  *                 HAL_KEY_SW_1
//  417  *
//  418  * @return  none
//  419  */
//  420 static void Double_HandleKeys( uint8 shift, uint8 keys )
//  421 {
//  422   zAddrType_t dstAddr;
//  423 
//  424   // Shift is used to make each button/switch dual purpose.
//  425   if ( shift )
//  426   {
//  427     if ( keys & HAL_KEY_SW_1 )
//  428     {
//  429     }
//  430     if ( keys & HAL_KEY_SW_2 )
//  431     {
//  432     }
//  433     if ( keys & HAL_KEY_SW_3 )
//  434     {
//  435     }
//  436     if ( keys & HAL_KEY_SW_4 )
//  437     {
//  438     }
//  439   }
//  440   else
//  441   {
//  442     if ( keys & HAL_KEY_SW_1 )
//  443     {
//  444       // Since SW1 isn't used for anything else in this application...
//  445 #if defined( SWITCH1_BIND )
//  446       // we can use SW1 to simulate SW2 for devices that only have one switch,
//  447       keys |= HAL_KEY_SW_2;
//  448 #elif defined( SWITCH1_MATCH )
//  449       // or use SW1 to simulate SW4 for devices that only have one switch
//  450       keys |= HAL_KEY_SW_4;
//  451 #endif
//  452     }
//  453 
//  454     if ( keys & HAL_KEY_SW_2 )
//  455     {
//  456       //HalLedSet ( HAL_LED_4, HAL_LED_MODE_OFF );
//  457 
//  458       // Initiate an End Device Bind Request for the mandatory endpoint
//  459       dstAddr.addrMode = Addr16Bit;
//  460       dstAddr.addr.shortAddr = 0x0000; // Coordinator
//  461       ZDP_EndDeviceBindReq( &dstAddr, NLME_GetShortAddr(),
//  462                             Double_epDesc.endPoint,
//  463                             Double_PROFID,
//  464                             Double_MAX_CLUSTERS, (cId_t *)Double_ClusterList,
//  465                             Double_MAX_CLUSTERS, (cId_t *)Double_ClusterList,
//  466                             FALSE );
//  467     }
//  468 
//  469     if ( keys & HAL_KEY_SW_3 )
//  470     {
//  471     }
//  472 
//  473     if ( keys & HAL_KEY_SW_4 )
//  474     {
//  475       //HalLedSet ( HAL_LED_4, HAL_LED_MODE_OFF );
//  476       // Initiate a Match Description Request (Service Discovery)
//  477       dstAddr.addrMode = AddrBroadcast;
//  478       dstAddr.addr.shortAddr = NWK_BROADCAST_SHORTADDR;
//  479       ZDP_MatchDescReq( &dstAddr, NWK_BROADCAST_SHORTADDR,
//  480                         Double_PROFID,
//  481                         Double_MAX_CLUSTERS, (cId_t *)Double_ClusterList,
//  482                         Double_MAX_CLUSTERS, (cId_t *)Double_ClusterList,
//  483                         FALSE );
//  484     }
//  485   }
//  486 }
//  487 
//  488 /*********************************************************************
//  489  * LOCAL FUNCTIONS
//  490  */
//  491 
//  492 /*********************************************************************
//  493  * @fn      Double_MessageMSGCB
//  494  *
//  495  * @brief   Data message processor callback.  This function processes
//  496  *          any incoming data - probably from other devices.  So, based
//  497  *          on cluster ID, perform the intended action.
//  498  *
//  499  * @param   none
//  500  *
//  501  * @return  none
//  502  */

        RSEG BANKED_CODE:CODE:NOROOT(0)
//  503 static void Double_MessageMSGCB( afIncomingMSGPacket_t *pkt )
Double_MessageMSGCB:
        CFI Block cfiBlock6 Using cfiCommon0
        CFI Function Double_MessageMSGCB
        CODE
//  504 {
        FUNCALL Double_MessageMSGCB, osal_memcpy
        LOCFRAME ISTACK, 0, STACK
        LOCFRAME PSTACK, 0, STACK
        LOCFRAME XSTACK, 15, STACK
        LOCFRAME IOVERLAY, 0, STATIC
        LOCFRAME DOVERLAY, 0, STATIC
        ARGFRAME ISTACK, 0, STACK
        ARGFRAME PSTACK, 0, STACK
        ARGFRAME XSTACK, 15, STACK
        ARGFRAME IOVERLAY, 0, STATIC
        ARGFRAME DOVERLAY, 0, STATIC
        FUNCALL Double_MessageMSGCB, HalLcdWriteScreen
        LOCFRAME ISTACK, 0, STACK
        LOCFRAME PSTACK, 0, STACK
        LOCFRAME XSTACK, 12, STACK
        LOCFRAME IOVERLAY, 0, STATIC
        LOCFRAME DOVERLAY, 0, STATIC
        ARGFRAME ISTACK, 0, STACK
        ARGFRAME PSTACK, 0, STACK
        ARGFRAME XSTACK, 12, STACK
        ARGFRAME IOVERLAY, 0, STATIC
        ARGFRAME DOVERLAY, 0, STATIC
        MOV     A,#-0xb
        LCALL   ?BANKED_ENTER_XDATA
        CFI DPH0 load(1, XDATA, add(CFA_XSP16, literal(-1)))
        CFI DPL0 load(1, XDATA, add(CFA_XSP16, literal(-2)))
        CFI ?BRET_EXT load(1, XDATA, add(CFA_XSP16, literal(-3)))
        CFI ?RET_HIGH load(1, XDATA, add(CFA_XSP16, literal(-4)))
        CFI ?RET_LOW load(1, XDATA, add(CFA_XSP16, literal(-5)))
        CFI R7 load(1, XDATA, add(CFA_XSP16, literal(-6)))
        CFI V2 load(1, XDATA, add(CFA_XSP16, literal(-7)))
        CFI V1 load(1, XDATA, add(CFA_XSP16, literal(-8)))
        CFI V0 load(1, XDATA, add(CFA_XSP16, literal(-9)))
        CFI VB load(1, XDATA, add(CFA_XSP16, literal(-10)))
        CFI R6 load(1, XDATA, add(CFA_XSP16, literal(-11)))
        CFI CFA_SP SP+0
        CFI CFA_XSP16 add(XSP16, 11)
        ; Saved register size: 11
        ; Auto size: 1
        MOV     A,#-0x1
        LCALL   ?ALLOC_XSTACK8
        CFI CFA_XSP16 add(XSP16, 12)
        MOV     A,R2
        MOV     R6,A
        MOV     A,R3
        MOV     R7,A
//  505   unsigned char buffer[1]; 
//  506   switch ( pkt->clusterId )
        MOV     DPL,R6
        MOV     DPH,R7
        INC     DPTR
        INC     DPTR
        INC     DPTR
        INC     DPTR
        MOVX    A,@DPTR
        XRL     A,#0x8
        JNZ     ??Double_MessageMSGCB_0
        INC     DPTR
        MOVX    A,@DPTR
??Double_MessageMSGCB_0:
        JNZ     ??Double_MessageMSGCB_1
//  507   {
//  508     case Double_CLUSTERID:
//  509       // "the" message
//  510     osal_memcpy(buffer,pkt->cmd.Data,1);
        ; Setup parameters for call to function osal_memcpy
        LCALL   ?Subroutine3 & 0xFFFF
??CrossCallReturnLabel_4:
        MOV     ?V0 + 0,A
        INC     DPTR
        MOVX    A,@DPTR
        MOV     ?V0 + 1,A
        MOV     ?V0 + 2,#0x0
        MOV     R0,#?V0 + 0
        LCALL   ?PUSH_XSTACK_I_THREE
        CFI CFA_XSP16 add(XSP16, 15)
        MOV     R4,#0x1
        MOV     R5,#0x0
        MOV     A,#0x3
        LCALL   ?XSTACK_DISP0_8
        MOV     R2,DPL
        MOV     R3,DPH
        LCALL   ??osal_memcpy?relay
        MOV     A,#0x3
        LCALL   ?DEALLOC_XSTACK8
        CFI CFA_XSP16 add(XSP16, 12)
//  511     if(buffer[0] == '1')       
        MOV     DPL,?XSP + 0
        MOV     DPH,?XSP + 1
        MOVX    A,@DPTR
        XRL     A,#0x31
        JNZ     ??Double_MessageMSGCB_2
//  512     {
//  513       P1_0=0;
        CLR     0x90.0
        SJMP    ??Double_MessageMSGCB_3
//  514     }
//  515     if(buffer[0] == '2')       
??Double_MessageMSGCB_2:
        MOVX    A,@DPTR
        XRL     A,#0x32
        JNZ     ??Double_MessageMSGCB_4
//  516     {
//  517       P1_0=1;
        SETB    0x90.0
        SJMP    ??Double_MessageMSGCB_3
//  518     }
//  519     if(buffer[0] == '3')       
??Double_MessageMSGCB_4:
        MOVX    A,@DPTR
        XRL     A,#0x33
        JNZ     ??Double_MessageMSGCB_5
//  520     {
//  521       P1_1=0;
        CLR     0x90.1
        SJMP    ??Double_MessageMSGCB_3
//  522     }
//  523     if(buffer[0] == '4')       
??Double_MessageMSGCB_5:
        MOVX    A,@DPTR
        XRL     A,#0x34
        JNZ     ??Double_MessageMSGCB_6
//  524     {
//  525       P1_1=1;
        SETB    0x90.1
        SJMP    ??Double_MessageMSGCB_3
//  526     }
//  527     if(buffer[0] == '5')       
??Double_MessageMSGCB_6:
        MOVX    A,@DPTR
        XRL     A,#0x35
        JNZ     ??Double_MessageMSGCB_7
//  528     {
//  529       P1_4=0;
        CLR     0x90.4
        SJMP    ??Double_MessageMSGCB_3
//  530     }
//  531     if(buffer[0] == '6')       
??Double_MessageMSGCB_7:
        MOVX    A,@DPTR
        XRL     A,#0x36
        JNZ     ??Double_MessageMSGCB_3
//  532     {
//  533       P1_4=1;
        SETB    0x90.4
//  534     }
//  535 #if defined( LCD_SUPPORTED )
//  536       HalLcdWriteScreen( (char*)pkt->cmd.Data, "rcvd" );
??Double_MessageMSGCB_3:
        ; Setup parameters for call to function HalLcdWriteScreen
        MOV     R4,#`?<Constant "rcvd">` & 0xff
        MOV     R5,#(`?<Constant "rcvd">` >> 8) & 0xff
        LCALL   ?Subroutine3 & 0xFFFF
??CrossCallReturnLabel_5:
        MOV     R2,A
        INC     DPTR
        MOVX    A,@DPTR
        MOV     R3,A
        LCALL   ??HalLcdWriteScreen?relay
//  537 #elif defined( WIN32 )
//  538       WPRINTSTR( pkt->cmd.Data );
//  539 #endif
//  540       break;
//  541   }
//  542 }
??Double_MessageMSGCB_1:
        MOV     A,#0x1
        LCALL   ?DEALLOC_XSTACK8
        CFI CFA_XSP16 add(XSP16, 11)
        MOV     R7,#0x3
        LJMP    ?BANKED_LEAVE_XDATA
        CFI EndBlock cfiBlock6
        REQUIRE _A_P1

        RSEG BANKED_CODE:CODE:NOROOT(0)
?Subroutine3:
        CFI Block cfiCond7 Using cfiCommon0
        CFI NoFunction
        CFI Conditional ??CrossCallReturnLabel_4
        CFI R6 load(1, XDATA, add(CFA_XSP16, literal(-11)))
        CFI VB load(1, XDATA, add(CFA_XSP16, literal(-10)))
        CFI V0 load(1, XDATA, add(CFA_XSP16, literal(-9)))
        CFI V1 load(1, XDATA, add(CFA_XSP16, literal(-8)))
        CFI V2 load(1, XDATA, add(CFA_XSP16, literal(-7)))
        CFI R7 load(1, XDATA, add(CFA_XSP16, literal(-6)))
        CFI ?RET_LOW load(1, XDATA, add(CFA_XSP16, literal(-5)))
        CFI ?RET_HIGH load(1, XDATA, add(CFA_XSP16, literal(-4)))
        CFI ?BRET_EXT load(1, XDATA, add(CFA_XSP16, literal(-3)))
        CFI DPL0 load(1, XDATA, add(CFA_XSP16, literal(-2)))
        CFI DPH0 load(1, XDATA, add(CFA_XSP16, literal(-1)))
        CFI CFA_SP SP+0
        CFI CFA_XSP16 add(XSP16, 12)
        CFI Block cfiCond8 Using cfiCommon0
        CFI (cfiCond8) NoFunction
        CFI (cfiCond8) Conditional ??CrossCallReturnLabel_5
        CFI (cfiCond8) R6 load(1, XDATA, add(CFA_XSP16, literal(-11)))
        CFI (cfiCond8) VB load(1, XDATA, add(CFA_XSP16, literal(-10)))
        CFI (cfiCond8) V0 load(1, XDATA, add(CFA_XSP16, literal(-9)))
        CFI (cfiCond8) V1 load(1, XDATA, add(CFA_XSP16, literal(-8)))
        CFI (cfiCond8) V2 load(1, XDATA, add(CFA_XSP16, literal(-7)))
        CFI (cfiCond8) R7 load(1, XDATA, add(CFA_XSP16, literal(-6)))
        CFI (cfiCond8) ?RET_LOW load(1, XDATA, add(CFA_XSP16, literal(-5)))
        CFI (cfiCond8) ?RET_HIGH load(1, XDATA, add(CFA_XSP16, literal(-4)))
        CFI (cfiCond8) ?BRET_EXT load(1, XDATA, add(CFA_XSP16, literal(-3)))
        CFI (cfiCond8) DPL0 load(1, XDATA, add(CFA_XSP16, literal(-2)))
        CFI (cfiCond8) DPH0 load(1, XDATA, add(CFA_XSP16, literal(-1)))
        CFI (cfiCond8) CFA_SP SP+0
        CFI (cfiCond8) CFA_XSP16 add(XSP16, 12)
        CFI Block cfiPicker9 Using cfiCommon1
        CFI (cfiPicker9) NoFunction
        CFI (cfiPicker9) Picker
        MOV     A,R6
        ADD     A,#0x22
        MOV     DPL,A
        MOV     A,R7
        ADDC    A,#0x0
        MOV     DPH,A
        MOVX    A,@DPTR
        RET
        CFI EndBlock cfiCond7
        CFI EndBlock cfiCond8
        CFI EndBlock cfiPicker9
//  543 
//  544 /*********************************************************************
//  545  * @fn      Double_SendTheMessage
//  546  *
//  547  * @brief   Send "the" message.
//  548  *
//  549  * @param   none
//  550  *
//  551  * @return  none
//  552  */
//  553 static void Double_SendTheMessage( void )
//  554 {
//  555   unsigned char theMessageData[15] = "Double:";
//  556   
//  557   _ltoa( (uint32)(fDouble), &theMessageData[6], 10 );
//  558   
//  559   for (unsigned char i=0; i<15-1; i++)
//  560   {
//  561     if (theMessageData[i] == 0x00 )
//  562     {
//  563       theMessageData[i] = ' ';
//  564     }
//  565   }
//  566 
//  567   if ( AF_DataRequest( &Double_DstAddr, &Double_epDesc,
//  568                        Double_CLUSTERID,
//  569                        (byte)osal_strlen( theMessageData ) + 1,
//  570                        (byte *)&theMessageData,
//  571                        &Double_TransID,
//  572                        AF_DISCV_ROUTE, AF_DEFAULT_RADIUS ) == afStatus_SUCCESS )
//  573   {
//  574     // Successfully requested to be sent.
//  575   }
//  576   else
//  577   {
//  578     // Error occurred in request to send.
//  579   }
//  580 }
//  581 
//  582 #if defined( IAR_ARMCM3_LM )
//  583 /*********************************************************************
//  584  * @fn      Double_ProcessRtosMessage
//  585  *
//  586  * @brief   Receive message from RTOS queue, send response back.
//  587  *
//  588  * @param   none
//  589  *
//  590  * @return  none
//  591  */
//  592 static void Double_ProcessRtosMessage( void )
//  593 {
//  594   osalQueue_t inMsg;
//  595 
//  596   if ( osal_queue_receive( OsalQueue, &inMsg, 0 ) == pdPASS )
//  597   {
//  598     uint8 cmndId = inMsg.cmnd;
//  599     uint32 counter = osal_build_uint32( inMsg.cbuf, 4 );
//  600 
//  601     switch ( cmndId )
//  602     {
//  603       case CMD_INCR:
//  604         counter += 1;  /* Increment the incoming counter */
//  605                        /* Intentionally fall through next case */
//  606 
//  607       case CMD_ECHO:
//  608       {
//  609         userQueue_t outMsg;
//  610 
//  611         outMsg.resp = RSP_CODE | cmndId;  /* Response ID */
//  612         osal_buffer_uint32( outMsg.rbuf, counter );    /* Increment counter */
//  613         osal_queue_send( UserQueue1, &outMsg, 0 );  /* Send back to UserTask */
//  614         break;
//  615       }
//  616       
//  617       default:
//  618         break;  /* Ignore unknown command */    
//  619     }
//  620   }
//  621 }
//  622 
//  623 #endif
//  624 
//  625 //***********************************************************************************
//  626 

        RSEG BANKED_CODE:CODE:NOROOT(0)
//  627 uint16 DoubleMeasurement_ProcessEvent( uint8 task_id, uint16 events )
DoubleMeasurement_ProcessEvent:
        CFI Block cfiBlock10 Using cfiCommon0
        CFI Function DoubleMeasurement_ProcessEvent
        CODE
//  628 {
        FUNCALL DoubleMeasurement_ProcessEvent, osal_start_timerEx
        LOCFRAME ISTACK, 0, STACK
        LOCFRAME PSTACK, 0, STACK
        LOCFRAME XSTACK, 9, STACK
        LOCFRAME IOVERLAY, 0, STATIC
        LOCFRAME DOVERLAY, 0, STATIC
        ARGFRAME ISTACK, 0, STACK
        ARGFRAME PSTACK, 0, STACK
        ARGFRAME XSTACK, 9, STACK
        ARGFRAME IOVERLAY, 0, STATIC
        ARGFRAME DOVERLAY, 0, STATIC
        MOV     A,#-0x9
        LCALL   ?BANKED_ENTER_XDATA
        CFI DPH0 load(1, XDATA, add(CFA_XSP16, literal(-1)))
        CFI DPL0 load(1, XDATA, add(CFA_XSP16, literal(-2)))
        CFI ?BRET_EXT load(1, XDATA, add(CFA_XSP16, literal(-3)))
        CFI ?RET_HIGH load(1, XDATA, add(CFA_XSP16, literal(-4)))
        CFI ?RET_LOW load(1, XDATA, add(CFA_XSP16, literal(-5)))
        CFI R7 load(1, XDATA, add(CFA_XSP16, literal(-6)))
        CFI V0 load(1, XDATA, add(CFA_XSP16, literal(-7)))
        CFI VB load(1, XDATA, add(CFA_XSP16, literal(-8)))
        CFI R6 load(1, XDATA, add(CFA_XSP16, literal(-9)))
        CFI CFA_SP SP+0
        CFI CFA_XSP16 add(XSP16, 9)
        ; Saved register size: 9
        ; Auto size: 0
        MOV     A,R2
        MOV     R6,A
        MOV     A,R3
        MOV     R7,A
//  629   if ( events & DOUBLEMEASUREMENT_EVT )
        MOV     A,R6
        MOV     C,0xE0 /* A   */.0
        JNC     ??DoubleMeasurement_ProcessEvent_0
//  630   {
//  631   osal_start_timerEx( DoubleMeasurement_TaskID,
//  632                         DOUBLEMEASUREMENT_EVT,
//  633                         DOUBLEMEASUREMENT_TIMEOUT );
        ; Setup parameters for call to function osal_start_timerEx
        MOV     R4,#-0x18
        MOV     R5,#0x3
        MOV     R2,#0x1
        MOV     R3,#0x0
        MOV     DPTR,#DoubleMeasurement_TaskID
        LCALL   ?Subroutine1 & 0xFFFF
//  634     
//  635     //HalLedSet ( HAL_LED_2, HAL_LED_MODE_TOGGLE );
//  636     // return unprocessed events
//  637     return (events ^ DOUBLEMEASUREMENT_EVT);
//  638   }
??CrossCallReturnLabel_1:
        MOV     R3,A
        SJMP    ??DoubleMeasurement_ProcessEvent_1
//  639 
//  640   // Discard unknown events
//  641   return 0;
??DoubleMeasurement_ProcessEvent_0:
        MOV     R2,#0x0
        MOV     R3,#0x0
??DoubleMeasurement_ProcessEvent_1:
        LJMP    ?Subroutine0 & 0xFFFF
        CFI EndBlock cfiBlock10
//  642 }

        RSEG BANKED_CODE:CODE:NOROOT(0)
?Subroutine1:
        CFI Block cfiCond11 Using cfiCommon0
        CFI NoFunction
        CFI Conditional ??CrossCallReturnLabel_0
        CFI R6 load(1, XDATA, add(CFA_XSP16, literal(-14)))
        CFI VB load(1, XDATA, add(CFA_XSP16, literal(-13)))
        CFI V0 load(1, XDATA, add(CFA_XSP16, literal(-12)))
        CFI V1 load(1, XDATA, add(CFA_XSP16, literal(-11)))
        CFI V2 load(1, XDATA, add(CFA_XSP16, literal(-10)))
        CFI V3 load(1, XDATA, add(CFA_XSP16, literal(-9)))
        CFI V4 load(1, XDATA, add(CFA_XSP16, literal(-8)))
        CFI V5 load(1, XDATA, add(CFA_XSP16, literal(-7)))
        CFI R7 load(1, XDATA, add(CFA_XSP16, literal(-6)))
        CFI ?RET_LOW load(1, XDATA, add(CFA_XSP16, literal(-5)))
        CFI ?RET_HIGH load(1, XDATA, add(CFA_XSP16, literal(-4)))
        CFI ?BRET_EXT load(1, XDATA, add(CFA_XSP16, literal(-3)))
        CFI DPL0 load(1, XDATA, add(CFA_XSP16, literal(-2)))
        CFI DPH0 load(1, XDATA, add(CFA_XSP16, literal(-1)))
        CFI CFA_SP SP+0
        CFI CFA_XSP16 add(XSP16, 38)
        CFI Block cfiCond12 Using cfiCommon0
        CFI (cfiCond12) NoFunction
        CFI (cfiCond12) Conditional ??CrossCallReturnLabel_1
        CFI (cfiCond12) R6 load(1, XDATA, add(CFA_XSP16, literal(-9)))
        CFI (cfiCond12) VB load(1, XDATA, add(CFA_XSP16, literal(-8)))
        CFI (cfiCond12) V0 load(1, XDATA, add(CFA_XSP16, literal(-7)))
        CFI (cfiCond12) R7 load(1, XDATA, add(CFA_XSP16, literal(-6)))
        CFI (cfiCond12) ?RET_LOW load(1, XDATA, add(CFA_XSP16, literal(-5)))
        CFI (cfiCond12) ?RET_HIGH load(1, XDATA, add(CFA_XSP16, literal(-4)))
        CFI (cfiCond12) ?BRET_EXT load(1, XDATA, add(CFA_XSP16, literal(-3)))
        CFI (cfiCond12) DPL0 load(1, XDATA, add(CFA_XSP16, literal(-2)))
        CFI (cfiCond12) DPH0 load(1, XDATA, add(CFA_XSP16, literal(-1)))
        CFI (cfiCond12) CFA_SP SP+0
        CFI (cfiCond12) CFA_XSP16 add(XSP16, 9)
        CFI Block cfiPicker13 Using cfiCommon1
        CFI (cfiPicker13) NoFunction
        CFI (cfiPicker13) Picker
        MOVX    A,@DPTR
        MOV     R1,A
        LCALL   ??osal_start_timerEx?relay
        MOV     A,R6
        XRL     A,#0x1
        MOV     R2,A
        MOV     A,R7
        RET
        CFI EndBlock cfiCond11
        CFI EndBlock cfiCond12
        CFI EndBlock cfiPicker13
//  643 

        RSEG BANKED_CODE:CODE:NOROOT(0)
//  644 void DoubleMeasurement_Init( uint8 task_id )
DoubleMeasurement_Init:
        CFI Block cfiBlock14 Using cfiCommon0
        CFI Function DoubleMeasurement_Init
        CODE
//  645 {
        FUNCALL DoubleMeasurement_Init, osal_start_timerEx
        LOCFRAME ISTACK, 0, STACK
        LOCFRAME PSTACK, 0, STACK
        LOCFRAME XSTACK, 9, STACK
        LOCFRAME IOVERLAY, 0, STATIC
        LOCFRAME DOVERLAY, 0, STATIC
        ARGFRAME ISTACK, 0, STACK
        ARGFRAME PSTACK, 0, STACK
        ARGFRAME XSTACK, 9, STACK
        ARGFRAME IOVERLAY, 0, STATIC
        ARGFRAME DOVERLAY, 0, STATIC
        FUNCALL DoubleMeasurement_Init, RegisterForKeys
        LOCFRAME ISTACK, 0, STACK
        LOCFRAME PSTACK, 0, STACK
        LOCFRAME XSTACK, 9, STACK
        LOCFRAME IOVERLAY, 0, STATIC
        LOCFRAME DOVERLAY, 0, STATIC
        ARGFRAME ISTACK, 0, STACK
        ARGFRAME PSTACK, 0, STACK
        ARGFRAME XSTACK, 9, STACK
        ARGFRAME IOVERLAY, 0, STATIC
        ARGFRAME DOVERLAY, 0, STATIC
        MOV     A,#-0x9
        LCALL   ?BANKED_ENTER_XDATA
        CFI DPH0 load(1, XDATA, add(CFA_XSP16, literal(-1)))
        CFI DPL0 load(1, XDATA, add(CFA_XSP16, literal(-2)))
        CFI ?BRET_EXT load(1, XDATA, add(CFA_XSP16, literal(-3)))
        CFI ?RET_HIGH load(1, XDATA, add(CFA_XSP16, literal(-4)))
        CFI ?RET_LOW load(1, XDATA, add(CFA_XSP16, literal(-5)))
        CFI R7 load(1, XDATA, add(CFA_XSP16, literal(-6)))
        CFI V0 load(1, XDATA, add(CFA_XSP16, literal(-7)))
        CFI VB load(1, XDATA, add(CFA_XSP16, literal(-8)))
        CFI R6 load(1, XDATA, add(CFA_XSP16, literal(-9)))
        CFI CFA_SP SP+0
        CFI CFA_XSP16 add(XSP16, 9)
        ; Saved register size: 9
        ; Auto size: 0
        MOV     A,R1
//  646   DoubleMeasurement_TaskID = task_id;
        MOV     DPTR,#DoubleMeasurement_TaskID
        MOVX    @DPTR,A
//  647   DoubleMeasurement_TransID = 0;
        MOV     DPTR,#DoubleMeasurement_TransID
        CLR     A
        MOVX    @DPTR,A
//  648   
//  649   osal_start_timerEx( DoubleMeasurement_TaskID,
//  650                         DOUBLEMEASUREMENT_EVT,
//  651                         DOUBLEMEASUREMENT_TIMEOUT );
        ; Setup parameters for call to function osal_start_timerEx
        MOV     R4,#-0x18
        MOV     R5,#0x3
        MOV     R2,#0x1
        MOV     R3,A
        LCALL   ??osal_start_timerEx?relay
//  652   
//  653   RegisterForKeys( DoubleMeasurement_TaskID );  
        ; Setup parameters for call to function RegisterForKeys
        MOV     DPTR,#DoubleMeasurement_TaskID
        MOVX    A,@DPTR
        MOV     R1,A
        LCALL   ??RegisterForKeys?relay
//  654 }
        LJMP    ?Subroutine0 & 0xFFFF
        CFI EndBlock cfiBlock14

        RSEG BANK_RELAYS:CODE:REORDER:NOROOT(0)
??Double_Init?relay:
        LCALL   ?BDISPATCH
        DATA
        DC24    Double_Init

        RSEG BANK_RELAYS:CODE:REORDER:NOROOT(0)
??Double_ProcessEvent?relay:
        LCALL   ?BDISPATCH
        DATA
        DC24    Double_ProcessEvent

        RSEG BANK_RELAYS:CODE:REORDER:NOROOT(0)
??Double_MessageMSGCB?relay:
        LCALL   ?BDISPATCH
        DATA
        DC24    Double_MessageMSGCB

        RSEG BANK_RELAYS:CODE:REORDER:NOROOT(0)
??DoubleMeasurement_ProcessEvent?relay:
        LCALL   ?BDISPATCH
        DATA
        DC24    DoubleMeasurement_ProcessEvent

        RSEG BANK_RELAYS:CODE:REORDER:NOROOT(0)
??DoubleMeasurement_Init?relay:
        LCALL   ?BDISPATCH
        DATA
        DC24    DoubleMeasurement_Init

        RSEG XDATA_ROM_C:CONST:REORDER:NOROOT(0)
        DATA8
`?<Constant "Double">`:
        DB "Double"

        RSEG XDATA_ROM_C:CONST:REORDER:NOROOT(0)
        DATA8
`?<Constant "rcvd">`:
        DB "rcvd"

        RSEG XDATA_ROM_C:CONST:REORDER:NOROOT(0)
        DATA8
`?<Constant "Double:">`:
        DB "Double:"
        DB 0, 0, 0, 0, 0, 0, 0

        END
//  655 
//  656 
//  657 /*********************************************************************
//  658  */
// 
// 1 015 bytes in segment BANKED_CODE
//    30 bytes in segment BANK_RELAYS
//     1 byte  in segment SFR_AN
//    41 bytes in segment XDATA_ROM_C
//    28 bytes in segment XDATA_Z
// 
// 1 045 bytes of CODE  memory
//    41 bytes of CONST memory
//     0 bytes of DATA  memory (+ 1 byte shared)
//    28 bytes of XDATA memory
//
//Errors: none
//Warnings: 1
