###############################################################################
#                                                                             #
# IAR C/C++ Compiler V8.10.3.10338/W32 for 8051         12/Feb/2014  09:57:08 #
# Copyright 2004-2011 IAR Systems AB.                                         #
#                                                                             #
#    Core               =  plain                                              #
#    Code model         =  banked                                             #
#    Data model         =  large                                              #
#    Calling convention =  xdata reentrant                                    #
#    Constant location  =  data_rom                                           #
#    Dptr setup         =  1,16                                               #
#    Source file        =  C:\Users\OurEDA\Documents\Tencent                  #
#                          Files\1534143789\FileRecv\ZStack-CC2530-2.5.1a\ZSt #
#                          ack-CC2530-2.5.1a\Projects\zstack\Samples\01TempHu #
#                          mApp_ENDEB\Source\DHT11_TempHum.c                  #
#    Command line       =  -f "C:\Users\OurEDA\Documents\Tencent              #
#                          Files\1534143789\FileRecv\ZStack-CC2530-2.5.1a\ZSt #
#                          ack-CC2530-2.5.1a\Projects\zstack\Samples\01TempHu #
#                          mApp_ENDEB\CC2530DB\..\..\..\Tools\CC2530DB\f8wEnd #
#                          ev.cfg" (-DCPU32MHZ -DROOT=__near_func             #
#                          -DMAC_CFG_TX_DATA_MAX=3 -DMAC_CFG_TX_MAX=6         #
#                          -DMAC_CFG_RX_MAX=3) -f "C:\Users\OurEDA\Documents\ #
#                          Tencent Files\1534143789\FileRecv\ZStack-CC2530-2. #
#                          5.1a\ZStack-CC2530-2.5.1a\Projects\zstack\Samples\ #
#                          01TempHumApp_ENDEB\CC2530DB\..\..\..\Tools\CC2530D #
#                          B\f8wConfig.cfg" (-DZIGBEEPRO -DSECURE=0           #
#                          -DZG_SECURE_DYNAMIC=0 -DREFLECTOR                  #
#                          -DDEFAULT_CHANLIST=0x00000800                      #
#                          -DZDAPP_CONFIG_PAN_ID=0xFFFF                       #
#                          -DNWK_START_DELAY=100 -DEXTENDED_JOINING_RANDOM_MA #
#                          SK=0x007F -DBEACON_REQUEST_DELAY=100               #
#                          -DBEACON_REQ_DELAY_MASK=0x00FF                     #
#                          -DLINK_STATUS_JITTER_MASK=0x007F                   #
#                          -DROUTE_EXPIRY_TIME=30 -DAPSC_ACK_WAIT_DURATION_PO #
#                          LLED=3000 -DNWK_INDIRECT_MSG_TIMEOUT=7             #
#                          -DMAX_RREQ_ENTRIES=8 -DAPSC_MAX_FRAME_RETRIES=3    #
#                          -DNWK_MAX_DATA_RETRIES=2                           #
#                          -DMAX_POLL_FAILURE_RETRIES=2 -DMAX_BCAST=9         #
#                          -DAPS_MAX_GROUPS=16 -DMAX_RTG_ENTRIES=40           #
#                          -DNWK_MAX_BINDING_ENTRIES=4                        #
#                          -DMAX_BINDING_CLUSTER_IDS=4 "-DDEFAULT_KEY={0x01,  #
#                          0x03, 0x05, 0x07, 0x09, 0x0B, 0x0D, 0x0F, 0x00,    #
#                          0x02, 0x04, 0x06, 0x08, 0x0A, 0x0C, 0x0D}"         #
#                          -DMAC_MAX_FRAME_SIZE=116                           #
#                          -DZDNWKMGR_MIN_TRANSMISSIONS=20 "-DCONST=const     #
#                          __code" -DGENERIC=__generic                        #
#                          -DRFD_RCVC_ALWAYS_ON=FALSE -DPOLL_RATE=1000        #
#                          -DQUEUED_POLL_RATE=100 -DRESPONSE_POLL_RATE=100)   #
#                          -DREJOIN_POLL_RATE=440 "C:\Users\OurEDA\Documents\ #
#                          Tencent Files\1534143789\FileRecv\ZStack-CC2530-2. #
#                          5.1a\ZStack-CC2530-2.5.1a\Projects\zstack\Samples\ #
#                          01TempHumApp_ENDEB\Source\DHT11_TempHum.c" -D      #
#                          NWK_AUTO_POLL -D ZTOOL_P1 -D MT_TASK -D            #
#                          MT_SYS_FUNC -D MT_ZDO_FUNC -D LCD_SUPPORTED=DEBUG  #
#                          -D xPOWER_SAVING -lC "C:\Users\OurEDA\Documents\Te #
#                          ncent Files\1534143789\FileRecv\ZStack-CC2530-2.5. #
#                          1a\ZStack-CC2530-2.5.1a\Projects\zstack\Samples\01 #
#                          TempHumApp_ENDEB\CC2530DB\EndDeviceEB\List\" -lA   #
#                          "C:\Users\OurEDA\Documents\Tencent                 #
#                          Files\1534143789\FileRecv\ZStack-CC2530-2.5.1a\ZSt #
#                          ack-CC2530-2.5.1a\Projects\zstack\Samples\01TempHu #
#                          mApp_ENDEB\CC2530DB\EndDeviceEB\List\"             #
#                          --diag_suppress Pe001,Pa010 -o                     #
#                          "C:\Users\OurEDA\Documents\Tencent                 #
#                          Files\1534143789\FileRecv\ZStack-CC2530-2.5.1a\ZSt #
#                          ack-CC2530-2.5.1a\Projects\zstack\Samples\01TempHu #
#                          mApp_ENDEB\CC2530DB\EndDeviceEB\Obj\" -e           #
#                          --no_code_motion --debug --core=plain --dptr=16,1  #
#                          --data_model=large --code_model=banked             #
#                          --calling_convention=xdata_reentrant               #
#                          --place_constants=data_rom --nr_virtual_regs 16    #
#                          -I "C:\Users\OurEDA\Documents\Tencent              #
#                          Files\1534143789\FileRecv\ZStack-CC2530-2.5.1a\ZSt #
#                          ack-CC2530-2.5.1a\Projects\zstack\Samples\01TempHu #
#                          mApp_ENDEB\CC2530DB\" -I                           #
#                          "C:\Users\OurEDA\Documents\Tencent                 #
#                          Files\1534143789\FileRecv\ZStack-CC2530-2.5.1a\ZSt #
#                          ack-CC2530-2.5.1a\Projects\zstack\Samples\01TempHu #
#                          mApp_ENDEB\CC2530DB\..\Source\" -I                 #
#                          "C:\Users\OurEDA\Documents\Tencent                 #
#                          Files\1534143789\FileRecv\ZStack-CC2530-2.5.1a\ZSt #
#                          ack-CC2530-2.5.1a\Projects\zstack\Samples\01TempHu #
#                          mApp_ENDEB\CC2530DB\..\..\..\ZMain\TI2530DB\" -I   #
#                          "C:\Users\OurEDA\Documents\Tencent                 #
#                          Files\1534143789\FileRecv\ZStack-CC2530-2.5.1a\ZSt #
#                          ack-CC2530-2.5.1a\Projects\zstack\Samples\01TempHu #
#                          mApp_ENDEB\CC2530DB\..\..\..\..\..\Components\hal\ #
#                          include\" -I "C:\Users\OurEDA\Documents\Tencent    #
#                          Files\1534143789\FileRecv\ZStack-CC2530-2.5.1a\ZSt #
#                          ack-CC2530-2.5.1a\Projects\zstack\Samples\01TempHu #
#                          mApp_ENDEB\CC2530DB\..\..\..\..\..\Components\hal\ #
#                          target\CC2530EB\" -I "C:\Users\OurEDA\Documents\Te #
#                          ncent Files\1534143789\FileRecv\ZStack-CC2530-2.5. #
#                          1a\ZStack-CC2530-2.5.1a\Projects\zstack\Samples\01 #
#                          TempHumApp_ENDEB\CC2530DB\..\..\..\..\..\Component #
#                          s\mac\include\" -I "C:\Users\OurEDA\Documents\Tenc #
#                          ent Files\1534143789\FileRecv\ZStack-CC2530-2.5.1a #
#                          \ZStack-CC2530-2.5.1a\Projects\zstack\Samples\01Te #
#                          mpHumApp_ENDEB\CC2530DB\..\..\..\..\..\Components\ #
#                          mac\high_level\" -I "C:\Users\OurEDA\Documents\Ten #
#                          cent Files\1534143789\FileRecv\ZStack-CC2530-2.5.1 #
#                          a\ZStack-CC2530-2.5.1a\Projects\zstack\Samples\01T #
#                          empHumApp_ENDEB\CC2530DB\..\..\..\..\..\Components #
#                          \mac\low_level\srf04\" -I                          #
#                          "C:\Users\OurEDA\Documents\Tencent                 #
#                          Files\1534143789\FileRecv\ZStack-CC2530-2.5.1a\ZSt #
#                          ack-CC2530-2.5.1a\Projects\zstack\Samples\01TempHu #
#                          mApp_ENDEB\CC2530DB\..\..\..\..\..\Components\mac\ #
#                          low_level\srf04\single_chip\" -I                   #
#                          "C:\Users\OurEDA\Documents\Tencent                 #
#                          Files\1534143789\FileRecv\ZStack-CC2530-2.5.1a\ZSt #
#                          ack-CC2530-2.5.1a\Projects\zstack\Samples\01TempHu #
#                          mApp_ENDEB\CC2530DB\..\..\..\..\..\Components\mt\" #
#                           -I "C:\Users\OurEDA\Documents\Tencent             #
#                          Files\1534143789\FileRecv\ZStack-CC2530-2.5.1a\ZSt #
#                          ack-CC2530-2.5.1a\Projects\zstack\Samples\01TempHu #
#                          mApp_ENDEB\CC2530DB\..\..\..\..\..\Components\osal #
#                          \include\" -I "C:\Users\OurEDA\Documents\Tencent   #
#                          Files\1534143789\FileRecv\ZStack-CC2530-2.5.1a\ZSt #
#                          ack-CC2530-2.5.1a\Projects\zstack\Samples\01TempHu #
#                          mApp_ENDEB\CC2530DB\..\..\..\..\..\Components\serv #
#                          ices\saddr\" -I "C:\Users\OurEDA\Documents\Tencent #
#                           Files\1534143789\FileRecv\ZStack-CC2530-2.5.1a\ZS #
#                          tack-CC2530-2.5.1a\Projects\zstack\Samples\01TempH #
#                          umApp_ENDEB\CC2530DB\..\..\..\..\..\Components\ser #
#                          vices\sdata\" -I "C:\Users\OurEDA\Documents\Tencen #
#                          t Files\1534143789\FileRecv\ZStack-CC2530-2.5.1a\Z #
#                          Stack-CC2530-2.5.1a\Projects\zstack\Samples\01Temp #
#                          HumApp_ENDEB\CC2530DB\..\..\..\..\..\Components\st #
#                          ack\af\" -I "C:\Users\OurEDA\Documents\Tencent     #
#                          Files\1534143789\FileRecv\ZStack-CC2530-2.5.1a\ZSt #
#                          ack-CC2530-2.5.1a\Projects\zstack\Samples\01TempHu #
#                          mApp_ENDEB\CC2530DB\..\..\..\..\..\Components\stac #
#                          k\nwk\" -I "C:\Users\OurEDA\Documents\Tencent      #
#                          Files\1534143789\FileRecv\ZStack-CC2530-2.5.1a\ZSt #
#                          ack-CC2530-2.5.1a\Projects\zstack\Samples\01TempHu #
#                          mApp_ENDEB\CC2530DB\..\..\..\..\..\Components\stac #
#                          k\sapi\" -I "C:\Users\OurEDA\Documents\Tencent     #
#                          Files\1534143789\FileRecv\ZStack-CC2530-2.5.1a\ZSt #
#                          ack-CC2530-2.5.1a\Projects\zstack\Samples\01TempHu #
#                          mApp_ENDEB\CC2530DB\..\..\..\..\..\Components\stac #
#                          k\sec\" -I "C:\Users\OurEDA\Documents\Tencent      #
#                          Files\1534143789\FileRecv\ZStack-CC2530-2.5.1a\ZSt #
#                          ack-CC2530-2.5.1a\Projects\zstack\Samples\01TempHu #
#                          mApp_ENDEB\CC2530DB\..\..\..\..\..\Components\stac #
#                          k\sys\" -I "C:\Users\OurEDA\Documents\Tencent      #
#                          Files\1534143789\FileRecv\ZStack-CC2530-2.5.1a\ZSt #
#                          ack-CC2530-2.5.1a\Projects\zstack\Samples\01TempHu #
#                          mApp_ENDEB\CC2530DB\..\..\..\..\..\Components\stac #
#                          k\zdo\" -I "C:\Users\OurEDA\Documents\Tencent      #
#                          Files\1534143789\FileRecv\ZStack-CC2530-2.5.1a\ZSt #
#                          ack-CC2530-2.5.1a\Projects\zstack\Samples\01TempHu #
#                          mApp_ENDEB\CC2530DB\..\..\..\..\..\Components\zmac #
#                          \" -I "C:\Users\OurEDA\Documents\Tencent           #
#                          Files\1534143789\FileRecv\ZStack-CC2530-2.5.1a\ZSt #
#                          ack-CC2530-2.5.1a\Projects\zstack\Samples\01TempHu #
#                          mApp_ENDEB\CC2530DB\..\..\..\..\..\Components\zmac #
#                          \f8w\" -Ohz --require_prototypes                   #
#    List file          =  C:\Users\OurEDA\Documents\Tencent                  #
#                          Files\1534143789\FileRecv\ZStack-CC2530-2.5.1a\ZSt #
#                          ack-CC2530-2.5.1a\Projects\zstack\Samples\01TempHu #
#                          mApp_ENDEB\CC2530DB\EndDeviceEB\List\DHT11_TempHum #
#                          .lst                                               #
#    Object file        =  C:\Users\OurEDA\Documents\Tencent                  #
#                          Files\1534143789\FileRecv\ZStack-CC2530-2.5.1a\ZSt #
#                          ack-CC2530-2.5.1a\Projects\zstack\Samples\01TempHu #
#                          mApp_ENDEB\CC2530DB\EndDeviceEB\Obj\DHT11_TempHum. #
#                          r51                                                #
#                                                                             #
#                                                                             #
###############################################################################

C:\Users\OurEDA\Documents\Tencent Files\1534143789\FileRecv\ZStack-CC2530-2.5.1a\ZStack-CC2530-2.5.1a\Projects\zstack\Samples\01TempHumApp_ENDEB\Source\DHT11_TempHum.c
      1          //DHT11温度湿度采集基础实验
      2          
      3          #include <ioCC2530.h>

   \                                 In  segment SFR_AN, at 0x90
   \   union <unnamed> volatile __sfr _A_P1
   \                     _A_P1:
   \   000000                DS 1

   \                                 In  segment SFR_AN, at 0xfe
   \   unsigned char volatile __sfr P1DIR
   \                     P1DIR:
   \   000000                DS 1
      4          #include "OnBoard.h"
      5          #define uint unsigned int
      6          #define U8 unsigned char
      7          
      8          
      9          #define DATA_PIN P1_3 
     10          
     11          /*******函数声明*********/
     12          void Delay_us(void);      //1us延时
     13          void Delay_10us(void);    //10us延时
     14          void Delay_ms(uint Time); //nms延时
     15          void COMM(void);          //温湿写入
     16          void Read_DHT11(void) ;   //温湿传感启动
     17          
     18          
     19          //温湿度定义

   \                                 In  segment XDATA_Z, align 1, keep-with-next
     20          U8 U8FLAG,U8temp;
   \                     U8FLAG:
   \   000000                DS 1
   \   000001                REQUIRE __INIT_XDATA_Z

   \                                 In  segment XDATA_Z, align 1, keep-with-next
   \                     U8temp:
   \   000000                DS 1
   \   000001                REQUIRE __INIT_XDATA_Z

   \                                 In  segment XDATA_Z, align 1, keep-with-next
     21          U8 Hum_H,Hum_L;           //定义湿度存放变量
   \                     Hum_H:
   \   000000                DS 1
   \   000001                REQUIRE __INIT_XDATA_Z

   \                                 In  segment XDATA_Z, align 1, keep-with-next
   \                     Hum_L:
   \   000000                DS 1
   \   000001                REQUIRE __INIT_XDATA_Z

   \                                 In  segment XDATA_Z, align 1, keep-with-next
     22          U8 Temp,Hum;              //定义温度存放变量
   \                     Temp:
   \   000000                DS 1
   \   000001                REQUIRE __INIT_XDATA_Z

   \                                 In  segment XDATA_Z, align 1, keep-with-next
   \                     Hum:
   \   000000                DS 1
   \   000001                REQUIRE __INIT_XDATA_Z

   \                                 In  segment XDATA_Z, align 1, keep-with-next
     23          U8 U8T_data_H,U8T_data_L,U8RH_data_H,U8RH_data_L,U8checkdata;
   \                     U8T_data_H:
   \   000000                DS 1
   \   000001                REQUIRE __INIT_XDATA_Z

   \                                 In  segment XDATA_Z, align 1, keep-with-next
   \                     U8T_data_L:
   \   000000                DS 1
   \   000001                REQUIRE __INIT_XDATA_Z

   \                                 In  segment XDATA_Z, align 1, keep-with-next
   \                     U8RH_data_H:
   \   000000                DS 1
   \   000001                REQUIRE __INIT_XDATA_Z

   \                                 In  segment XDATA_Z, align 1, keep-with-next
   \                     U8RH_data_L:
   \   000000                DS 1
   \   000001                REQUIRE __INIT_XDATA_Z

   \                                 In  segment XDATA_Z, align 1, keep-with-next
   \                     U8checkdata:
   \   000000                DS 1
   \   000001                REQUIRE __INIT_XDATA_Z

   \                                 In  segment XDATA_Z, align 1, keep-with-next
     24          U8 U8T_data_H_temp,U8T_data_L_temp,U8RH_data_H_temp,U8RH_data_L_temp,U8checkdata_temp;
   \                     U8T_data_H_temp:
   \   000000                DS 1
   \   000001                REQUIRE __INIT_XDATA_Z

   \                                 In  segment XDATA_Z, align 1, keep-with-next
   \                     U8T_data_L_temp:
   \   000000                DS 1
   \   000001                REQUIRE __INIT_XDATA_Z

   \                                 In  segment XDATA_Z, align 1, keep-with-next
   \                     U8RH_data_H_temp:
   \   000000                DS 1
   \   000001                REQUIRE __INIT_XDATA_Z

   \                                 In  segment XDATA_Z, align 1, keep-with-next
   \                     U8RH_data_L_temp:
   \   000000                DS 1
   \   000001                REQUIRE __INIT_XDATA_Z

   \                                 In  segment XDATA_Z, align 1, keep-with-next
   \                     U8checkdata_temp:
   \   000000                DS 1
   \   000001                REQUIRE __INIT_XDATA_Z

   \                                 In  segment XDATA_Z, align 1, keep-with-next
     25          U8 U8comdata;
   \                     U8comdata:
   \   000000                DS 1
   \   000001                REQUIRE __INIT_XDATA_Z
     26          
     27          
     28          /****************************
     29          //延时函数
     30          *****************************/

   \                                 In  segment BANKED_CODE, align 1, keep-with-next
     31          void Delay_us(void)
   \                     Delay_us:
     32          {
   \   000000   C082         PUSH    DPL
   \   000002   C083         PUSH    DPH
   \   000004                ; Saved register size: 2
   \   000004                ; Auto size: 0
     33              MicroWait(1);   
   \   000004                ; Setup parameters for call to function Onboard_wait
   \   000004   7A01         MOV     R2,#0x1
   \   000006                REQUIRE ?Subroutine0
   \   000006                ; // Fall through to label ?Subroutine0
     34          }

   \                                 In  segment BANKED_CODE, align 1, keep-with-next
   \                     ?Subroutine0:
   \   000000   7B00         MOV     R3,#0x0
   \   000002   12....       LCALL   ??Onboard_wait?relay
   \   000005                REQUIRE ??Subroutine5_0
   \   000005                ; // Fall through to label ??Subroutine5_0

   \                                 In  segment BANKED_CODE, align 1, keep-with-next
   \                     ??Subroutine5_0:
   \   000000   D083         POP     DPH
   \   000002   D082         POP     DPL
   \   000004   02....       LJMP    ?BRET
     35          

   \                                 In  segment BANKED_CODE, align 1, keep-with-next
     36          void Delay_10us(void)
   \                     Delay_10us:
     37          {
   \   000000   C082         PUSH    DPL
   \   000002   C083         PUSH    DPH
   \   000004                ; Saved register size: 2
   \   000004                ; Auto size: 0
     38             MicroWait(10);
   \   000004                ; Setup parameters for call to function Onboard_wait
   \   000004   7A0A         MOV     R2,#0xa
   \   000006   80..         SJMP    ?Subroutine0
     39          }
     40          

   \                                 In  segment BANKED_CODE, align 1, keep-with-next
     41          void Delay_ms(uint Time)
   \                     Delay_ms:
     42          {
   \   000000   74F7         MOV     A,#-0x9
   \   000002   12....       LCALL   ?BANKED_ENTER_XDATA
   \   000005                ; Saved register size: 9
   \   000005                ; Auto size: 0
   \   000005   EA           MOV     A,R2
   \   000006   FE           MOV     R6,A
   \   000007   EB           MOV     A,R3
   \   000008   FF           MOV     R7,A
     43            unsigned char i;
     44            while(Time--)
   \                     ??Delay_ms_0:
   \   000009   EE           MOV     A,R6
   \   00000A   F8           MOV     R0,A
   \   00000B   EF           MOV     A,R7
   \   00000C   F9           MOV     R1,A
   \   00000D   E8           MOV     A,R0
   \   00000E   24FF         ADD     A,#-0x1
   \   000010   1E           DEC     R6
   \   000011   E9           MOV     A,R1
   \   000012   34FF         ADDC    A,#-0x1
   \   000014   FF           MOV     R7,A
   \   000015   E8           MOV     A,R0
   \   000016   49           ORL     A,R1
   \   000017   6012         JZ      ??Delay_ms_1
     45            {
     46              for(i = 0;i<100;i++)
   \   000019   75..64       MOV     ?V0 + 0,#0x64
     47               Delay_10us();
   \                     ??Delay_ms_2:
   \   00001C                ; Setup parameters for call to function Onboard_wait
   \   00001C   7A0A         MOV     R2,#0xa
   \   00001E   7B00         MOV     R3,#0x0
   \   000020   12....       LCALL   ??Onboard_wait?relay
   \   000023   15..         DEC     ?V0 + 0
   \   000025   E5..         MOV     A,?V0 + 0
   \   000027   60E0         JZ      ??Delay_ms_0
   \   000029   80F1         SJMP    ??Delay_ms_2
     48            }
     49          }
   \                     ??Delay_ms_1:
   \   00002B                REQUIRE ?Subroutine1
   \   00002B                ; // Fall through to label ?Subroutine1

   \                                 In  segment BANKED_CODE, align 1, keep-with-next
   \                     ?Subroutine1:
   \   000000   7F01         MOV     R7,#0x1
   \   000002   02....       LJMP    ?BANKED_LEAVE_XDATA
     50          
     51          
     52          /***********************
     53             温湿度传感
     54          ***********************/

   \                                 In  segment BANKED_CODE, align 1, keep-with-next
     55          void COMM(void)	// 温湿写入
   \                     COMM:
     56          {     
   \   000000   74F7         MOV     A,#-0x9
   \   000002   12....       LCALL   ?BANKED_ENTER_XDATA
   \   000005                ; Saved register size: 9
   \   000005                ; Auto size: 0
     57              U8 i;         
     58              for(i = 0;i<8;i++)    
   \   000005   7E08         MOV     R6,#0x8
     59              {
     60               U8FLAG = 2; 
   \                     ??COMM_0:
   \   000007   90....       MOV     DPTR,#U8FLAG
   \   00000A   7402         MOV     A,#0x2
   \   00000C   F0           MOVX    @DPTR,A
     61               DATA_PIN = 0;
   \   00000D   C293         CLR     0x90.3
     62               DATA_PIN = 1;
   \   00000F   D293         SETB    0x90.3
     63               while((!DATA_PIN)&&U8FLAG++);
   \                     ??COMM_1:
   \   000011   A293         MOV     C,0x90.3
   \   000013   4005         JC      ??COMM_2
   \   000015   12....       LCALL   ?Subroutine4 & 0xFFFF
   \                     ??CrossCallReturnLabel_2:
   \   000018   70F7         JNZ     ??COMM_1
     64               Delay_10us();
   \                     ??COMM_2:
   \   00001A                ; Setup parameters for call to function Onboard_wait
   \   00001A   12....       LCALL   ?Subroutine3 & 0xFFFF
     65               Delay_10us();
     66               Delay_10us();
     67               U8temp = 0;
   \                     ??CrossCallReturnLabel_0:
   \   00001D   90....       MOV     DPTR,#U8temp
   \   000020   E4           CLR     A
   \   000021   F0           MOVX    @DPTR,A
     68               if(DATA_PIN)U8temp = 1;
   \   000022   A293         MOV     C,0x90.3
   \   000024   5002         JNC     ??COMM_3
   \   000026   04           INC     A
   \   000027   F0           MOVX    @DPTR,A
     69               U8FLAG = 2;
   \                     ??COMM_3:
   \   000028   90....       MOV     DPTR,#U8FLAG
   \   00002B   7402         MOV     A,#0x2
   \   00002D   F0           MOVX    @DPTR,A
     70               while((DATA_PIN)&&U8FLAG++);   
   \                     ??COMM_4:
   \   00002E   A293         MOV     C,0x90.3
   \   000030   5005         JNC     ??COMM_5
   \   000032   12....       LCALL   ?Subroutine4 & 0xFFFF
   \                     ??CrossCallReturnLabel_3:
   \   000035   70F7         JNZ     ??COMM_4
     71               if(U8FLAG == 1)break;    
   \                     ??COMM_5:
   \   000037   E0           MOVX    A,@DPTR
   \   000038   6401         XRL     A,#0x1
   \   00003A   601B         JZ      ??COMM_6
     72               U8comdata <<= 1;
     73               U8comdata |= U8temp; 
   \   00003C   90....       MOV     DPTR,#U8temp
   \   00003F   C082         PUSH    DPL
   \   000041   90....       MOV     DPTR,#U8comdata
   \   000044   E0           MOVX    A,@DPTR
   \   000045   C3           CLR     C
   \   000046   33           RLC     A
   \   000047   7583..       MOV     DPH,#(U8temp >> 8) & 0xff
   \   00004A   D082         POP     DPL
   \   00004C   F8           MOV     R0,A
   \   00004D   E0           MOVX    A,@DPTR
   \   00004E   48           ORL     A,R0
   \   00004F   90....       MOV     DPTR,#U8comdata
   \   000052   F0           MOVX    @DPTR,A
     74               }    
   \   000053   1E           DEC     R6
   \   000054   EE           MOV     A,R6
   \   000055   70B0         JNZ     ??COMM_0
     75          }
   \                     ??COMM_6:
   \   000057   80..         SJMP    ?Subroutine1
   \   000059                REQUIRE _A_P1

   \                                 In  segment BANKED_CODE, align 1, keep-with-next
   \                     ?Subroutine4:
   \   000000   E0           MOVX    A,@DPTR
   \   000001   F8           MOV     R0,A
   \   000002   7401         MOV     A,#0x1
   \   000004   28           ADD     A,R0
   \   000005   F0           MOVX    @DPTR,A
   \   000006   E8           MOV     A,R0
   \   000007   22           RET

   \                                 In  segment BANKED_CODE, align 1, keep-with-next
   \                     ?Subroutine3:
   \   000000   7A0A         MOV     R2,#0xa
   \   000002   7B00         MOV     R3,#0x0
   \   000004   12....       LCALL   ??Onboard_wait?relay
   \   000007                ; Setup parameters for call to function Onboard_wait
   \   000007                ; Setup parameters for call to function Onboard_wait
   \   000007   7A0A         MOV     R2,#0xa
   \   000009   7B00         MOV     R3,#0x0
   \   00000B   12....       LCALL   ??Onboard_wait?relay
   \   00000E                ; Setup parameters for call to function Onboard_wait
   \   00000E                ; Setup parameters for call to function Onboard_wait
   \   00000E   7A0A         MOV     R2,#0xa
   \   000010   7B00         MOV     R3,#0x0
   \   000012   12....       LCALL   ??Onboard_wait?relay
   \   000015   22           RET
     76          

   \                                 In  segment BANKED_CODE, align 1, keep-with-next
     77          void Read_DHT11(void)   //温湿传感启动
   \                     Read_DHT11:
     78          {
   \   000000   C082         PUSH    DPL
   \   000002   C083         PUSH    DPH
   \   000004                ; Saved register size: 2
   \   000004                ; Auto size: 0
     79              DATA_PIN = 0;
   \   000004   C293         CLR     0x90.3
     80              Delay_ms(19);  //主机拉低18ms
   \   000006                ; Setup parameters for call to function Delay_ms
   \   000006   7A13         MOV     R2,#0x13
   \   000008   7B00         MOV     R3,#0x0
   \   00000A   12....       LCALL   ??Delay_ms?relay
     81              DATA_PIN = 1;     //总线由上拉电阻拉高 主机延时40us 
   \   00000D   D293         SETB    0x90.3
     82              P1DIR &=  ~0x08; //重新配置IO口方向
   \   00000F   53FEF7       ANL     0xfe,#0xf7
     83              Delay_10us();
   \   000012                ; Setup parameters for call to function Onboard_wait
   \   000012   12....       LCALL   ?Subroutine3 & 0xFFFF
     84              Delay_10us();						
     85              Delay_10us();
     86              Delay_10us();  
   \                     ??CrossCallReturnLabel_1:
   \   000015                ; Setup parameters for call to function Onboard_wait
   \   000015   7A0A         MOV     R2,#0xa
   \   000017   7B00         MOV     R3,#0x0
   \   000019   12....       LCALL   ??Onboard_wait?relay
     87              //判断从机是否有低电平响应信号 如不响应则跳出，响应则向下运行 
     88               if(!DATA_PIN) 
   \   00001C   A293         MOV     C,0x90.3
   \   00001E   5003         JNC     $+5
   \   000020   02....       LJMP    ??Read_DHT11_0 & 0xFFFF
     89               {
     90                U8FLAG = 2; //判断从机是否发出 80us 的低电平响应信号是否结束 
   \   000023   90....       MOV     DPTR,#U8FLAG
   \   000026   7402         MOV     A,#0x2
   \   000028   F0           MOVX    @DPTR,A
     91                while((!DATA_PIN)&&U8FLAG++);
   \                     ??Read_DHT11_1:
   \   000029   A293         MOV     C,0x90.3
   \   00002B   4005         JC      ??Read_DHT11_2
   \   00002D   12....       LCALL   ?Subroutine4 & 0xFFFF
   \                     ??CrossCallReturnLabel_4:
   \   000030   70F7         JNZ     ??Read_DHT11_1
     92                U8FLAG = 2;//判断从机是否发出 80us 的高电平，如发出则进入数据接收状态
   \                     ??Read_DHT11_2:
   \   000032   7402         MOV     A,#0x2
   \   000034   F0           MOVX    @DPTR,A
     93                while((DATA_PIN)&&U8FLAG++); 
   \                     ??Read_DHT11_3:
   \   000035   A293         MOV     C,0x90.3
   \   000037   5005         JNC     ??Read_DHT11_4
   \   000039   12....       LCALL   ?Subroutine4 & 0xFFFF
   \                     ??CrossCallReturnLabel_5:
   \   00003C   70F7         JNZ     ??Read_DHT11_3
     94                COMM();//数据接收状态 
   \                     ??Read_DHT11_4:
   \   00003E                ; Setup parameters for call to function COMM
   \   00003E   12....       LCALL   ??Subroutine6_0 & 0xFFFF
     95                U8RH_data_H_temp = U8comdata;
   \                     ??CrossCallReturnLabel_10:
   \   000041   90....       MOV     DPTR,#U8RH_data_H_temp
   \   000044   12....       LCALL   ?Subroutine2 & 0xFFFF
     96                COMM();
     97                U8RH_data_L_temp = U8comdata;
   \                     ??CrossCallReturnLabel_6:
   \   000047   90....       MOV     DPTR,#U8RH_data_L_temp
   \   00004A   12....       LCALL   ?Subroutine2 & 0xFFFF
     98                COMM();
     99                U8T_data_H_temp = U8comdata;
   \                     ??CrossCallReturnLabel_7:
   \   00004D   90....       MOV     DPTR,#U8T_data_H_temp
   \   000050   12....       LCALL   ?Subroutine2 & 0xFFFF
    100                COMM();
    101                U8T_data_L_temp = U8comdata;
   \                     ??CrossCallReturnLabel_8:
   \   000053   90....       MOV     DPTR,#U8T_data_L_temp
   \   000056   12....       LCALL   ?Subroutine2 & 0xFFFF
    102                COMM();
    103                U8checkdata_temp = U8comdata;
   \                     ??CrossCallReturnLabel_9:
   \   000059   90....       MOV     DPTR,#U8checkdata_temp
   \   00005C   F0           MOVX    @DPTR,A
    104                DATA_PIN = 1; 
   \   00005D   D293         SETB    0x90.3
    105                //数据校验 
    106                U8temp = (U8T_data_H_temp+U8T_data_L_temp+U8RH_data_H_temp+U8RH_data_L_temp);
   \   00005F   90....       MOV     DPTR,#U8RH_data_L_temp
   \   000062   C082         PUSH    DPL
   \   000064   C083         PUSH    DPH
   \   000066   90....       MOV     DPTR,#U8RH_data_H_temp
   \   000069   C082         PUSH    DPL
   \   00006B   C083         PUSH    DPH
   \   00006D   90....       MOV     DPTR,#U8T_data_L_temp
   \   000070   C082         PUSH    DPL
   \   000072   90....       MOV     DPTR,#U8T_data_H_temp
   \   000075   E0           MOVX    A,@DPTR
   \   000076   7583..       MOV     DPH,#(U8T_data_L_temp >> 8) & 0xff
   \   000079   D082         POP     DPL
   \   00007B   F8           MOV     R0,A
   \   00007C   E0           MOVX    A,@DPTR
   \   00007D   28           ADD     A,R0
   \   00007E   D083         POP     DPH
   \   000080   D082         POP     DPL
   \   000082   F8           MOV     R0,A
   \   000083   E0           MOVX    A,@DPTR
   \   000084   28           ADD     A,R0
   \   000085   D083         POP     DPH
   \   000087   D082         POP     DPL
   \   000089   F8           MOV     R0,A
   \   00008A   E0           MOVX    A,@DPTR
   \   00008B   28           ADD     A,R0
   \   00008C   90....       MOV     DPTR,#U8temp
   \   00008F   F0           MOVX    @DPTR,A
    107                 if(U8temp == U8checkdata_temp)
   \   000090   F8           MOV     R0,A
   \   000091   90....       MOV     DPTR,#U8checkdata_temp
   \   000094   E0           MOVX    A,@DPTR
   \   000095   68           XRL     A,R0
   \   000096   7028         JNZ     ??Read_DHT11_5
    108                {
    109                    U8RH_data_H = U8RH_data_H_temp;
   \   000098   90....       MOV     DPTR,#U8RH_data_H_temp
   \   00009B   E0           MOVX    A,@DPTR
   \   00009C   90....       MOV     DPTR,#U8RH_data_H
   \   00009F   F0           MOVX    @DPTR,A
    110                    U8RH_data_L = U8RH_data_L_temp;
   \   0000A0   90....       MOV     DPTR,#U8RH_data_L_temp
   \   0000A3   E0           MOVX    A,@DPTR
   \   0000A4   90....       MOV     DPTR,#U8RH_data_L
   \   0000A7   F0           MOVX    @DPTR,A
    111                    U8T_data_H = U8T_data_H_temp;
   \   0000A8   90....       MOV     DPTR,#U8T_data_H_temp
   \   0000AB   E0           MOVX    A,@DPTR
   \   0000AC   90....       MOV     DPTR,#U8T_data_H
   \   0000AF   F0           MOVX    @DPTR,A
    112                    U8T_data_L = U8T_data_L_temp;
   \   0000B0   90....       MOV     DPTR,#U8T_data_L_temp
   \   0000B3   E0           MOVX    A,@DPTR
   \   0000B4   90....       MOV     DPTR,#U8T_data_L
   \   0000B7   F0           MOVX    @DPTR,A
    113                    U8checkdata = U8checkdata_temp;
   \   0000B8   90....       MOV     DPTR,#U8checkdata_temp
   \   0000BB   E0           MOVX    A,@DPTR
   \   0000BC   90....       MOV     DPTR,#U8checkdata
   \   0000BF   F0           MOVX    @DPTR,A
    114                 }
    115                 Temp = U8T_data_H;
   \                     ??Read_DHT11_5:
   \   0000C0   90....       MOV     DPTR,#U8T_data_H
   \   0000C3   E0           MOVX    A,@DPTR
   \   0000C4   90....       MOV     DPTR,#Temp
   \   0000C7   F0           MOVX    @DPTR,A
    116                 Hum = U8RH_data_H;
   \   0000C8   90....       MOV     DPTR,#U8RH_data_H
   \   0000CB   E0           MOVX    A,@DPTR
   \   0000CC   8005         SJMP    ??Read_DHT11_6
    117              } 
    118              else 
    119              {  
    120                Temp = 0;
   \                     ??Read_DHT11_0:
   \   0000CE   90....       MOV     DPTR,#Temp
   \   0000D1   E4           CLR     A
   \   0000D2   F0           MOVX    @DPTR,A
    121                Hum = 0;
   \                     ??Read_DHT11_6:
   \   0000D3   90....       MOV     DPTR,#Hum
   \   0000D6   F0           MOVX    @DPTR,A
    122              } 
    123              P1DIR |=  0x08; 
   \   0000D7   43FE08       ORL     0xfe,#0x8
    124          }
   \   0000DA   02....       LJMP    ??Subroutine5_0 & 0xFFFF
   \   0000DD                REQUIRE _A_P1
   \   0000DD                REQUIRE P1DIR

   \                                 In  segment BANKED_CODE, align 1, keep-with-next
   \                     ?Subroutine2:
   \   000000   F0           MOVX    @DPTR,A
   \   000001                ; Setup parameters for call to function COMM
   \   000001                ; Setup parameters for call to function COMM
   \   000001                ; Setup parameters for call to function COMM
   \   000001                ; Setup parameters for call to function COMM
   \   000001                REQUIRE ??Subroutine6_0
   \   000001                ; // Fall through to label ??Subroutine6_0

   \                                 In  segment BANKED_CODE, align 1, keep-with-next
   \                     ??Subroutine6_0:
   \   000000   12....       LCALL   ??COMM?relay
   \   000003   90....       MOV     DPTR,#U8comdata
   \   000006   E0           MOVX    A,@DPTR
   \   000007   22           RET

   \                                 In  segment BANK_RELAYS, align 1
   \                     ??Delay_us?relay:
   \   000000   12....       LCALL   ?BDISPATCH
   \   000003   ......       DC24    Delay_us

   \                                 In  segment BANK_RELAYS, align 1
   \                     ??Delay_10us?relay:
   \   000000   12....       LCALL   ?BDISPATCH
   \   000003   ......       DC24    Delay_10us

   \                                 In  segment BANK_RELAYS, align 1
   \                     ??Delay_ms?relay:
   \   000000   12....       LCALL   ?BDISPATCH
   \   000003   ......       DC24    Delay_ms

   \                                 In  segment BANK_RELAYS, align 1
   \                     ??COMM?relay:
   \   000000   12....       LCALL   ?BDISPATCH
   \   000003   ......       DC24    COMM

   \                                 In  segment BANK_RELAYS, align 1
   \                     ??Read_DHT11?relay:
   \   000000   12....       LCALL   ?BDISPATCH
   \   000003   ......       DC24    Read_DHT11

   Maximum stack usage in bytes:

     Function          ISTACK PSTACK XSTACK
     --------          ------ ------ ------
     COMM                  2      0      9
       -> Onboard_wait     0      0     18
       -> Onboard_wait     0      0     18
       -> Onboard_wait     0      0     18
     Delay_10us            2      0      0
       -> Onboard_wait     4      0      0
     Delay_ms              0      0      9
       -> Onboard_wait     0      0     18
     Delay_us              2      0      0
       -> Onboard_wait     4      0      0
     Read_DHT11            8      0      0
       -> Delay_ms         4      0      0
       -> Onboard_wait     4      0      0
       -> Onboard_wait     4      0      0
       -> Onboard_wait     4      0      0
       -> Onboard_wait     4      0      0
       -> COMM             4      0      0
       -> COMM             4      0      0
       -> COMM             4      0      0
       -> COMM             4      0      0
       -> COMM             4      0      0


   Segment part sizes:

     Function/Label     Bytes
     --------------     -----
     _A_P1                 1
     P1DIR                 1
     U8FLAG                1
     U8temp                1
     Hum_H                 1
     Hum_L                 1
     Temp                  1
     Hum                   1
     U8T_data_H            1
     U8T_data_L            1
     U8RH_data_H           1
     U8RH_data_L           1
     U8checkdata           1
     U8T_data_H_temp       1
     U8T_data_L_temp       1
     U8RH_data_H_temp      1
     U8RH_data_L_temp      1
     U8checkdata_temp      1
     U8comdata             1
     Delay_us              6
     ?Subroutine0          5
     ??Subroutine5_0       7
     Delay_10us            8
     Delay_ms             43
     ?Subroutine1          5
     COMM                 89
     ?Subroutine4          8
     ?Subroutine3         22
     Read_DHT11          221
     ?Subroutine2          1
     ??Subroutine6_0       8
     ??Delay_us?relay      6
     ??Delay_10us?relay    6
     ??Delay_ms?relay      6
     ??COMM?relay          6
     ??Read_DHT11?relay    6

 
 423 bytes in segment BANKED_CODE
  30 bytes in segment BANK_RELAYS
   2 bytes in segment SFR_AN
  17 bytes in segment XDATA_Z
 
 453 bytes of CODE  memory
   0 bytes of DATA  memory (+ 2 bytes shared)
  17 bytes of XDATA memory

Errors: none
Warnings: none
